
asm:     file format elf64-littleriscv


Disassembly of section .text:

00000000000100b0 <.text>:
   100b0:    00010197            auipc   gp,0x10
   100b4:    48818193            addi    gp,gp,1160 # 0x20538
   100b8:    89018513            addi    a0,gp,-1904
   100bc:    92018613            addi    a2,gp,-1760
   100c0:    8e09                sub     a2,a2,a0
   100c2:    4581                li      a1,0
   100c4:    2ee000ef            jal     ra,0x103b2
   100c8:    00000517            auipc   a0,0x0
   100cc:    23c50513            addi    a0,a0,572 # 0x10304
   100d0:    20a000ef            jal     ra,0x102da
   100d4:    26c000ef            jal     ra,0x10340
   100d8:    4502                lw      a0,0(sp)
   100da:    002c                addi    a1,sp,8
   100dc:    4601                li      a2,0
   100de:    0c8000ef            jal     ra,0x101a6
   100e2:    2040006f            j       0x102e6
   100e6:    8082                ret

   100e8:    00020537            lui     a0,0x20
   100ec:    000207b7            lui     a5,0x20
   100f0:    d3850713            addi    a4,a0,-712 # 0x1fd38
   100f4:    d3878793            addi    a5,a5,-712 # 0x1fd38
   100f8:    00e78b63            beq     a5,a4,0x1010e
   100fc:    00000337            lui     t1,0x0
   10100:    00030313            mv      t1,t1
   10104:    00030563            beqz    t1,0x1010e
   10108:    d3850513            addi    a0,a0,-712
   1010c:    8302                jr      t1
   1010e:    8082                ret

   10110:    000207b7            lui     a5,0x20
   10114:    00020537            lui     a0,0x20
   10118:    d3878593            addi    a1,a5,-712 # 0x1fd38
   1011c:    d3850793            addi    a5,a0,-712 # 0x1fd38
   10120:    8d9d                sub     a1,a1,a5
   10122:    858d                srai    a1,a1,0x3
   10124:    4789                li      a5,2
   10126:    02f5c5b3            div     a1,a1,a5
   1012a:    c991                beqz    a1,0x1013e
   1012c:    00000337            lui     t1,0x0
   10130:    00030313            mv      t1,t1
   10134:    00030563            beqz    t1,0x1013e
   10138:    d3850513            addi    a0,a0,-712
   1013c:    8302                jr      t1
   1013e:    8082                ret

   10140:    8b81c703            lbu     a4,-1864(gp)
   10144:    eb1d                bnez    a4,0x1017a
   10146:    1141                addi    sp,sp,-16
   10148:    e022                sd      s0,0(sp)
   1014a:    e406                sd      ra,8(sp)
   1014c:    843e                mv      s0,a5
   1014e:    f9bff0ef            jal     ra,0x100e8
   10152:    000007b7            lui     a5,0x0
   10156:    00078793            mv      a5,a5
   1015a:    cb89                beqz    a5,0x1016c
   1015c:    0001f537            lui     a0,0x1f
   10160:    b8850513            addi    a0,a0,-1144 # 0x1eb88
   10164:    00000097            auipc   ra,0x0
   10168:    000000e7            jalr    zero # 0x0
   1016c:    4785                li      a5,1
   1016e:    8af18c23            sb      a5,-1864(gp)
   10172:    60a2                ld      ra,8(sp)
   10174:    6402                ld      s0,0(sp)
   10176:    0141                addi    sp,sp,16
   10178:    8082                ret

   1017a:    8082                ret

   1017c:    000007b7            lui     a5,0x0
   10180:    00078793            mv      a5,a5
   10184:    cf99                beqz    a5,0x101a2
   10186:    0001f537            lui     a0,0x1f
   1018a:    1141                addi    sp,sp,-16
   1018c:    8c018593            addi    a1,gp,-1856
   10190:    b8850513            addi    a0,a0,-1144 # 0x1eb88
   10194:    e406                sd      ra,8(sp)
   10196:    00000097            auipc   ra,0x0
   1019a:    000000e7            jalr    zero # 0x0
   1019e:    60a2                ld      ra,8(sp)
   101a0:    0141                addi    sp,sp,16
   101a2:    f6fff06f            j       0x10110
   101a6:    df010113            addi    sp,sp,-528
   101aa:    20113423            sd      ra,520(sp)
   101ae:    20813023            sd      s0,512(sp)
   101b2:    0c00                addi    s0,sp,528
   101b4:    67f5                lui     a5,0x1d
   101b6:    f0078513            addi    a0,a5,-256 # 0x1cf00
   101ba:    31c000ef            jal     ra,0x104d6 //printf?
   101be:    f8040793            addi    a5,s0,-128
   101c2:    85be                mv      a1,a5
   101c4:    67f5                lui     a5,0x1d
   101c6:    f1078513            addi    a0,a5,-240 # 0x1cf10
   101ca:    316000ef            jal     ra,0x104e0 //scanf
   101ce:    f8040793            addi    a5,s0,-128 
   101d2:    853e                mv      a0,a5
   101d4:    358000ef            jal     ra,0x1052c //? scanf?
   101d8:    87aa                mv      a5,a0
   101da:    fef42423            sw      a5,-24(s0) //len?
   101de:    fe042623            sw      zero,-20(s0) // i
   101e2:    a041                j       0x10262
   
   101e4:    fec42783            lw      a5,-20(s0)
   101e8:    ff040713            addi    a4,s0,-16
   101ec:    97ba                add     a5,a5,a4
   101ee:    f907c703            lbu     a4,-112(a5)
   101f2:    fec42783            lw      a5,-20(s0)
   101f6:    2785                addiw   a5,a5,1
   101f8:    2781                sext.w  a5,a5
   101fa:    86be                mv      a3,a5
   101fc:    47fd                li      a5,31
   101fe:    02f6e7bb            remw    a5,a3,a5
   10202:    2781                sext.w  a5,a5
   10204:    ff040693            addi    a3,s0,-16
   10208:    97b6                add     a5,a5,a3
   1020a:    f907c783            lbu     a5,-112(a5)
   1020e:    8fb9                xor     a5,a5,a4
   10210:    0ff7f793            andi    a5,a5,255
   10214:    0007869b            sext.w  a3,a5
   10218:    fec42703            lw      a4,-20(s0)
   1021c:    87ba                mv      a5,a4     //a4 = i
   1021e:    0017979b            slliw   a5,a5,0x1 //
   10222:    9fb9                addw    a5,a5,a4  //
   10224:    0057979b            slliw   a5,a5,0x5
   10228:    9fb9                addw    a5,a5,a4  //((((i<<1)+i)<<5)+i)
   1022a:    2781                sext.w  a5,a5
   1022c:    873e                mv      a4,a5     // a4 = ((((i<<1)+i)<<5)+i)
   1022e:    41f7579b            sraiw   a5,a4,0x1f //((((i<<1)+i)<<5)+i)>>0x1f
   10232:    0187d79b            srliw   a5,a5,0x18 //((((((i<<1)+i)<<5)+i)>>0x1f)<<0x18)
   10236:    9f3d                addw    a4,a4,a5   //((((((((i<<1)+i)<<5)+i)>>0x1f)<<0x18)+((((i<<1)+i)<<5)+i))&0xff)
   10238:    0ff77713            andi    a4,a4,255
   1023c:    40f707bb            subw    a5,a4,a5
   10240:    2781                sext.w  a5,a5
   10242:    8fb5                xor     a5,a5,a3
   10244:    0007871b            sext.w  a4,a5
   10248:    fec42783            lw      a5,-20(s0)
   1024c:    078a                slli    a5,a5,0x2 //i<<2
   1024e:    ff040693            addi    a3,s0,-16 
   10252:    97b6                add     a5,a5,a3    b[i<<2] = 
   10254:    e0e7a023            sw      a4,-512(a5)
   10258:    fec42783            lw      a5,-20(s0)
   1025c:    2785                addiw   a5,a5,1
   1025e:    fef42623            sw      a5,-20(s0)
   10262:    fec42703            lw      a4,-20(s0)
   10266:    fe842783            lw      a5,-24(s0)
   1026a:    2701                sext.w  a4,a4
   1026c:    2781                sext.w  a5,a5
   1026e:    f6f74be3            blt     a4,a5,0x101e4
   
   10272:    fe042623            sw      zero,-20(s0) //i = 0
   10276:    a825                j       0x102ae      //
   10278:    fec42783            lw      a5,-20(s0)
   1027c:    078a                slli    a5,a5,0x2  //
   1027e:    ff040713            addi    a4,s0,-16
   10282:    97ba                add     a5,a5,a4
   10284:    e007a683            lw      a3,-512(a5) //b[i]
   10288:    0001f7b7            lui     a5,0x1f
   1028c:    fec42703            lw      a4,-20(s0)
   10290:    070a                slli    a4,a4,0x2
   10292:    ba078793            addi    a5,a5,-1120 # 0x1eba0 
   10296:    97ba                add     a5,a5,a4      //const[i]
   10298:    439c                lw      a5,0(a5)
   1029a:    8736                mv      a4,a3
   1029c:    00f70463            beq     a4,a5,0x102a4
   102a0:    4781                li      a5,0
   102a2:    a025                j       0x102ca
   102a4:    fec42783            lw      a5,-20(s0)
   102a8:    2785                addiw   a5,a5,1
   102aa:    fef42623            sw      a5,-20(s0)
   102ae:    fec42703            lw      a4,-20(s0)
   102b2:    fe842783            lw      a5,-24(s0)
   102b6:    2701                sext.w  a4,a4
   102b8:    2781                sext.w  a5,a5
   102ba:    faf74fe3            blt     a4,a5,0x10278
   
   102be:    67f5                lui     a5,0x1d
   102c0:    f1878513            addi    a0,a5,-232 # 0x1cf18
   102c4:    212000ef            jal     ra,0x104d6
   102c8:    4781                li      a5,0
   102ca:    853e                mv      a0,a5
   102cc:    20813083            ld      ra,520(sp)
   102d0:    20013403            ld      s0,512(sp)
   102d4:    21010113            addi    sp,sp,528
   102d8:    8082                ret

   102da:    85aa                mv      a1,a0
   102dc:    4681                li      a3,0
   102de:    4601                li      a2,0
   102e0:    4501                li      a0,0
   102e2:    1fa0206f            j       0x124dc
   102e6:    1141                addi    sp,sp,-16
   102e8:    4581                li      a1,0
   102ea:    e022                sd      s0,0(sp)
   102ec:    e406                sd      ra,8(sp)
   102ee:    842a                mv      s0,a0
   102f0:    250020ef            jal     ra,0x12540
   102f4:    8681b503            ld      a0,-1944(gp)
   102f8:    6d3c                ld      a5,88(a0)
   102fa:    c391                beqz    a5,0x102fe
   102fc:    9782                jalr    a5
   102fe:    8522                mv      a0,s0
   10300:    5e40b0ef            jal     ra,0x1b8e4
   10304:    1101                addi    sp,sp,-32
   10306:    0001f7b7            lui     a5,0x1f
   1030a:    e822                sd      s0,16(sp)
   1030c:    0001f437            lui     s0,0x1f
   10310:    b9878713            addi    a4,a5,-1128 # 0x1eb98
   10314:    ba040413            addi    s0,s0,-1120 # 0x1eba0
   10318:    8c19                sub     s0,s0,a4
   1031a:    e426                sd      s1,8(sp)
   1031c:    ec06                sd      ra,24(sp)
   1031e:    840d                srai    s0,s0,0x3
   10320:    b9878493            addi    s1,a5,-1128
   10324:    e419                bnez    s0,0x10332
   10326:    6442                ld      s0,16(sp)
   10328:    60e2                ld      ra,24(sp)
   1032a:    64a2                ld      s1,8(sp)
   1032c:    6105                addi    sp,sp,32
   1032e:    db9ff06f            j       0x100e6
   10332:    147d                addi    s0,s0,-1
   10334:    00341793            slli    a5,s0,0x3
   10338:    97a6                add     a5,a5,s1
   1033a:    639c                ld      a5,0(a5)
   1033c:    9782                jalr    a5
   1033e:    b7dd                j       0x10324
   10340:    1101                addi    sp,sp,-32
   10342:    0001f7b7            lui     a5,0x1f
   10346:    e822                sd      s0,16(sp)
   10348:    0001f437            lui     s0,0x1f
   1034c:    b8c78713            addi    a4,a5,-1140 # 0x1eb8c
   10350:    b8c40413            addi    s0,s0,-1140 # 0x1eb8c
   10354:    8c19                sub     s0,s0,a4
   10356:    e426                sd      s1,8(sp)
   10358:    e04a                sd      s2,0(sp)
   1035a:    ec06                sd      ra,24(sp)
   1035c:    840d                srai    s0,s0,0x3
   1035e:    4481                li      s1,0
   10360:    b8c78913            addi    s2,a5,-1140
   10364:    02849963            bne     s1,s0,0x10396
   10368:    d7fff0ef            jal     ra,0x100e6
   1036c:    0001f7b7            lui     a5,0x1f
   10370:    0001f437            lui     s0,0x1f
   10374:    b9078713            addi    a4,a5,-1136 # 0x1eb90
   10378:    b9840413            addi    s0,s0,-1128 # 0x1eb98
   1037c:    8c19                sub     s0,s0,a4
   1037e:    840d                srai    s0,s0,0x3
   10380:    4481                li      s1,0
   10382:    b9078913            addi    s2,a5,-1136
   10386:    00849f63            bne     s1,s0,0x103a4
   1038a:    60e2                ld      ra,24(sp)
   1038c:    6442                ld      s0,16(sp)
   1038e:    64a2                ld      s1,8(sp)
   10390:    6902                ld      s2,0(sp)
   10392:    6105                addi    sp,sp,32
   10394:    8082                ret

   10396:    00349793            slli    a5,s1,0x3
   1039a:    97ca                add     a5,a5,s2
   1039c:    639c                ld      a5,0(a5)
   1039e:    0485                addi    s1,s1,1
   103a0:    9782                jalr    a5
   103a2:    b7c9                j       0x10364
   103a4:    00349793            slli    a5,s1,0x3
   103a8:    97ca                add     a5,a5,s2
   103aa:    639c                ld      a5,0(a5)
   103ac:    0485                addi    s1,s1,1
   103ae:    9782                jalr    a5
   103b0:    bfd9                j       0x10386
   103b2:    433d                li      t1,15
   103b4:    872a                mv      a4,a0
   103b6:    02c37163            bgeu    t1,a2,0x103d8
   103ba:    00f77793            andi    a5,a4,15
   103be:    e3c1                bnez    a5,0x1043e
   103c0:    e1bd                bnez    a1,0x10426
   103c2:    ff067693            andi    a3,a2,-16
   103c6:    8a3d                andi    a2,a2,15
   103c8:    96ba                add     a3,a3,a4
   103ca:    e30c                sd      a1,0(a4)
   103cc:    e70c                sd      a1,8(a4)
   103ce:    0741                addi    a4,a4,16
   103d0:    fed76de3            bltu    a4,a3,0x103ca
   103d4:    e211                bnez    a2,0x103d8
   103d6:    8082                ret

   103d8:    40c306b3            sub     a3,t1,a2
   103dc:    068a                slli    a3,a3,0x2
   103de:    00000297            auipc   t0,0x0
   103e2:    9696                add     a3,a3,t0
   103e4:    00a68067            jr      10(a3)
   103e8:    00b70723            sb      a1,14(a4)
   103ec:    00b706a3            sb      a1,13(a4)
   103f0:    00b70623            sb      a1,12(a4)
   103f4:    00b705a3            sb      a1,11(a4)
   103f8:    00b70523            sb      a1,10(a4)
   103fc:    00b704a3            sb      a1,9(a4)
   10400:    00b70423            sb      a1,8(a4)
   10404:    00b703a3            sb      a1,7(a4)
   10408:    00b70323            sb      a1,6(a4)
   1040c:    00b702a3            sb      a1,5(a4)
   10410:    00b70223            sb      a1,4(a4)
   10414:    00b701a3            sb      a1,3(a4)
   10418:    00b70123            sb      a1,2(a4)
   1041c:    00b700a3            sb      a1,1(a4)
   10420:    00b70023            sb      a1,0(a4)
   10424:    8082                ret

   10426:    0ff5f593            andi    a1,a1,255
   1042a:    00859693            slli    a3,a1,0x8
   1042e:    8dd5                or      a1,a1,a3
   10430:    01059693            slli    a3,a1,0x10
   10434:    8dd5                or      a1,a1,a3
   10436:    02059693            slli    a3,a1,0x20
   1043a:    8dd5                or      a1,a1,a3
   1043c:    b759                j       0x103c2
   1043e:    00279693            slli    a3,a5,0x2
   10442:    00000297            auipc   t0,0x0
   10446:    9696                add     a3,a3,t0
   10448:    8286                mv      t0,ra
   1044a:    fa2680e7            jalr    -94(a3)
   1044e:    8096                mv      ra,t0
   10450:    17c1                addi    a5,a5,-16
   10452:    8f1d                sub     a4,a4,a5
   10454:    963e                add     a2,a2,a5
   10456:    f8c371e3            bgeu    t1,a2,0x103d8
   1045a:    b79d                j       0x103c0
   1045c:    711d                addi    sp,sp,-96
   1045e:    e8a2                sd      s0,80(sp)
   10460:    842a                mv      s0,a0
   10462:    852e                mv      a0,a1
   10464:    e42e                sd      a1,8(sp)
   10466:    ec86                sd      ra,88(sp)
   10468:    0c4000ef            jal     ra,0x1052c
   1046c:    0001d7b7            lui     a5,0x1d
   10470:    f2078793            addi    a5,a5,-224 # 0x1cf20
   10474:    e0be                sd      a5,64(sp)
   10476:    4785                li      a5,1
   10478:    e4be                sd      a5,72(sp)
   1047a:    181c                addi    a5,sp,48
   1047c:    65a2                ld      a1,8(sp)
   1047e:    ec3e                sd      a5,24(sp)
   10480:    4789                li      a5,2
   10482:    d03e                sw      a5,32(sp)
   10484:    483c                lw      a5,80(s0)
   10486:    fc2a                sd      a0,56(sp)
   10488:    0505                addi    a0,a0,1
   1048a:    f82e                sd      a1,48(sp)
   1048c:    f42a                sd      a0,40(sp)
   1048e:    680c                ld      a1,16(s0)
   10490:    e791                bnez    a5,0x1049c
   10492:    8522                mv      a0,s0
   10494:    e42e                sd      a1,8(sp)
   10496:    222020ef            jal     ra,0x126b8
   1049a:    65a2                ld      a1,8(sp)
   1049c:    01059783            lh      a5,16(a1)
   104a0:    03279713            slli    a4,a5,0x32
   104a4:    00074d63            bltz    a4,0x104be
   104a8:    6689                lui     a3,0x2
   104aa:    0ac5a703            lw      a4,172(a1)
   104ae:    8fd5                or      a5,a5,a3
   104b0:    00f59823            sh      a5,16(a1)
   104b4:    77f9                lui     a5,0xffffe
   104b6:    17fd                addi    a5,a5,-1
   104b8:    8ff9                and     a5,a5,a4
   104ba:    0af5a623            sw      a5,172(a1)
   104be:    0830                addi    a2,sp,24
   104c0:    8522                mv      a0,s0
   104c2:    3e4020ef            jal     ra,0x128a6
   104c6:    57fd                li      a5,-1
   104c8:    e111                bnez    a0,0x104cc
   104ca:    47a9                li      a5,10
   104cc:    60e6                ld      ra,88(sp)
   104ce:    6446                ld      s0,80(sp)
   104d0:    853e                mv      a0,a5
   104d2:    6125                addi    sp,sp,96
   104d4:    8082                ret

   104d6:    85aa                mv      a1,a0
   104d8:    8781b503            ld      a0,-1928(gp)
   104dc:    f81ff06f            j       0x1045c
   104e0:    711d                addi    sp,sp,-96
   104e2:    e4be                sd      a5,72(sp)
   104e4:    8781b783            ld      a5,-1928(gp)
   104e8:    f832                sd      a2,48(sp)
   104ea:    fc36                sd      a3,56(sp)
   104ec:    f42e                sd      a1,40(sp)
   104ee:    e0ba                sd      a4,64(sp)
   104f0:    e8c2                sd      a6,80(sp)
   104f2:    ecc6                sd      a7,88(sp)
   104f4:    678c                ld      a1,8(a5)
   104f6:    1034                addi    a3,sp,40
   104f8:    862a                mv      a2,a0
   104fa:    853e                mv      a0,a5
   104fc:    ec06                sd      ra,24(sp)
   104fe:    e436                sd      a3,8(sp)
   10500:    7b3010ef            jal     ra,0x124b2
   10504:    60e2                ld      ra,24(sp)
   10506:    6125                addi    sp,sp,96
   10508:    8082                ret

   1050a:    715d                addi    sp,sp,-80
   1050c:    f032                sd      a2,32(sp)
   1050e:    f436                sd      a3,40(sp)
   10510:    f83a                sd      a4,48(sp)
   10512:    fc3e                sd      a5,56(sp)
   10514:    e0c2                sd      a6,64(sp)
   10516:    e4c6                sd      a7,72(sp)
   10518:    862e                mv      a2,a1
   1051a:    650c                ld      a1,8(a0)
   1051c:    1014                addi    a3,sp,32
   1051e:    ec06                sd      ra,24(sp)
   10520:    e436                sd      a3,8(sp)
   10522:    791010ef            jal     ra,0x124b2
   10526:    60e2                ld      ra,24(sp)
   10528:    6161                addi    sp,sp,80
   1052a:    8082                ret

   1052c:    87aa                mv      a5,a0
   1052e:    0785                addi    a5,a5,1
   10530:    fff7c703            lbu     a4,-1(a5) # 0xffffffffffffdfff
   10534:    ff6d                bnez    a4,0x1052e
   10536:    40a78533            sub     a0,a5,a0
   1053a:    157d                addi    a0,a0,-1
   1053c:    8082                ret

   1053e:    a9010113            addi    sp,sp,-1392
   10542:    77fd                lui     a5,0xfffff
   10544:    56813023            sd      s0,1376(sp)
   10548:    54913c23            sd      s1,1368(sp)
   1054c:    53513c23            sd      s5,1336(sp)
   10550:    51913c23            sd      s9,1304(sp)
   10554:    56113423            sd      ra,1384(sp)
   10558:    55213823            sd      s2,1360(sp)
   1055c:    55313423            sd      s3,1352(sp)
   10560:    55413023            sd      s4,1344(sp)
   10564:    53613823            sd      s6,1328(sp)
   10568:    53713423            sd      s7,1320(sp)
   1056c:    53813023            sd      s8,1312(sp)
   10570:    51a13823            sd      s10,1296(sp)
   10574:    51b13423            sd      s11,1288(sp)
   10578:    57010413            addi    s0,sp,1392
   1057c:    af878793            addi    a5,a5,-1288 # 0xffffffffffffeaf8
   10580:    97a2                add     a5,a5,s0
   10582:    e390                sd      a2,0(a5)
   10584:    01059783            lh      a5,16(a1)
   10588:    737d                lui     t1,0xfffff
   1058a:    911a                add     sp,sp,t1
   1058c:    03279713            slli    a4,a5,0x32
   10590:    8aaa                mv      s5,a0
   10592:    84ae                mv      s1,a1
   10594:    8cb6                mv      s9,a3
   10596:    00074d63            bltz    a4,0x105b0
   1059a:    6689                lui     a3,0x2
   1059c:    0ac5a703            lw      a4,172(a1)
   105a0:    8fd5                or      a5,a5,a3
   105a2:    00f59823            sh      a5,16(a1)
   105a6:    77f9                lui     a5,0xffffe
   105a8:    17fd                addi    a5,a5,-1
   105aa:    8ff9                and     a5,a5,a4
   105ac:    0af5a623            sw      a5,172(a1)
   105b0:    77fd                lui     a5,0xfffff
   105b2:    af078793            addi    a5,a5,-1296 # 0xffffffffffffeaf0
   105b6:    97a2                add     a5,a5,s0
   105b8:    777d                lui     a4,0xfffff
   105ba:    0007b023            sd      zero,0(a5)
   105be:    aa870713            addi    a4,a4,-1368 # 0xffffffffffffeaa8
   105c2:    67f5                lui     a5,0x1d
   105c4:    f2878793            addi    a5,a5,-216 # 0x1cf28
   105c8:    9722                add     a4,a4,s0
   105ca:    e31c                sd      a5,0(a4)
   105cc:    777d                lui     a4,0xfffff
   105ce:    b8870713            addi    a4,a4,-1144 # 0xffffffffffffeb88
   105d2:    f9040793            addi    a5,s0,-112
   105d6:    97ba                add     a5,a5,a4
   105d8:    777d                lui     a4,0xfffff
   105da:    aa070713            addi    a4,a4,-1376 # 0xffffffffffffeaa0
   105de:    9722                add     a4,a4,s0
   105e0:    4981                li      s3,0
   105e2:    4b01                li      s6,0
   105e4:    4a01                li      s4,0
   105e6:    4c01                li      s8,0
   105e8:    7bfd                lui     s7,0xfffff
   105ea:    e31c                sd      a5,0(a4)
   105ec:    77fd                lui     a5,0xfffff
   105ee:    af878793            addi    a5,a5,-1288 # 0xffffffffffffeaf8
   105f2:    97a2                add     a5,a5,s0
   105f4:    639c                ld      a5,0(a5)
   105f6:    f9040693            addi    a3,s0,-112
   105fa:    01768933            add     s2,a3,s7
   105fe:    0007c703            lbu     a4,0(a5)
   10602:    77fd                lui     a5,0xfffff
   10604:    af878793            addi    a5,a5,-1288 # 0xffffffffffffeaf8
   10608:    97a2                add     a5,a5,s0
   1060a:    639c                ld      a5,0(a5)
   1060c:    76fd                lui     a3,0xfffff
   1060e:    af868693            addi    a3,a3,-1288 # 0xffffffffffffeaf8
   10612:    0785                addi    a5,a5,1
   10614:    96a2                add     a3,a3,s0
   10616:    b6e92e23            sw      a4,-1156(s2)
   1061a:    e29c                sd      a5,0(a3)
   1061c:    c371                beqz    a4,0x106e0
   1061e:    70c020ef            jal     ra,0x12d2a
   10622:    b7c92783            lw      a5,-1156(s2)
   10626:    953e                add     a0,a0,a5
   10628:    00154683            lbu     a3,1(a0)
   1062c:    8aa1                andi    a3,a3,8
   1062e:    ca9d                beqz    a3,0x10664
   10630:    449c                lw      a5,8(s1)
   10632:    02f05363            blez    a5,0x10658
   10636:    6f4020ef            jal     ra,0x12d2a
   1063a:    609c                ld      a5,0(s1)
   1063c:    0007c703            lbu     a4,0(a5)
   10640:    953a                add     a0,a0,a4
   10642:    00154703            lbu     a4,1(a0)
   10646:    8b21                andi    a4,a4,8
   10648:    d355                beqz    a4,0x105ec
   1064a:    4498                lw      a4,8(s1)
   1064c:    0785                addi    a5,a5,1
   1064e:    2a05                addiw   s4,s4,1
   10650:    377d                addiw   a4,a4,-1
   10652:    c498                sw      a4,8(s1)
   10654:    e09c                sd      a5,0(s1)
   10656:    bfe9                j       0x10630
   10658:    85a6                mv      a1,s1
   1065a:    8556                mv      a0,s5
   1065c:    1ac030ef            jal     ra,0x13808
   10660:    d979                beqz    a0,0x10636
   10662:    b769                j       0x105ec
   10664:    02500713            li      a4,37
   10668:    04e79d63            bne     a5,a4,0x106c2
   1066c:    77fd                lui     a5,0xfffff
   1066e:    af878793            addi    a5,a5,-1288 # 0xffffffffffffeaf8
   10672:    97a2                add     a5,a5,s0
   10674:    6390                ld      a2,0(a5)
   10676:    4901                li      s2,0
   10678:    4781                li      a5,0
   1067a:    05500813            li      a6,85
   1067e:    4529                li      a0,10
   10680:    06800893            li      a7,104
   10684:    06c00313            li      t1,108
   10688:    777d                lui     a4,0xfffff
   1068a:    af870713            addi    a4,a4,-1288 # 0xffffffffffffeaf8
   1068e:    9722                add     a4,a4,s0
   10690:    6318                ld      a4,0(a4)
   10692:    75fd                lui     a1,0xfffff
   10694:    af858593            addi    a1,a1,-1288 # 0xffffffffffffeaf8
   10698:    0705                addi    a4,a4,1
   1069a:    95a2                add     a1,a1,s0
   1069c:    e198                sd      a4,0(a1)
   1069e:    00064583            lbu     a1,0(a2)
   106a2:    fdb5871b            addiw   a4,a1,-37
   106a6:    0ff77713            andi    a4,a4,255
   106aa:    02e86b63            bltu    a6,a4,0x106e0
   106ae:    7e7d                lui     t3,0xfffff
   106b0:    aa8e0e13            addi    t3,t3,-1368 # 0xffffffffffffeaa8
   106b4:    9e22                add     t3,t3,s0
   106b6:    000e3e03            ld      t3,0(t3)
   106ba:    070a                slli    a4,a4,0x2
   106bc:    9772                add     a4,a4,t3
   106be:    4318                lw      a4,0(a4)
   106c0:    8702                jr      a4
   106c2:    449c                lw      a5,8(s1)
   106c4:    02f05163            blez    a5,0x106e6
   106c8:    777d                lui     a4,0xfffff
   106ca:    af870713            addi    a4,a4,-1288 # 0xffffffffffffeaf8
   106ce:    9722                add     a4,a4,s0
   106d0:    609c                ld      a5,0(s1)
   106d2:    6318                ld      a4,0(a4)
   106d4:    0007c683            lbu     a3,0(a5)
   106d8:    fff74703            lbu     a4,-1(a4)
   106dc:    02e68763            beq     a3,a4,0x1070a
   106e0:    20099163            bnez    s3,0x108e2
   106e4:    a421                j       0x108ec
   106e6:    85a6                mv      a1,s1
   106e8:    8556                mv      a0,s5
   106ea:    11e030ef            jal     ra,0x13808
   106ee:    dd69                beqz    a0,0x106c8
   106f0:    000c0763            beqz    s8,0x106fe
   106f4:    0104d783            lhu     a5,16(s1)
   106f8:    0407f793            andi    a5,a5,64
   106fc:    d3f5                beqz    a5,0x106e0
   106fe:    5c7d                li      s8,-1
   10700:    1e098663            beqz    s3,0x108ec
   10704:    4481                li      s1,0
   10706:    5530106f            j       0x12458
   1070a:    4498                lw      a4,8(s1)
   1070c:    0785                addi    a5,a5,1
   1070e:    e09c                sd      a5,0(s1)
   10710:    377d                addiw   a4,a4,-1
   10712:    c498                sw      a4,8(s1)
   10714:    2a05                addiw   s4,s4,1
   10716:    bdd9                j       0x105ec
   10718:    f7e1                bnez    a5,0x106e0
   1071a:    fc0913e3            bnez    s2,0x106e0
   1071e:    47c1                li      a5,16
   10720:    777d                lui     a4,0xfffff
   10722:    af870713            addi    a4,a4,-1288 # 0xffffffffffffeaf8
   10726:    9722                add     a4,a4,s0
   10728:    6310                ld      a2,0(a4)
   1072a:    bfb9                j       0x10688
   1072c:    00f7f713            andi    a4,a5,15
   10730:    fb45                bnez    a4,0x106e0
   10732:    00164703            lbu     a4,1(a2)
   10736:    04671763            bne     a4,t1,0x10784
   1073a:    00260713            addi    a4,a2,2
   1073e:    767d                lui     a2,0xfffff
   10740:    af860613            addi    a2,a2,-1288 # 0xffffffffffffeaf8
   10744:    9622                add     a2,a2,s0
   10746:    e218                sd      a4,0(a2)
   10748:    0027e793            ori     a5,a5,2
   1074c:    bfd1                j       0x10720
   1074e:    00f7f713            andi    a4,a5,15
   10752:    db7d                beqz    a4,0x10748
   10754:    b771                j       0x106e0
   10756:    00f7f713            andi    a4,a5,15
   1075a:    f359                bnez    a4,0x106e0
   1075c:    00164703            lbu     a4,1(a2)
   10760:    01171c63            bne     a4,a7,0x10778
   10764:    00260713            addi    a4,a2,2
   10768:    767d                lui     a2,0xfffff
   1076a:    af860613            addi    a2,a2,-1288 # 0xffffffffffffeaf8
   1076e:    9622                add     a2,a2,s0
   10770:    e218                sd      a4,0(a2)
   10772:    0087e793            ori     a5,a5,8
   10776:    b76d                j       0x10720
   10778:    0047e793            ori     a5,a5,4
   1077c:    b755                j       0x10720
   1077e:    00f7f713            andi    a4,a5,15
   10782:    ff39                bnez    a4,0x106e0
   10784:    0017e793            ori     a5,a5,1
   10788:    bf61                j       0x10720
   1078a:    08f7f713            andi    a4,a5,143
   1078e:    fb29                bnez    a4,0x106e0
   10790:    00099863            bnez    s3,0x107a0
   10794:    1141                addi    sp,sp,-16
   10796:    898a                mv      s3,sp
   10798:    0009b023            sd      zero,0(s3)
   1079c:    0009a423            sw      zero,8(s3)
   107a0:    0807e793            ori     a5,a5,128
   107a4:    bfb5                j       0x10720
   107a6:    08f7f713            andi    a4,a5,143
   107aa:    fb1d                bnez    a4,0x106e0
   107ac:    02a90933            mul     s2,s2,a0
   107b0:    fd090913            addi    s2,s2,-48
   107b4:    992e                add     s2,s2,a1
   107b6:    b7ad                j       0x10720
   107b8:    0017e793            ori     a5,a5,1
   107bc:    00015737            lui     a4,0x15
   107c0:    d8c70713            addi    a4,a4,-628 # 0x14d8c
   107c4:    a01d                j       0x107ea
   107c6:    0017e793            ori     a5,a5,1
   107ca:    767d                lui     a2,0xfffff
   107cc:    00015737            lui     a4,0x15
   107d0:    af060613            addi    a2,a2,-1296 # 0xffffffffffffeaf0
   107d4:    1a270713            addi    a4,a4,418 # 0x151a2
   107d8:    9622                add     a2,a2,s0
   107da:    e218                sd      a4,0(a2)
   107dc:    4b21                li      s6,8
   107de:    4d8d                li      s11,3
   107e0:    a815                j       0x10814
   107e2:    00015737            lui     a4,0x15
   107e6:    1a270713            addi    a4,a4,418 # 0x151a2
   107ea:    767d                lui     a2,0xfffff
   107ec:    af060613            addi    a2,a2,-1296 # 0xffffffffffffeaf0
   107f0:    9622                add     a2,a2,s0
   107f2:    e218                sd      a4,0(a2)
   107f4:    4b29                li      s6,10
   107f6:    b7e5                j       0x107de
   107f8:    2007e793            ori     a5,a5,512
   107fc:    767d                lui     a2,0xfffff
   107fe:    00015737            lui     a4,0x15
   10802:    af060613            addi    a2,a2,-1296 # 0xffffffffffffeaf0
   10806:    1a270713            addi    a4,a4,418 # 0x151a2
   1080a:    9622                add     a2,a2,s0
   1080c:    e218                sd      a4,0(a2)
   1080e:    4b41                li      s6,16
   10810:    b7f9                j       0x107de
   10812:    4d91                li      s11,4
   10814:    4498                lw      a4,8(s1)
   10816:    1ee05163            blez    a4,0x109f8
   1081a:    0407f713            andi    a4,a5,64
   1081e:    e321                bnez    a4,0x1085e
   10820:    777d                lui     a4,0xfffff
   10822:    ae070713            addi    a4,a4,-1312 # 0xffffffffffffeae0
   10826:    9722                add     a4,a4,s0
   10828:    e314                sd      a3,0(a4)
   1082a:    777d                lui     a4,0xfffff
   1082c:    ae870713            addi    a4,a4,-1304 # 0xffffffffffffeae8
   10830:    9722                add     a4,a4,s0
   10832:    e31c                sd      a5,0(a4)
   10834:    4f6020ef            jal     ra,0x12d2a
   10838:    6098                ld      a4,0(s1)
   1083a:    77fd                lui     a5,0xfffff
   1083c:    76fd                lui     a3,0xfffff
   1083e:    00074603            lbu     a2,0(a4)
   10842:    ae878793            addi    a5,a5,-1304 # 0xffffffffffffeae8
   10846:    ae068693            addi    a3,a3,-1312 # 0xffffffffffffeae0
   1084a:    9532                add     a0,a0,a2
   1084c:    00154603            lbu     a2,1(a0)
   10850:    97a2                add     a5,a5,s0
   10852:    96a2                add     a3,a3,s0
   10854:    8a21                andi    a2,a2,8
   10856:    639c                ld      a5,0(a5)
   10858:    6294                ld      a3,0(a3)
   1085a:    1c061a63            bnez    a2,0x10a2e
   1085e:    4709                li      a4,2
   10860:    5ced8fe3            beq     s11,a4,0x1163e
   10864:    21b74a63            blt     a4,s11,0x10a78
   10868:    4705                li      a4,1
   1086a:    78ed8f63            beq     s11,a4,0x11008
   1086e:    00091363            bnez    s2,0x10874
   10872:    4905                li      s2,1
   10874:    76fd                lui     a3,0xfffff
   10876:    0107f713            andi    a4,a5,16
   1087a:    ae868693            addi    a3,a3,-1304 # 0xffffffffffffeae8
   1087e:    2701                sext.w  a4,a4
   10880:    96a2                add     a3,a3,s0
   10882:    e298                sd      a4,0(a3)
   10884:    0017f713            andi    a4,a5,1
   10888:    64070f63            beqz    a4,0x10ee6
   1088c:    6298                ld      a4,0(a3)
   1088e:    58071b63            bnez    a4,0x10e24
   10892:    76fd                lui     a3,0xfffff
   10894:    ad868693            addi    a3,a3,-1320 # 0xffffffffffffead8
   10898:    008c8713            addi    a4,s9,8
   1089c:    96a2                add     a3,a3,s0
   1089e:    e298                sd      a4,0(a3)
   108a0:    0807f793            andi    a5,a5,128
   108a4:    000cb803            ld      a6,0(s9)
   108a8:    58078963            beqz    a5,0x10e3a
   108ac:    77fd                lui     a5,0xfffff
   108ae:    ae078793            addi    a5,a5,-1312 # 0xffffffffffffeae0
   108b2:    97a2                add     a5,a5,s0
   108b4:    0107b023            sd      a6,0(a5)
   108b8:    02080063            beqz    a6,0x108d8
   108bc:    08000513            li      a0,128
   108c0:    48a020ef            jal     ra,0x12d4a
   108c4:    777d                lui     a4,0xfffff
   108c6:    ae070713            addi    a4,a4,-1312 # 0xffffffffffffeae0
   108ca:    9722                add     a4,a4,s0
   108cc:    87aa                mv      a5,a0
   108ce:    00073803            ld      a6,0(a4)
   108d2:    2a051c63            bnez    a0,0x10b8a
   108d6:    5c7d                li      s8,-1
   108d8:    00098a63            beqz    s3,0x108ec
   108dc:    57fd                li      a5,-1
   108de:    e2fc03e3            beq     s8,a5,0x10704
   108e2:    0009b503            ld      a0,0(s3)
   108e6:    c119                beqz    a0,0x108ec
   108e8:    46c020ef            jal     ra,0x12d54
   108ec:    737d                lui     t1,0xfffff
   108ee:    a9030313            addi    t1,t1,-1392 # 0xffffffffffffea90
   108f2:    00640133            add     sp,s0,t1
   108f6:    6305                lui     t1,0x1
   108f8:    911a                add     sp,sp,t1
   108fa:    56813083            ld      ra,1384(sp)
   108fe:    8562                mv      a0,s8
   10900:    56013403            ld      s0,1376(sp)
   10904:    55813483            ld      s1,1368(sp)
   10908:    55013903            ld      s2,1360(sp)
   1090c:    54813983            ld      s3,1352(sp)
   10910:    54013a03            ld      s4,1344(sp)
   10914:    53813a83            ld      s5,1336(sp)
   10918:    53013b03            ld      s6,1328(sp)
   1091c:    52813b83            ld      s7,1320(sp)
   10920:    52013c03            ld      s8,1312(sp)
   10924:    51813c83            ld      s9,1304(sp)
   10928:    51013d03            ld      s10,1296(sp)
   1092c:    50813d83            ld      s11,1288(sp)
   10930:    57010113            addi    sp,sp,1392
   10934:    8082                ret

   10936:    0017e793            ori     a5,a5,1
   1093a:    4d89                li      s11,2
   1093c:    bde1                j       0x10814
   1093e:    777d                lui     a4,0xfffff
   10940:    ae070713            addi    a4,a4,-1312 # 0xffffffffffffeae0
   10944:    9722                add     a4,a4,s0
   10946:    e314                sd      a3,0(a4)
   10948:    777d                lui     a4,0xfffff
   1094a:    ae870713            addi    a4,a4,-1304 # 0xffffffffffffeae8
   1094e:    9722                add     a4,a4,s0
   10950:    e31c                sd      a5,0(a4)
   10952:    77fd                lui     a5,0xfffff
   10954:    af878793            addi    a5,a5,-1288 # 0xffffffffffffeaf8
   10958:    97a2                add     a5,a5,s0
   1095a:    638c                ld      a1,0(a5)
   1095c:    b90b8513            addi    a0,s7,-1136 # 0xffffffffffffeb90
   10960:    f9040793            addi    a5,s0,-112
   10964:    953e                add     a0,a0,a5
   10966:    016030ef            jal     ra,0x1397c
   1096a:    77fd                lui     a5,0xfffff
   1096c:    af878793            addi    a5,a5,-1288 # 0xffffffffffffeaf8
   10970:    97a2                add     a5,a5,s0
   10972:    e388                sd      a0,0(a5)
   10974:    77fd                lui     a5,0xfffff
   10976:    ae878793            addi    a5,a5,-1304 # 0xffffffffffffeae8
   1097a:    97a2                add     a5,a5,s0
   1097c:    639c                ld      a5,0(a5)
   1097e:    777d                lui     a4,0xfffff
   10980:    ae070713            addi    a4,a4,-1312 # 0xffffffffffffeae0
   10984:    9722                add     a4,a4,s0
   10986:    0407e793            ori     a5,a5,64
   1098a:    4d85                li      s11,1
   1098c:    6314                ld      a3,0(a4)
   1098e:    b559                j       0x10814
   10990:    0017e793            ori     a5,a5,1
   10994:    0407e793            ori     a5,a5,64
   10998:    4d81                li      s11,0
   1099a:    bdad                j       0x10814
   1099c:    2207e793            ori     a5,a5,544
   109a0:    bdb1                j       0x107fc
   109a2:    0107f713            andi    a4,a5,16
   109a6:    c40713e3            bnez    a4,0x105ec
   109aa:    0087f613            andi    a2,a5,8
   109ae:    008c8713            addi    a4,s9,8
   109b2:    000cb683            ld      a3,0(s9)
   109b6:    c609                beqz    a2,0x109c0
   109b8:    01468023            sb      s4,0(a3)
   109bc:    8cba                mv      s9,a4
   109be:    b13d                j       0x105ec
   109c0:    0047f613            andi    a2,a5,4
   109c4:    c601                beqz    a2,0x109cc
   109c6:    01469023            sh      s4,0(a3)
   109ca:    bfcd                j       0x109bc
   109cc:    0017f613            andi    a2,a5,1
   109d0:    c601                beqz    a2,0x109d8
   109d2:    0146b023            sd      s4,0(a3)
   109d6:    b7dd                j       0x109bc
   109d8:    8b89                andi    a5,a5,2
   109da:    ffe5                bnez    a5,0x109d2
   109dc:    0146a023            sw      s4,0(a3)
   109e0:    bff1                j       0x109bc
   109e2:    767d                lui     a2,0xfffff
   109e4:    00015737            lui     a4,0x15
   109e8:    af060613            addi    a2,a2,-1296 # 0xffffffffffffeaf0
   109ec:    d8c70713            addi    a4,a4,-628 # 0x14d8c
   109f0:    9622                add     a2,a2,s0
   109f2:    e218                sd      a4,0(a2)
   109f4:    4b01                li      s6,0
   109f6:    b3e5                j       0x107de
   109f8:    777d                lui     a4,0xfffff
   109fa:    ae070713            addi    a4,a4,-1312 # 0xffffffffffffeae0
   109fe:    9722                add     a4,a4,s0
   10a00:    e314                sd      a3,0(a4)
   10a02:    777d                lui     a4,0xfffff
   10a04:    ae870713            addi    a4,a4,-1304 # 0xffffffffffffeae8
   10a08:    9722                add     a4,a4,s0
   10a0a:    85a6                mv      a1,s1
   10a0c:    8556                mv      a0,s5
   10a0e:    e31c                sd      a5,0(a4)
   10a10:    5f9020ef            jal     ra,0x13808
   10a14:    77fd                lui     a5,0xfffff
   10a16:    777d                lui     a4,0xfffff
   10a18:    ae878793            addi    a5,a5,-1304 # 0xffffffffffffeae8
   10a1c:    ae070713            addi    a4,a4,-1312 # 0xffffffffffffeae0
   10a20:    97a2                add     a5,a5,s0
   10a22:    9722                add     a4,a4,s0
   10a24:    639c                ld      a5,0(a5)
   10a26:    6314                ld      a3,0(a4)
   10a28:    de0509e3            beqz    a0,0x1081a
   10a2c:    b1d1                j       0x106f0
   10a2e:    4490                lw      a2,8(s1)
   10a30:    2a05                addiw   s4,s4,1
   10a32:    fff6059b            addiw   a1,a2,-1
   10a36:    c48c                sw      a1,8(s1)
   10a38:    00b05563            blez    a1,0x10a42
   10a3c:    0705                addi    a4,a4,1
   10a3e:    e098                sd      a4,0(s1)
   10a40:    b3c5                j       0x10820
   10a42:    777d                lui     a4,0xfffff
   10a44:    ae070713            addi    a4,a4,-1312 # 0xffffffffffffeae0
   10a48:    9722                add     a4,a4,s0
   10a4a:    e314                sd      a3,0(a4)
   10a4c:    777d                lui     a4,0xfffff
   10a4e:    ae870713            addi    a4,a4,-1304 # 0xffffffffffffeae8
   10a52:    9722                add     a4,a4,s0
   10a54:    85a6                mv      a1,s1
   10a56:    8556                mv      a0,s5
   10a58:    e31c                sd      a5,0(a4)
   10a5a:    5af020ef            jal     ra,0x13808
   10a5e:    77fd                lui     a5,0xfffff
   10a60:    777d                lui     a4,0xfffff
   10a62:    ae878793            addi    a5,a5,-1304 # 0xffffffffffffeae8
   10a66:    ae070713            addi    a4,a4,-1312 # 0xffffffffffffeae0
   10a6a:    97a2                add     a5,a5,s0
   10a6c:    9722                add     a4,a4,s0
   10a6e:    639c                ld      a5,0(a5)
   10a70:    6314                ld      a3,0(a4)
   10a72:    da0507e3            beqz    a0,0x10820
   10a76:    b9ad                j       0x106f0
   10a78:    470d                li      a4,3
   10a7a:    00ed9463            bne     s11,a4,0x10a82
   10a7e:    1aa0106f            j       0x11c28
   10a82:    4711                li      a4,4
   10a84:    deed95e3            bne     s11,a4,0x1086e
   10a88:    777d                lui     a4,0xfffff
   10a8a:    ae070713            addi    a4,a4,-1312 # 0xffffffffffffeae0
   10a8e:    9722                add     a4,a4,s0
   10a90:    e314                sd      a3,0(a4)
   10a92:    777d                lui     a4,0xfffff
   10a94:    ae870713            addi    a4,a4,-1304 # 0xffffffffffffeae8
   10a98:    9722                add     a4,a4,s0
   10a9a:    8556                mv      a0,s5
   10a9c:    e31c                sd      a5,0(a4)
   10a9e:    1f8020ef            jal     ra,0x12c96
   10aa2:    611c                ld      a5,0(a0)
   10aa4:    777d                lui     a4,0xfffff
   10aa6:    ad070713            addi    a4,a4,-1328 # 0xffffffffffffead0
   10aaa:    9722                add     a4,a4,s0
   10aac:    e31c                sd      a5,0(a4)
   10aae:    76fd                lui     a3,0xfffff
   10ab0:    77fd                lui     a5,0xfffff
   10ab2:    6605                lui     a2,0x1
   10ab4:    ae878793            addi    a5,a5,-1304 # 0xffffffffffffeae8
   10ab8:    ae068693            addi    a3,a3,-1312 # 0xffffffffffffeae0
   10abc:    97a2                add     a5,a5,s0
   10abe:    96a2                add     a3,a3,s0
   10ac0:    fff90713            addi    a4,s2,-1
   10ac4:    36c60593            addi    a1,a2,876 # 0x136c
   10ac8:    4301                li      t1,0
   10aca:    639c                ld      a5,0(a5)
   10acc:    6294                ld      a3,0(a3)
   10ace:    00e5f963            bgeu    a1,a4,0x10ae0
   10ad2:    737d                lui     t1,0xfffff
   10ad4:    c933031b            addiw   t1,t1,-877
   10ad8:    0123033b            addw    t1,t1,s2
   10adc:    36d60913            addi    s2,a2,877
   10ae0:    7807ed93            ori     s11,a5,1920
   10ae4:    77fd                lui     a5,0xfffff
   10ae6:    ad878793            addi    a5,a5,-1320 # 0xffffffffffffead8
   10aea:    97a2                add     a5,a5,s0
   10aec:    0007b023            sd      zero,0(a5)
   10af0:    77fd                lui     a5,0xfffff
   10af2:    ae078793            addi    a5,a5,-1312 # 0xffffffffffffeae0
   10af6:    97a2                add     a5,a5,s0
   10af8:    0007b023            sd      zero,0(a5)
   10afc:    77fd                lui     a5,0xfffff
   10afe:    ae878793            addi    a5,a5,-1304 # 0xffffffffffffeae8
   10b02:    97a2                add     a5,a5,s0
   10b04:    0007b023            sd      zero,0(a5)
   10b08:    c90b8713            addi    a4,s7,-880
   10b0c:    f9040793            addi    a5,s0,-112
   10b10:    4881                li      a7,0
   10b12:    4801                li      a6,0
   10b14:    973e                add     a4,a4,a5
   10b16:    04e00e13            li      t3,78
   10b1a:    4e85                li      t4,1
   10b1c:    4f09                li      t5,2
   10b1e:    70000f93            li      t6,1792
   10b22:    40000393            li      t2,1024
   10b26:    06600293            li      t0,102
   10b2a:    608c                ld      a1,0(s1)
   10b2c:    0005c603            lbu     a2,0(a1)
   10b30:    01c61463            bne     a2,t3,0x10b38
   10b34:    5260106f            j       0x1205a
   10b38:    00ce7463            bgeu    t3,a2,0x10b40
   10b3c:    4320106f            j       0x11f6e
   10b40:    03900513            li      a0,57
   10b44:    00c57463            bgeu    a0,a2,0x10b4c
   10b48:    3ba0106f            j       0x11f02
   10b4c:    03100513            li      a0,49
   10b50:    00a66463            bltu    a2,a0,0x10b58
   10b54:    4f40106f            j       0x12048
   10b58:    02d00513            li      a0,45
   10b5c:    00a60e63            beq     a2,a0,0x10b78
   10b60:    03000513            li      a0,48
   10b64:    00a61463            bne     a2,a0,0x10b6c
   10b68:    4ae0106f            j       0x12016
   10b6c:    02b00513            li      a0,43
   10b70:    00a60463            beq     a2,a0,0x10b78
   10b74:    3a20106f            j       0x11f16
   10b78:    080df513            andi    a0,s11,128
   10b7c:    e119                bnez    a0,0x10b82
   10b7e:    50e0106f            j       0x1208c
   10b82:    f7fdfd93            andi    s11,s11,-129
   10b86:    4cc0106f            j       0x12052
   10b8a:    0089dd83            lhu     s11,8(s3)
   10b8e:    00a9dc83            lhu     s9,10(s3)
   10b92:    00a83023            sd      a0,0(a6)
   10b96:    000d869b            sext.w  a3,s11
   10b9a:    04dce963            bltu    s9,a3,0x10bec
   10b9e:    777d                lui     a4,0xfffff
   10ba0:    ad070713            addi    a4,a4,-1328 # 0xffffffffffffead0
   10ba4:    77fd                lui     a5,0xfffff
   10ba6:    9722                add     a4,a4,s0
   10ba8:    ae078793            addi    a5,a5,-1312 # 0xffffffffffffeae0
   10bac:    e308                sd      a0,0(a4)
   10bae:    97a2                add     a5,a5,s0
   10bb0:    6741                lui     a4,0x10
   10bb2:    0107b023            sd      a6,0(a5)
   10bb6:    1759                addi    a4,a4,-10
   10bb8:    d0d76fe3            bltu    a4,a3,0x108d6
   10bbc:    0009b503            ld      a0,0(s3)
   10bc0:    2da1                addiw   s11,s11,8
   10bc2:    003d9593            slli    a1,s11,0x3
   10bc6:    059020ef            jal     ra,0x1341e
   10bca:    d00506e3            beqz    a0,0x108d6
   10bce:    77fd                lui     a5,0xfffff
   10bd0:    777d                lui     a4,0xfffff
   10bd2:    ad078793            addi    a5,a5,-1328 # 0xffffffffffffead0
   10bd6:    ae070713            addi    a4,a4,-1312 # 0xffffffffffffeae0
   10bda:    97a2                add     a5,a5,s0
   10bdc:    9722                add     a4,a4,s0
   10bde:    639c                ld      a5,0(a5)
   10be0:    00073803            ld      a6,0(a4)
   10be4:    00a9b023            sd      a0,0(s3)
   10be8:    01b99423            sh      s11,8(s3)
   10bec:    0009b703            ld      a4,0(s3)
   10bf0:    001c869b            addiw   a3,s9,1
   10bf4:    0c8e                slli    s9,s9,0x3
   10bf6:    9cba                add     s9,s9,a4
   10bf8:    010cb023            sd      a6,0(s9)
   10bfc:    8dc2                mv      s11,a6
   10bfe:    00d99523            sh      a3,10(s3)
   10c02:    883e                mv      a6,a5
   10c04:    02000c93            li      s9,32
   10c08:    767d                lui     a2,0xfffff
   10c0a:    f9040693            addi    a3,s0,-112
   10c0e:    ae060613            addi    a2,a2,-1312 # 0xffffffffffffeae0
   10c12:    96de                add     a3,a3,s7
   10c14:    9622                add     a2,a2,s0
   10c16:    e214                sd      a3,0(a2)
   10c18:    767d                lui     a2,0xfffff
   10c1a:    b8860613            addi    a2,a2,-1144 # 0xffffffffffffeb88
   10c1e:    f9040693            addi    a3,s0,-112
   10c22:    96b2                add     a3,a3,a2
   10c24:    767d                lui     a2,0xfffff
   10c26:    ac860613            addi    a2,a2,-1336 # 0xffffffffffffeac8
   10c2a:    9622                add     a2,a2,s0
   10c2c:    e214                sd      a3,0(a2)
   10c2e:    f9040613            addi    a2,s0,-112
   10c32:    c90b8693            addi    a3,s7,-880
   10c36:    96b2                add     a3,a3,a2
   10c38:    767d                lui     a2,0xfffff
   10c3a:    ac060613            addi    a2,a2,-1344 # 0xffffffffffffeac0
   10c3e:    9622                add     a2,a2,s0
   10c40:    4701                li      a4,0
   10c42:    e214                sd      a3,0(a2)
   10c44:    76fd                lui     a3,0xfffff
   10c46:    ad068693            addi    a3,a3,-1328 # 0xffffffffffffead0
   10c4a:    96a2                add     a3,a3,s0
   10c4c:    e298                sd      a4,0(a3)
   10c4e:    777d                lui     a4,0xfffff
   10c50:    ab070713            addi    a4,a4,-1360 # 0xffffffffffffeab0
   10c54:    9722                add     a4,a4,s0
   10c56:    e31c                sd      a5,0(a4)
   10c58:    77fd                lui     a5,0xfffff
   10c5a:    ab878793            addi    a5,a5,-1352 # 0xffffffffffffeab8
   10c5e:    97a2                add     a5,a5,s0
   10c60:    0107b023            sd      a6,0(a5)
   10c64:    0ac020ef            jal     ra,0x12d10
   10c68:    77fd                lui     a5,0xfffff
   10c6a:    ad078793            addi    a5,a5,-1328 # 0xffffffffffffead0
   10c6e:    97a2                add     a5,a5,s0
   10c70:    6398                ld      a4,0(a5)
   10c72:    a6e50fe3            beq     a0,a4,0x106f0
   10c76:    767d                lui     a2,0xfffff
   10c78:    ad060613            addi    a2,a2,-1328 # 0xffffffffffffead0
   10c7c:    0017079b            addiw   a5,a4,1
   10c80:    9622                add     a2,a2,s0
   10c82:    c21c                sw      a5,0(a2)
   10c84:    77fd                lui     a5,0xfffff
   10c86:    6094                ld      a3,0(s1)
   10c88:    ae078793            addi    a5,a5,-1312 # 0xffffffffffffeae0
   10c8c:    97a2                add     a5,a5,s0
   10c8e:    639c                ld      a5,0(a5)
   10c90:    00062883            lw      a7,0(a2)
   10c94:    0006c603            lbu     a2,0(a3)
   10c98:    973e                add     a4,a4,a5
   10c9a:    77fd                lui     a5,0xfffff
   10c9c:    c8c70823            sb      a2,-880(a4)
   10ca0:    ab878793            addi    a5,a5,-1352 # 0xffffffffffffeab8
   10ca4:    4498                lw      a4,8(s1)
   10ca6:    97a2                add     a5,a5,s0
   10ca8:    0007b803            ld      a6,0(a5)
   10cac:    77fd                lui     a5,0xfffff
   10cae:    377d                addiw   a4,a4,-1
   10cb0:    0685                addi    a3,a3,1
   10cb2:    ab078793            addi    a5,a5,-1360 # 0xffffffffffffeab0
   10cb6:    c498                sw      a4,8(s1)
   10cb8:    97a2                add     a5,a5,s0
   10cba:    e094                sd      a3,0(s1)
   10cbc:    470d                li      a4,3
   10cbe:    639c                ld      a5,0(a5)
   10cc0:    00ed1c63            bne     s10,a4,0x10cd8
   10cc4:    777d                lui     a4,0xfffff
   10cc6:    ae070713            addi    a4,a4,-1312 # 0xffffffffffffeae0
   10cca:    9722                add     a4,a4,s0
   10ccc:    6318                ld      a4,0(a4)
   10cce:    4691                li      a3,4
   10cd0:    b8872703            lw      a4,-1144(a4)
   10cd4:    04d70d63            beq     a4,a3,0x10d2e
   10cd8:    777d                lui     a4,0xfffff
   10cda:    a9870713            addi    a4,a4,-1384 # 0xffffffffffffea98
   10cde:    9722                add     a4,a4,s0
   10ce0:    e31c                sd      a5,0(a4)
   10ce2:    77fd                lui     a5,0xfffff
   10ce4:    ab078793            addi    a5,a5,-1360 # 0xffffffffffffeab0
   10ce8:    97a2                add     a5,a5,s0
   10cea:    0107b023            sd      a6,0(a5)
   10cee:    77fd                lui     a5,0xfffff
   10cf0:    ab878793            addi    a5,a5,-1352 # 0xffffffffffffeab8
   10cf4:    97a2                add     a5,a5,s0
   10cf6:    0117b023            sd      a7,0(a5)
   10cfa:    77fd                lui     a5,0xfffff
   10cfc:    ac878793            addi    a5,a5,-1336 # 0xffffffffffffeac8
   10d00:    97a2                add     a5,a5,s0
   10d02:    6388                ld      a0,0(a5)
   10d04:    4621                li      a2,8
   10d06:    4581                li      a1,0
   10d08:    eaaff0ef            jal     ra,0x103b2
   10d0c:    777d                lui     a4,0xfffff
   10d0e:    ab070713            addi    a4,a4,-1360 # 0xffffffffffffeab0
   10d12:    9722                add     a4,a4,s0
   10d14:    77fd                lui     a5,0xfffff
   10d16:    00073803            ld      a6,0(a4)
   10d1a:    777d                lui     a4,0xfffff
   10d1c:    a9878793            addi    a5,a5,-1384 # 0xffffffffffffea98
   10d20:    ab870713            addi    a4,a4,-1352 # 0xffffffffffffeab8
   10d24:    97a2                add     a5,a5,s0
   10d26:    9722                add     a4,a4,s0
   10d28:    639c                ld      a5,0(a5)
   10d2a:    00073883            ld      a7,0(a4)
   10d2e:    777d                lui     a4,0xfffff
   10d30:    a9870713            addi    a4,a4,-1384 # 0xffffffffffffea98
   10d34:    9722                add     a4,a4,s0
   10d36:    e31c                sd      a5,0(a4)
   10d38:    77fd                lui     a5,0xfffff
   10d3a:    ac878793            addi    a5,a5,-1336 # 0xffffffffffffeac8
   10d3e:    97a2                add     a5,a5,s0
   10d40:    6398                ld      a4,0(a5)
   10d42:    77fd                lui     a5,0xfffff
   10d44:    ab078793            addi    a5,a5,-1360 # 0xffffffffffffeab0
   10d48:    97a2                add     a5,a5,s0
   10d4a:    0117b023            sd      a7,0(a5)
   10d4e:    77fd                lui     a5,0xfffff
   10d50:    ac078793            addi    a5,a5,-1344 # 0xffffffffffffeac0
   10d54:    97a2                add     a5,a5,s0
   10d56:    6390                ld      a2,0(a5)
   10d58:    77fd                lui     a5,0xfffff
   10d5a:    ab878793            addi    a5,a5,-1352 # 0xffffffffffffeab8
   10d5e:    97a2                add     a5,a5,s0
   10d60:    86c6                mv      a3,a7
   10d62:    85c2                mv      a1,a6
   10d64:    8556                mv      a0,s5
   10d66:    0107b023            sd      a6,0(a5)
   10d6a:    4da020ef            jal     ra,0x13244
   10d6e:    577d                li      a4,-1
   10d70:    8d2a                mv      s10,a0
   10d72:    96e50fe3            beq     a0,a4,0x106f0
   10d76:    77fd                lui     a5,0xfffff
   10d78:    ab878793            addi    a5,a5,-1352 # 0xffffffffffffeab8
   10d7c:    97a2                add     a5,a5,s0
   10d7e:    0007b803            ld      a6,0(a5)
   10d82:    77fd                lui     a5,0xfffff
   10d84:    ab078793            addi    a5,a5,-1360 # 0xffffffffffffeab0
   10d88:    97a2                add     a5,a5,s0
   10d8a:    0007b883            ld      a7,0(a5)
   10d8e:    77fd                lui     a5,0xfffff
   10d90:    a9878793            addi    a5,a5,-1384 # 0xffffffffffffea98
   10d94:    97a2                add     a5,a5,s0
   10d96:    639c                ld      a5,0(a5)
   10d98:    e54d                bnez    a0,0x10e42
   10d9a:    777d                lui     a4,0xfffff
   10d9c:    ae870713            addi    a4,a4,-1304 # 0xffffffffffffeae8
   10da0:    9722                add     a4,a4,s0
   10da2:    6318                ld      a4,0(a4)
   10da4:    e319                bnez    a4,0x10daa
   10da6:    00082023            sw      zero,0(a6)
   10daa:    777d                lui     a4,0xfffff
   10dac:    ad070713            addi    a4,a4,-1328 # 0xffffffffffffead0
   10db0:    9722                add     a4,a4,s0
   10db2:    4318                lw      a4,0(a4)
   10db4:    01470a3b            addw    s4,a4,s4
   10db8:    470d                li      a4,3
   10dba:    00ed1c63            bne     s10,a4,0x10dd2
   10dbe:    777d                lui     a4,0xfffff
   10dc0:    ae070713            addi    a4,a4,-1312 # 0xffffffffffffeae0
   10dc4:    9722                add     a4,a4,s0
   10dc6:    6318                ld      a4,0(a4)
   10dc8:    4691                li      a3,4
   10dca:    b8872703            lw      a4,-1144(a4)
   10dce:    00d70363            beq     a4,a3,0x10dd4
   10dd2:    197d                addi    s2,s2,-1
   10dd4:    777d                lui     a4,0xfffff
   10dd6:    ae870713            addi    a4,a4,-1304 # 0xffffffffffffeae8
   10dda:    9722                add     a4,a4,s0
   10ddc:    6318                ld      a4,0(a4)
   10dde:    e329                bnez    a4,0x10e20
   10de0:    020d8f63            beqz    s11,0x10e1e
   10de4:    40f80733            sub     a4,a6,a5
   10de8:    40275693            srai    a3,a4,0x2
   10dec:    0396e963            bltu    a3,s9,0x10e1e
   10df0:    76fd                lui     a3,0xfffff
   10df2:    ad068693            addi    a3,a3,-1328 # 0xffffffffffffead0
   10df6:    96a2                add     a3,a3,s0
   10df8:    853e                mv      a0,a5
   10dfa:    003c9593            slli    a1,s9,0x3
   10dfe:    e298                sd      a4,0(a3)
   10e00:    61e020ef            jal     ra,0x1341e
   10e04:    87aa                mv      a5,a0
   10e06:    ac0508e3            beqz    a0,0x108d6
   10e0a:    777d                lui     a4,0xfffff
   10e0c:    ad070713            addi    a4,a4,-1328 # 0xffffffffffffead0
   10e10:    9722                add     a4,a4,s0
   10e12:    6318                ld      a4,0(a4)
   10e14:    00adb023            sd      a0,0(s11)
   10e18:    0c86                slli    s9,s9,0x1
   10e1a:    00e50833            add     a6,a0,a4
   10e1e:    0811                addi    a6,a6,4
   10e20:    4881                li      a7,0
   10e22:    a01d                j       0x10e48
   10e24:    77fd                lui     a5,0xfffff
   10e26:    ad878793            addi    a5,a5,-1320 # 0xffffffffffffead8
   10e2a:    97a2                add     a5,a5,s0
   10e2c:    0197b023            sd      s9,0(a5)
   10e30:    4d81                li      s11,0
   10e32:    4c81                li      s9,0
   10e34:    4781                li      a5,0
   10e36:    4801                li      a6,0
   10e38:    bbc1                j       0x10c08
   10e3a:    4c81                li      s9,0
   10e3c:    4781                li      a5,0
   10e3e:    4d81                li      s11,0
   10e40:    b3e1                j       0x10c08
   10e42:    5779                li      a4,-2
   10e44:    f6e513e3            bne     a0,a4,0x10daa
   10e48:    4498                lw      a4,8(s1)
   10e4a:    06e04c63            bgtz    a4,0x10ec2
   10e4e:    777d                lui     a4,0xfffff
   10e50:    ab070713            addi    a4,a4,-1360 # 0xffffffffffffeab0
   10e54:    9722                add     a4,a4,s0
   10e56:    e31c                sd      a5,0(a4)
   10e58:    77fd                lui     a5,0xfffff
   10e5a:    ab878793            addi    a5,a5,-1352 # 0xffffffffffffeab8
   10e5e:    97a2                add     a5,a5,s0
   10e60:    0107b023            sd      a6,0(a5)
   10e64:    77fd                lui     a5,0xfffff
   10e66:    ad078793            addi    a5,a5,-1328 # 0xffffffffffffead0
   10e6a:    97a2                add     a5,a5,s0
   10e6c:    85a6                mv      a1,s1
   10e6e:    8556                mv      a0,s5
   10e70:    0117b023            sd      a7,0(a5)
   10e74:    195020ef            jal     ra,0x13808
   10e78:    77fd                lui     a5,0xfffff
   10e7a:    ad078793            addi    a5,a5,-1328 # 0xffffffffffffead0
   10e7e:    97a2                add     a5,a5,s0
   10e80:    0007b883            ld      a7,0(a5)
   10e84:    77fd                lui     a5,0xfffff
   10e86:    ab878793            addi    a5,a5,-1352 # 0xffffffffffffeab8
   10e8a:    97a2                add     a5,a5,s0
   10e8c:    0007b803            ld      a6,0(a5)
   10e90:    77fd                lui     a5,0xfffff
   10e92:    ab078793            addi    a5,a5,-1360 # 0xffffffffffffeab0
   10e96:    97a2                add     a5,a5,s0
   10e98:    639c                ld      a5,0(a5)
   10e9a:    c505                beqz    a0,0x10ec2
   10e9c:    84089ae3            bnez    a7,0x106f0
   10ea0:    020d9563            bnez    s11,0x10eca
   10ea4:    77fd                lui     a5,0xfffff
   10ea6:    ae878793            addi    a5,a5,-1304 # 0xffffffffffffeae8
   10eaa:    97a2                add     a5,a5,s0
   10eac:    639c                ld      a5,0(a5)
   10eae:    e391                bnez    a5,0x10eb2
   10eb0:    2c05                addiw   s8,s8,1
   10eb2:    77fd                lui     a5,0xfffff
   10eb4:    ad878793            addi    a5,a5,-1320 # 0xffffffffffffead8
   10eb8:    97a2                add     a5,a5,s0
   10eba:    0007bc83            ld      s9,0(a5)
   10ebe:    f2eff06f            j       0x105ec
   10ec2:    fc090fe3            beqz    s2,0x10ea0
   10ec6:    8746                mv      a4,a7
   10ec8:    bbb5                j       0x10c44
   10eca:    40f805b3            sub     a1,a6,a5
   10ece:    4025d793            srai    a5,a1,0x2
   10ed2:    fd97f9e3            bgeu    a5,s9,0x10ea4
   10ed6:    000db503            ld      a0,0(s11)
   10eda:    544020ef            jal     ra,0x1341e
   10ede:    d179                beqz    a0,0x10ea4
   10ee0:    00adb023            sd      a0,0(s11)
   10ee4:    b7c1                j       0x10ea4
   10ee6:    777d                lui     a4,0xfffff
   10ee8:    ae870713            addi    a4,a4,-1304 # 0xffffffffffffeae8
   10eec:    9722                add     a4,a4,s0
   10eee:    6318                ld      a4,0(a4)
   10ef0:    c321                beqz    a4,0x10f30
   10ef2:    4d81                li      s11,0
   10ef4:    449c                lw      a5,8(s1)
   10ef6:    0009069b            sext.w  a3,s2
   10efa:    6098                ld      a4,0(s1)
   10efc:    02d7d263            bge     a5,a3,0x10f20
   10f00:    9dbe                add     s11,s11,a5
   10f02:    40f90933            sub     s2,s2,a5
   10f06:    97ba                add     a5,a5,a4
   10f08:    e09c                sd      a5,0(s1)
   10f0a:    85a6                mv      a1,s1
   10f0c:    8556                mv      a0,s5
   10f0e:    0fb020ef            jal     ra,0x13808
   10f12:    d16d                beqz    a0,0x10ef4
   10f14:    fc0d8e63            beqz    s11,0x106f0
   10f18:    01ba0a3b            addw    s4,s4,s11
   10f1c:    ed0ff06f            j       0x105ec
   10f20:    412787bb            subw    a5,a5,s2
   10f24:    9dca                add     s11,s11,s2
   10f26:    993a                add     s2,s2,a4
   10f28:    c49c                sw      a5,8(s1)
   10f2a:    0124b023            sd      s2,0(s1)
   10f2e:    b7ed                j       0x10f18
   10f30:    76fd                lui     a3,0xfffff
   10f32:    ae868693            addi    a3,a3,-1304 # 0xffffffffffffeae8
   10f36:    008c8713            addi    a4,s9,8
   10f3a:    96a2                add     a3,a3,s0
   10f3c:    e298                sd      a4,0(a3)
   10f3e:    0807f793            andi    a5,a5,128
   10f42:    000cbc83            ld      s9,0(s9)
   10f46:    cfdd                beqz    a5,0x11004
   10f48:    f80c8c63            beqz    s9,0x106e0
   10f4c:    854a                mv      a0,s2
   10f4e:    5fd010ef            jal     ra,0x12d4a
   10f52:    86aa                mv      a3,a0
   10f54:    fa050563            beqz    a0,0x106fe
   10f58:    0089d703            lhu     a4,8(s3)
   10f5c:    00a9dd83            lhu     s11,10(s3)
   10f60:    00acb023            sd      a0,0(s9)
   10f64:    0007059b            sext.w  a1,a4
   10f68:    04bde763            bltu    s11,a1,0x10fb6
   10f6c:    77fd                lui     a5,0xfffff
   10f6e:    ad878793            addi    a5,a5,-1320 # 0xffffffffffffead8
   10f72:    97a2                add     a5,a5,s0
   10f74:    6641                lui     a2,0x10
   10f76:    e388                sd      a0,0(a5)
   10f78:    1659                addi    a2,a2,-10
   10f7a:    f8b66563            bltu    a2,a1,0x10704
   10f7e:    77fd                lui     a5,0xfffff
   10f80:    0009b503            ld      a0,0(s3)
   10f84:    2721                addiw   a4,a4,8
   10f86:    ae078793            addi    a5,a5,-1312 # 0xffffffffffffeae0
   10f8a:    97a2                add     a5,a5,s0
   10f8c:    00371593            slli    a1,a4,0x3
   10f90:    e398                sd      a4,0(a5)
   10f92:    48c020ef            jal     ra,0x1341e
   10f96:    f6050763            beqz    a0,0x10704
   10f9a:    77fd                lui     a5,0xfffff
   10f9c:    ae078793            addi    a5,a5,-1312 # 0xffffffffffffeae0
   10fa0:    97a2                add     a5,a5,s0
   10fa2:    6398                ld      a4,0(a5)
   10fa4:    77fd                lui     a5,0xfffff
   10fa6:    ad878793            addi    a5,a5,-1320 # 0xffffffffffffead8
   10faa:    97a2                add     a5,a5,s0
   10fac:    6394                ld      a3,0(a5)
   10fae:    00a9b023            sd      a0,0(s3)
   10fb2:    00e99423            sh      a4,8(s3)
   10fb6:    0009b703            ld      a4,0(s3)
   10fba:    003d9793            slli    a5,s11,0x3
   10fbe:    001d861b            addiw   a2,s11,1
   10fc2:    97ba                add     a5,a5,a4
   10fc4:    0197b023            sd      s9,0(a5)
   10fc8:    8de6                mv      s11,s9
   10fca:    00c99523            sh      a2,10(s3)
   10fce:    8cb6                mv      s9,a3
   10fd0:    85e6                mv      a1,s9
   10fd2:    8726                mv      a4,s1
   10fd4:    86ca                mv      a3,s2
   10fd6:    4605                li      a2,1
   10fd8:    8556                mv      a0,s5
   10fda:    7f4010ef            jal     ra,0x127ce
   10fde:    8caa                mv      s9,a0
   10fe0:    f0050863            beqz    a0,0x106f0
   10fe4:    000d8c63            beqz    s11,0x10ffc
   10fe8:    01257a63            bgeu    a0,s2,0x10ffc
   10fec:    85aa                mv      a1,a0
   10fee:    000db503            ld      a0,0(s11)
   10ff2:    42c020ef            jal     ra,0x1341e
   10ff6:    c119                beqz    a0,0x10ffc
   10ff8:    00adb023            sd      a0,0(s11)
   10ffc:    014c8a3b            addw    s4,s9,s4
   11000:    2c05                addiw   s8,s8,1
   11002:    a52d                j       0x1162c
   11004:    4d81                li      s11,0
   11006:    b7e9                j       0x10fd0
   11008:    00091363            bnez    s2,0x1100e
   1100c:    597d                li      s2,-1
   1100e:    76fd                lui     a3,0xfffff
   11010:    0107f713            andi    a4,a5,16
   11014:    ad068693            addi    a3,a3,-1328 # 0xffffffffffffead0
   11018:    2701                sext.w  a4,a4
   1101a:    96a2                add     a3,a3,s0
   1101c:    e298                sd      a4,0(a3)
   1101e:    0017f713            andi    a4,a5,1
   11022:    3e070f63            beqz    a4,0x11420
   11026:    6298                ld      a4,0(a3)
   11028:    2a071763            bnez    a4,0x112d6
   1102c:    76fd                lui     a3,0xfffff
   1102e:    ac868693            addi    a3,a3,-1336 # 0xffffffffffffeac8
   11032:    008c8713            addi    a4,s9,8
   11036:    96a2                add     a3,a3,s0
   11038:    e298                sd      a4,0(a3)
   1103a:    0807f793            andi    a5,a5,128
   1103e:    000cbc83            ld      s9,0(s9)
   11042:    2c078363            beqz    a5,0x11308
   11046:    880c89e3            beqz    s9,0x108d8
   1104a:    08000513            li      a0,128
   1104e:    4fd010ef            jal     ra,0x12d4a
   11052:    8daa                mv      s11,a0
   11054:    880501e3            beqz    a0,0x108d6
   11058:    0089d703            lhu     a4,8(s3)
   1105c:    00a9d783            lhu     a5,10(s3)
   11060:    00acb023            sd      a0,0(s9)
   11064:    0007061b            sext.w  a2,a4
   11068:    04c7e763            bltu    a5,a2,0x110b6
   1106c:    76fd                lui     a3,0xfffff
   1106e:    ae068693            addi    a3,a3,-1312 # 0xffffffffffffeae0
   11072:    96a2                add     a3,a3,s0
   11074:    e29c                sd      a5,0(a3)
   11076:    66c1                lui     a3,0x10
   11078:    16d9                addi    a3,a3,-10
   1107a:    84c6eee3            bltu    a3,a2,0x108d6
   1107e:    77fd                lui     a5,0xfffff
   11080:    0009b503            ld      a0,0(s3)
   11084:    2721                addiw   a4,a4,8
   11086:    ae878793            addi    a5,a5,-1304 # 0xffffffffffffeae8
   1108a:    97a2                add     a5,a5,s0
   1108c:    00371593            slli    a1,a4,0x3
   11090:    e398                sd      a4,0(a5)
   11092:    38c020ef            jal     ra,0x1341e
   11096:    840500e3            beqz    a0,0x108d6
   1109a:    77fd                lui     a5,0xfffff
   1109c:    ae878793            addi    a5,a5,-1304 # 0xffffffffffffeae8
   110a0:    97a2                add     a5,a5,s0
   110a2:    6398                ld      a4,0(a5)
   110a4:    77fd                lui     a5,0xfffff
   110a6:    ae078793            addi    a5,a5,-1312 # 0xffffffffffffeae0
   110aa:    97a2                add     a5,a5,s0
   110ac:    639c                ld      a5,0(a5)
   110ae:    00a9b023            sd      a0,0(s3)
   110b2:    00e99423            sh      a4,8(s3)
   110b6:    0009b703            ld      a4,0(s3)
   110ba:    0017869b            addiw   a3,a5,1
   110be:    078e                slli    a5,a5,0x3
   110c0:    97ba                add     a5,a5,a4
   110c2:    0197b023            sd      s9,0(a5)
   110c6:    77fd                lui     a5,0xfffff
   110c8:    ae878793            addi    a5,a5,-1304 # 0xffffffffffffeae8
   110cc:    777d                lui     a4,0xfffff
   110ce:    97a2                add     a5,a5,s0
   110d0:    ae070713            addi    a4,a4,-1312 # 0xffffffffffffeae0
   110d4:    0197b023            sd      s9,0(a5)
   110d8:    9722                add     a4,a4,s0
   110da:    02000793            li      a5,32
   110de:    00d99523            sh      a3,10(s3)
   110e2:    8cee                mv      s9,s11
   110e4:    e31c                sd      a5,0(a4)
   110e6:    f9040693            addi    a3,s0,-112
   110ea:    b80b8713            addi    a4,s7,-1152
   110ee:    9736                add     a4,a4,a3
   110f0:    76fd                lui     a3,0xfffff
   110f2:    ab868693            addi    a3,a3,-1352 # 0xffffffffffffeab8
   110f6:    96a2                add     a3,a3,s0
   110f8:    e298                sd      a4,0(a3)
   110fa:    f9040693            addi    a3,s0,-112
   110fe:    c90b8713            addi    a4,s7,-880
   11102:    9736                add     a4,a4,a3
   11104:    76fd                lui     a3,0xfffff
   11106:    ab068693            addi    a3,a3,-1360 # 0xffffffffffffeab0
   1110a:    96a2                add     a3,a3,s0
   1110c:    4781                li      a5,0
   1110e:    e298                sd      a4,0(a3)
   11110:    777d                lui     a4,0xfffff
   11112:    ad870713            addi    a4,a4,-1320 # 0xffffffffffffead8
   11116:    9722                add     a4,a4,s0
   11118:    e31c                sd      a5,0(a4)
   1111a:    3f7010ef            jal     ra,0x12d10
   1111e:    77fd                lui     a5,0xfffff
   11120:    ad878793            addi    a5,a5,-1320 # 0xffffffffffffead8
   11124:    97a2                add     a5,a5,s0
   11126:    639c                ld      a5,0(a5)
   11128:    dcf50463            beq     a0,a5,0x106f0
   1112c:    767d                lui     a2,0xfffff
   1112e:    6098                ld      a4,0(s1)
   11130:    ac060613            addi    a2,a2,-1344 # 0xffffffffffffeac0
   11134:    0017869b            addiw   a3,a5,1
   11138:    9622                add     a2,a2,s0
   1113a:    c214                sw      a3,0(a2)
   1113c:    00062803            lw      a6,0(a2)
   11140:    f9040693            addi    a3,s0,-112
   11144:    00074603            lbu     a2,0(a4)
   11148:    96de                add     a3,a3,s7
   1114a:    97b6                add     a5,a5,a3
   1114c:    c8c78823            sb      a2,-880(a5)
   11150:    449c                lw      a5,8(s1)
   11152:    0705                addi    a4,a4,1
   11154:    e098                sd      a4,0(s1)
   11156:    37fd                addiw   a5,a5,-1
   11158:    c49c                sw      a5,8(s1)
   1115a:    478d                li      a5,3
   1115c:    00fd1763            bne     s10,a5,0x1116a
   11160:    b806a703            lw      a4,-1152(a3)
   11164:    4791                li      a5,4
   11166:    02f70763            beq     a4,a5,0x11194
   1116a:    77fd                lui     a5,0xfffff
   1116c:    ad878793            addi    a5,a5,-1320 # 0xffffffffffffead8
   11170:    97a2                add     a5,a5,s0
   11172:    0107b023            sd      a6,0(a5)
   11176:    77fd                lui     a5,0xfffff
   11178:    ab878793            addi    a5,a5,-1352 # 0xffffffffffffeab8
   1117c:    97a2                add     a5,a5,s0
   1117e:    6388                ld      a0,0(a5)
   11180:    4621                li      a2,8
   11182:    4581                li      a1,0
   11184:    a2eff0ef            jal     ra,0x103b2
   11188:    77fd                lui     a5,0xfffff
   1118a:    ad878793            addi    a5,a5,-1320 # 0xffffffffffffead8
   1118e:    97a2                add     a5,a5,s0
   11190:    0007b803            ld      a6,0(a5)
   11194:    77fd                lui     a5,0xfffff
   11196:    ad878793            addi    a5,a5,-1320 # 0xffffffffffffead8
   1119a:    97a2                add     a5,a5,s0
   1119c:    0107b023            sd      a6,0(a5)
   111a0:    77fd                lui     a5,0xfffff
   111a2:    ab878793            addi    a5,a5,-1352 # 0xffffffffffffeab8
   111a6:    97a2                add     a5,a5,s0
   111a8:    6398                ld      a4,0(a5)
   111aa:    77fd                lui     a5,0xfffff
   111ac:    ab078793            addi    a5,a5,-1360 # 0xffffffffffffeab0
   111b0:    97a2                add     a5,a5,s0
   111b2:    6390                ld      a2,0(a5)
   111b4:    86c2                mv      a3,a6
   111b6:    85e6                mv      a1,s9
   111b8:    8556                mv      a0,s5
   111ba:    08a020ef            jal     ra,0x13244
   111be:    57fd                li      a5,-1
   111c0:    8d2a                mv      s10,a0
   111c2:    d2f50763            beq     a0,a5,0x106f0
   111c6:    14051f63            bnez    a0,0x11324
   111ca:    000ca023            sw      zero,0(s9)
   111ce:    000ca783            lw      a5,0(s9)
   111d2:    577d                li      a4,-1
   111d4:    06e78663            beq     a5,a4,0x11240
   111d8:    777d                lui     a4,0xfffff
   111da:    a9870713            addi    a4,a4,-1384 # 0xffffffffffffea98
   111de:    9722                add     a4,a4,s0
   111e0:    e31c                sd      a5,0(a4)
   111e2:    777d                lui     a4,0xfffff
   111e4:    f9040793            addi    a5,s0,-112
   111e8:    b8870713            addi    a4,a4,-1144 # 0xffffffffffffeb88
   111ec:    00e78533            add     a0,a5,a4
   111f0:    4621                li      a2,8
   111f2:    4581                li      a1,0
   111f4:    9beff0ef            jal     ra,0x103b2
   111f8:    8781b703            ld      a4,-1928(gp)
   111fc:    77fd                lui     a5,0xfffff
   111fe:    a9878793            addi    a5,a5,-1384 # 0xffffffffffffea98
   11202:    6738                ld      a4,72(a4)
   11204:    97a2                add     a5,a5,s0
   11206:    639c                ld      a5,0(a5)
   11208:    e709                bnez    a4,0x11212
   1120a:    0001f737            lui     a4,0x1f
   1120e:    36870713            addi    a4,a4,872 # 0x1f368
   11212:    76fd                lui     a3,0xfffff
   11214:    aa068693            addi    a3,a3,-1376 # 0xffffffffffffeaa0
   11218:    96a2                add     a3,a3,s0
   1121a:    7378                ld      a4,224(a4)
   1121c:    6294                ld      a3,0(a3)
   1121e:    863e                mv      a2,a5
   11220:    b78b8593            addi    a1,s7,-1160
   11224:    f9040793            addi    a5,s0,-112
   11228:    95be                add     a1,a1,a5
   1122a:    8556                mv      a0,s5
   1122c:    9702                jalr    a4
   1122e:    4705                li      a4,1
   11230:    4781                li      a5,0
   11232:    00e51763            bne     a0,a4,0x11240
   11236:    f9040793            addi    a5,s0,-112
   1123a:    97de                add     a5,a5,s7
   1123c:    b787c783            lbu     a5,-1160(a5)
   11240:    f9040713            addi    a4,s0,-112
   11244:    975e                add     a4,a4,s7
   11246:    97ba                add     a5,a5,a4
   11248:    b907c783            lbu     a5,-1136(a5)
   1124c:    12079763            bnez    a5,0x1137a
   11250:    c90b8913            addi    s2,s7,-880
   11254:    f9040793            addi    a5,s0,-112
   11258:    577d                li      a4,-1
   1125a:    993e                add     s2,s2,a5
   1125c:    77fd                lui     a5,0xfffff
   1125e:    ad878793            addi    a5,a5,-1320 # 0xffffffffffffead8
   11262:    97a2                add     a5,a5,s0
   11264:    639c                ld      a5,0(a5)
   11266:    76fd                lui     a3,0xfffff
   11268:    ad868693            addi    a3,a3,-1320 # 0xffffffffffffead8
   1126c:    17fd                addi    a5,a5,-1
   1126e:    96a2                add     a3,a3,s0
   11270:    e29c                sd      a5,0(a3)
   11272:    629c                ld      a5,0(a3)
   11274:    2781                sext.w  a5,a5
   11276:    0ee79463            bne     a5,a4,0x1135e
   1127a:    77fd                lui     a5,0xfffff
   1127c:    ad078793            addi    a5,a5,-1328 # 0xffffffffffffead0
   11280:    97a2                add     a5,a5,s0
   11282:    639c                ld      a5,0(a5)
   11284:    e7a9                bnez    a5,0x112ce
   11286:    77fd                lui     a5,0xfffff
   11288:    ae878793            addi    a5,a5,-1304 # 0xffffffffffffeae8
   1128c:    97a2                add     a5,a5,s0
   1128e:    639c                ld      a5,0(a5)
   11290:    000ca023            sw      zero,0(s9)
   11294:    cf85                beqz    a5,0x112cc
   11296:    77fd                lui     a5,0xfffff
   11298:    ae078793            addi    a5,a5,-1312 # 0xffffffffffffeae0
   1129c:    97a2                add     a5,a5,s0
   1129e:    41bc85b3            sub     a1,s9,s11
   112a2:    639c                ld      a5,0(a5)
   112a4:    8589                srai    a1,a1,0x2
   112a6:    0585                addi    a1,a1,1
   112a8:    02f5f263            bgeu    a1,a5,0x112cc
   112ac:    77fd                lui     a5,0xfffff
   112ae:    ae878793            addi    a5,a5,-1304 # 0xffffffffffffeae8
   112b2:    97a2                add     a5,a5,s0
   112b4:    639c                ld      a5,0(a5)
   112b6:    058a                slli    a1,a1,0x2
   112b8:    6388                ld      a0,0(a5)
   112ba:    164020ef            jal     ra,0x1341e
   112be:    c519                beqz    a0,0x112cc
   112c0:    77fd                lui     a5,0xfffff
   112c2:    ae878793            addi    a5,a5,-1304 # 0xffffffffffffeae8
   112c6:    97a2                add     a5,a5,s0
   112c8:    639c                ld      a5,0(a5)
   112ca:    e388                sd      a0,0(a5)
   112cc:    2c05                addiw   s8,s8,1
   112ce:    77fd                lui     a5,0xfffff
   112d0:    ac878793            addi    a5,a5,-1336 # 0xffffffffffffeac8
   112d4:    b6d5                j       0x10eb8
   112d6:    77fd                lui     a5,0xfffff
   112d8:    ac878793            addi    a5,a5,-1336 # 0xffffffffffffeac8
   112dc:    97a2                add     a5,a5,s0
   112de:    0197b023            sd      s9,0(a5)
   112e2:    77fd                lui     a5,0xfffff
   112e4:    ae078793            addi    a5,a5,-1312 # 0xffffffffffffeae0
   112e8:    97a2                add     a5,a5,s0
   112ea:    0007b023            sd      zero,0(a5)
   112ee:    77fd                lui     a5,0xfffff
   112f0:    ae878793            addi    a5,a5,-1304 # 0xffffffffffffeae8
   112f4:    97a2                add     a5,a5,s0
   112f6:    0007b023            sd      zero,0(a5)
   112fa:    b7cb8c93            addi    s9,s7,-1156
   112fe:    f9040793            addi    a5,s0,-112
   11302:    4d81                li      s11,0
   11304:    9cbe                add     s9,s9,a5
   11306:    b3c5                j       0x110e6
   11308:    77fd                lui     a5,0xfffff
   1130a:    ae078793            addi    a5,a5,-1312 # 0xffffffffffffeae0
   1130e:    97a2                add     a5,a5,s0
   11310:    0007b023            sd      zero,0(a5)
   11314:    77fd                lui     a5,0xfffff
   11316:    ae878793            addi    a5,a5,-1304 # 0xffffffffffffeae8
   1131a:    97a2                add     a5,a5,s0
   1131c:    4d81                li      s11,0
   1131e:    0007b023            sd      zero,0(a5)
   11322:    b3d1                j       0x110e6
   11324:    77fd                lui     a5,0xfffff
   11326:    ad878793            addi    a5,a5,-1320 # 0xffffffffffffead8
   1132a:    97a2                add     a5,a5,s0
   1132c:    5779                li      a4,-2
   1132e:    639c                ld      a5,0(a5)
   11330:    e8e51fe3            bne     a0,a4,0x111ce
   11334:    4498                lw      a4,8(s1)
   11336:    0ee04263            bgtz    a4,0x1141a
   1133a:    777d                lui     a4,0xfffff
   1133c:    ad870713            addi    a4,a4,-1320 # 0xffffffffffffead8
   11340:    9722                add     a4,a4,s0
   11342:    85a6                mv      a1,s1
   11344:    8556                mv      a0,s5
   11346:    e31c                sd      a5,0(a4)
   11348:    4c0020ef            jal     ra,0x13808
   1134c:    77fd                lui     a5,0xfffff
   1134e:    ad878793            addi    a5,a5,-1320 # 0xffffffffffffead8
   11352:    97a2                add     a5,a5,s0
   11354:    639c                ld      a5,0(a5)
   11356:    c171                beqz    a0,0x1141a
   11358:    d38d                beqz    a5,0x1127a
   1135a:    b96ff06f            j       0x106f0
   1135e:    77fd                lui     a5,0xfffff
   11360:    ad878793            addi    a5,a5,-1320 # 0xffffffffffffead8
   11364:    97a2                add     a5,a5,s0
   11366:    639c                ld      a5,0(a5)
   11368:    8626                mv      a2,s1
   1136a:    8556                mv      a0,s5
   1136c:    97ca                add     a5,a5,s2
   1136e:    0007c583            lbu     a1,0(a5)
   11372:    46e050ef            jal     ra,0x167e0
   11376:    577d                li      a4,-1
   11378:    b5d5                j       0x1125c
   1137a:    77fd                lui     a5,0xfffff
   1137c:    ac078793            addi    a5,a5,-1344 # 0xffffffffffffeac0
   11380:    97a2                add     a5,a5,s0
   11382:    439c                lw      a5,0(a5)
   11384:    01478a3b            addw    s4,a5,s4
   11388:    478d                li      a5,3
   1138a:    00fd1763            bne     s10,a5,0x11398
   1138e:    b8072703            lw      a4,-1152(a4)
   11392:    4791                li      a5,4
   11394:    00f70363            beq     a4,a5,0x1139a
   11398:    197d                addi    s2,s2,-1
   1139a:    77fd                lui     a5,0xfffff
   1139c:    ad078793            addi    a5,a5,-1328 # 0xffffffffffffead0
   113a0:    97a2                add     a5,a5,s0
   113a2:    639c                ld      a5,0(a5)
   113a4:    ebad                bnez    a5,0x11416
   113a6:    77fd                lui     a5,0xfffff
   113a8:    ae878793            addi    a5,a5,-1304 # 0xffffffffffffeae8
   113ac:    97a2                add     a5,a5,s0
   113ae:    639c                ld      a5,0(a5)
   113b0:    0c91                addi    s9,s9,4
   113b2:    c3b5                beqz    a5,0x11416
   113b4:    767d                lui     a2,0xfffff
   113b6:    ae060613            addi    a2,a2,-1312 # 0xffffffffffffeae0
   113ba:    9622                add     a2,a2,s0
   113bc:    6210                ld      a2,0(a2)
   113be:    41bc8733            sub     a4,s9,s11
   113c2:    40275693            srai    a3,a4,0x2
   113c6:    4781                li      a5,0
   113c8:    f6c6e6e3            bltu    a3,a2,0x11334
   113cc:    77fd                lui     a5,0xfffff
   113ce:    ad878793            addi    a5,a5,-1320 # 0xffffffffffffead8
   113d2:    97a2                add     a5,a5,s0
   113d4:    856e                mv      a0,s11
   113d6:    00361593            slli    a1,a2,0x3
   113da:    e398                sd      a4,0(a5)
   113dc:    042020ef            jal     ra,0x1341e
   113e0:    8daa                mv      s11,a0
   113e2:    ce050a63            beqz    a0,0x108d6
   113e6:    77fd                lui     a5,0xfffff
   113e8:    ad878793            addi    a5,a5,-1320 # 0xffffffffffffead8
   113ec:    97a2                add     a5,a5,s0
   113ee:    6398                ld      a4,0(a5)
   113f0:    77fd                lui     a5,0xfffff
   113f2:    ae878793            addi    a5,a5,-1304 # 0xffffffffffffeae8
   113f6:    97a2                add     a5,a5,s0
   113f8:    639c                ld      a5,0(a5)
   113fa:    00e50cb3            add     s9,a0,a4
   113fe:    777d                lui     a4,0xfffff
   11400:    e388                sd      a0,0(a5)
   11402:    77fd                lui     a5,0xfffff
   11404:    ae078793            addi    a5,a5,-1312 # 0xffffffffffffeae0
   11408:    97a2                add     a5,a5,s0
   1140a:    639c                ld      a5,0(a5)
   1140c:    ae070713            addi    a4,a4,-1312 # 0xffffffffffffeae0
   11410:    9722                add     a4,a4,s0
   11412:    0786                slli    a5,a5,0x1
   11414:    e31c                sd      a5,0(a4)
   11416:    4781                li      a5,0
   11418:    bf31                j       0x11334
   1141a:    ce091be3            bnez    s2,0x11110
   1141e:    bdb1                j       0x1127a
   11420:    777d                lui     a4,0xfffff
   11422:    ad070713            addi    a4,a4,-1328 # 0xffffffffffffead0
   11426:    9722                add     a4,a4,s0
   11428:    6318                ld      a4,0(a4)
   1142a:    c335                beqz    a4,0x1148e
   1142c:    fff90693            addi    a3,s2,-1
   11430:    4901                li      s2,0
   11432:    609c                ld      a5,0(s1)
   11434:    767d                lui     a2,0xfffff
   11436:    f9060613            addi    a2,a2,-112 # 0xffffffffffffef90
   1143a:    0007c703            lbu     a4,0(a5)
   1143e:    9622                add     a2,a2,s0
   11440:    00090d9b            sext.w  s11,s2
   11444:    9732                add     a4,a4,a2
   11446:    b9074703            lbu     a4,-1136(a4)
   1144a:    e709                bnez    a4,0x11454
   1144c:    ac0d96e3            bnez    s11,0x10f18
   11450:    a90ff06f            j       0x106e0
   11454:    4498                lw      a4,8(s1)
   11456:    0785                addi    a5,a5,1
   11458:    e09c                sd      a5,0(s1)
   1145a:    fff7061b            addiw   a2,a4,-1
   1145e:    c490                sw      a2,8(s1)
   11460:    2d85                addiw   s11,s11,1
   11462:    ab268be3            beq     a3,s2,0x10f18
   11466:    00c05463            blez    a2,0x1146e
   1146a:    0905                addi    s2,s2,1
   1146c:    b7d9                j       0x11432
   1146e:    77fd                lui     a5,0xfffff
   11470:    ae878793            addi    a5,a5,-1304 # 0xffffffffffffeae8
   11474:    97a2                add     a5,a5,s0
   11476:    85a6                mv      a1,s1
   11478:    8556                mv      a0,s5
   1147a:    e394                sd      a3,0(a5)
   1147c:    38c020ef            jal     ra,0x13808
   11480:    77fd                lui     a5,0xfffff
   11482:    ae878793            addi    a5,a5,-1304 # 0xffffffffffffeae8
   11486:    97a2                add     a5,a5,s0
   11488:    6394                ld      a3,0(a5)
   1148a:    d165                beqz    a0,0x1146a
   1148c:    b471                j       0x10f18
   1148e:    76fd                lui     a3,0xfffff
   11490:    ae868693            addi    a3,a3,-1304 # 0xffffffffffffeae8
   11494:    008c8713            addi    a4,s9,8
   11498:    96a2                add     a3,a3,s0
   1149a:    e298                sd      a4,0(a3)
   1149c:    0807f793            andi    a5,a5,128
   114a0:    000cb703            ld      a4,0(s9)
   114a4:    18078863            beqz    a5,0x11634
   114a8:    77fd                lui     a5,0xfffff
   114aa:    ae078793            addi    a5,a5,-1312 # 0xffffffffffffeae0
   114ae:    97a2                add     a5,a5,s0
   114b0:    e398                sd      a4,0(a5)
   114b2:    a2070763            beqz    a4,0x106e0
   114b6:    02000513            li      a0,32
   114ba:    091010ef            jal     ra,0x12d4a
   114be:    862a                mv      a2,a0
   114c0:    a2050f63            beqz    a0,0x106fe
   114c4:    77fd                lui     a5,0xfffff
   114c6:    ae078793            addi    a5,a5,-1312 # 0xffffffffffffeae0
   114ca:    97a2                add     a5,a5,s0
   114cc:    6398                ld      a4,0(a5)
   114ce:    0089d783            lhu     a5,8(s3)
   114d2:    00a9dc83            lhu     s9,10(s3)
   114d6:    e308                sd      a0,0(a4)
   114d8:    0007859b            sext.w  a1,a5
   114dc:    04bce363            bltu    s9,a1,0x11522
   114e0:    76fd                lui     a3,0xfffff
   114e2:    ad868693            addi    a3,a3,-1320 # 0xffffffffffffead8
   114e6:    96a2                add     a3,a3,s0
   114e8:    e288                sd      a0,0(a3)
   114ea:    66c1                lui     a3,0x10
   114ec:    16d9                addi    a3,a3,-10
   114ee:    0009b503            ld      a0,0(s3)
   114f2:    a0b6e963            bltu    a3,a1,0x10704
   114f6:    00878d9b            addiw   s11,a5,8
   114fa:    003d9593            slli    a1,s11,0x3
   114fe:    721010ef            jal     ra,0x1341e
   11502:    a0050163            beqz    a0,0x10704
   11506:    77fd                lui     a5,0xfffff
   11508:    ad878793            addi    a5,a5,-1320 # 0xffffffffffffead8
   1150c:    97a2                add     a5,a5,s0
   1150e:    6390                ld      a2,0(a5)
   11510:    77fd                lui     a5,0xfffff
   11512:    ae078793            addi    a5,a5,-1312 # 0xffffffffffffeae0
   11516:    97a2                add     a5,a5,s0
   11518:    6398                ld      a4,0(a5)
   1151a:    00a9b023            sd      a0,0(s3)
   1151e:    01b99423            sh      s11,8(s3)
   11522:    0009b783            ld      a5,0(s3)
   11526:    001c869b            addiw   a3,s9,1
   1152a:    0c8e                slli    s9,s9,0x3
   1152c:    9cbe                add     s9,s9,a5
   1152e:    00ecb023            sd      a4,0(s9)
   11532:    8dba                mv      s11,a4
   11534:    00d99523            sh      a3,10(s3)
   11538:    8732                mv      a4,a2
   1153a:    02000613            li      a2,32
   1153e:    8cba                mv      s9,a4
   11540:    608c                ld      a1,0(s1)
   11542:    76fd                lui     a3,0xfffff
   11544:    f9068693            addi    a3,a3,-112 # 0xffffffffffffef90
   11548:    0005c783            lbu     a5,0(a1)
   1154c:    96a2                add     a3,a3,s0
   1154e:    97b6                add     a5,a5,a3
   11550:    b907c783            lbu     a5,-1136(a5)
   11554:    e399                bnez    a5,0x1155a
   11556:    87ba                mv      a5,a4
   11558:    a065                j       0x11600
   1155a:    449c                lw      a5,8(s1)
   1155c:    37fd                addiw   a5,a5,-1
   1155e:    c49c                sw      a5,8(s1)
   11560:    00158793            addi    a5,a1,1
   11564:    e09c                sd      a5,0(s1)
   11566:    0005c583            lbu     a1,0(a1)
   1156a:    00170793            addi    a5,a4,1
   1156e:    00b70023            sb      a1,0(a4)
   11572:    040d8663            beqz    s11,0x115be
   11576:    41978733            sub     a4,a5,s9
   1157a:    04c76263            bltu    a4,a2,0x115be
   1157e:    77fd                lui     a5,0xfffff
   11580:    ad878793            addi    a5,a5,-1320 # 0xffffffffffffead8
   11584:    97a2                add     a5,a5,s0
   11586:    e398                sd      a4,0(a5)
   11588:    77fd                lui     a5,0xfffff
   1158a:    0606                slli    a2,a2,0x1
   1158c:    ae078793            addi    a5,a5,-1312 # 0xffffffffffffeae0
   11590:    97a2                add     a5,a5,s0
   11592:    8566                mv      a0,s9
   11594:    85b2                mv      a1,a2
   11596:    e390                sd      a2,0(a5)
   11598:    687010ef            jal     ra,0x1341e
   1159c:    8caa                mv      s9,a0
   1159e:    96050063            beqz    a0,0x106fe
   115a2:    77fd                lui     a5,0xfffff
   115a4:    ad878793            addi    a5,a5,-1320 # 0xffffffffffffead8
   115a8:    97a2                add     a5,a5,s0
   115aa:    6398                ld      a4,0(a5)
   115ac:    00adb023            sd      a0,0(s11)
   115b0:    00e507b3            add     a5,a0,a4
   115b4:    777d                lui     a4,0xfffff
   115b6:    ae070713            addi    a4,a4,-1312 # 0xffffffffffffeae0
   115ba:    9722                add     a4,a4,s0
   115bc:    6310                ld      a2,0(a4)
   115be:    197d                addi    s2,s2,-1
   115c0:    04090063            beqz    s2,0x11600
   115c4:    4498                lw      a4,8(s1)
   115c6:    06e04a63            bgtz    a4,0x1163a
   115ca:    777d                lui     a4,0xfffff
   115cc:    ad870713            addi    a4,a4,-1320 # 0xffffffffffffead8
   115d0:    9722                add     a4,a4,s0
   115d2:    e310                sd      a2,0(a4)
   115d4:    777d                lui     a4,0xfffff
   115d6:    ae070713            addi    a4,a4,-1312 # 0xffffffffffffeae0
   115da:    9722                add     a4,a4,s0
   115dc:    85a6                mv      a1,s1
   115de:    8556                mv      a0,s5
   115e0:    e31c                sd      a5,0(a4)
   115e2:    226020ef            jal     ra,0x13808
   115e6:    77fd                lui     a5,0xfffff
   115e8:    777d                lui     a4,0xfffff
   115ea:    ae078793            addi    a5,a5,-1312 # 0xffffffffffffeae0
   115ee:    ad870713            addi    a4,a4,-1320 # 0xffffffffffffead8
   115f2:    97a2                add     a5,a5,s0
   115f4:    9722                add     a4,a4,s0
   115f6:    639c                ld      a5,0(a5)
   115f8:    6310                ld      a2,0(a4)
   115fa:    c121                beqz    a0,0x1163a
   115fc:    8f978a63            beq     a5,s9,0x106f0
   11600:    41978cbb            subw    s9,a5,s9
   11604:    8c0c8e63            beqz    s9,0x106e0
   11608:    00078023            sb      zero,0(a5)
   1160c:    000d8d63            beqz    s11,0x11626
   11610:    001c859b            addiw   a1,s9,1
   11614:    00c5f963            bgeu    a1,a2,0x11626
   11618:    000db503            ld      a0,0(s11)
   1161c:    603010ef            jal     ra,0x1341e
   11620:    c119                beqz    a0,0x11626
   11622:    00adb023            sd      a0,0(s11)
   11626:    2c05                addiw   s8,s8,1
   11628:    019a0a3b            addw    s4,s4,s9
   1162c:    77fd                lui     a5,0xfffff
   1162e:    ae878793            addi    a5,a5,-1304 # 0xffffffffffffeae8
   11632:    b059                j       0x10eb8
   11634:    4601                li      a2,0
   11636:    4d81                li      s11,0
   11638:    b719                j       0x1153e
   1163a:    873e                mv      a4,a5
   1163c:    b711                j       0x11540
   1163e:    00091363            bnez    s2,0x11644
   11642:    597d                li      s2,-1
   11644:    76fd                lui     a3,0xfffff
   11646:    0107f713            andi    a4,a5,16
   1164a:    ad868693            addi    a3,a3,-1320 # 0xffffffffffffead8
   1164e:    2701                sext.w  a4,a4
   11650:    96a2                add     a3,a3,s0
   11652:    e298                sd      a4,0(a3)
   11654:    0017f713            andi    a4,a5,1
   11658:    3a070063            beqz    a4,0x119f8
   1165c:    6298                ld      a4,0(a3)
   1165e:    22071f63            bnez    a4,0x1189c
   11662:    76fd                lui     a3,0xfffff
   11664:    ac868693            addi    a3,a3,-1336 # 0xffffffffffffeac8
   11668:    008c8713            addi    a4,s9,8
   1166c:    96a2                add     a3,a3,s0
   1166e:    e298                sd      a4,0(a3)
   11670:    0807f793            andi    a5,a5,128
   11674:    000cbc83            ld      s9,0(s9)
   11678:    24078b63            beqz    a5,0x118ce
   1167c:    a40c8e63            beqz    s9,0x108d8
   11680:    08000513            li      a0,128
   11684:    6c6010ef            jal     ra,0x12d4a
   11688:    8daa                mv      s11,a0
   1168a:    a4050663            beqz    a0,0x108d6
   1168e:    0089d703            lhu     a4,8(s3)
   11692:    00a9d783            lhu     a5,10(s3)
   11696:    00acb023            sd      a0,0(s9)
   1169a:    0007061b            sext.w  a2,a4
   1169e:    04c7e763            bltu    a5,a2,0x116ec
   116a2:    76fd                lui     a3,0xfffff
   116a4:    ae068693            addi    a3,a3,-1312 # 0xffffffffffffeae0
   116a8:    96a2                add     a3,a3,s0
   116aa:    e29c                sd      a5,0(a3)
   116ac:    66c1                lui     a3,0x10
   116ae:    16d9                addi    a3,a3,-10
   116b0:    a2c6e363            bltu    a3,a2,0x108d6
   116b4:    77fd                lui     a5,0xfffff
   116b6:    0009b503            ld      a0,0(s3)
   116ba:    2721                addiw   a4,a4,8
   116bc:    ae878793            addi    a5,a5,-1304 # 0xffffffffffffeae8
   116c0:    97a2                add     a5,a5,s0
   116c2:    00371593            slli    a1,a4,0x3
   116c6:    e398                sd      a4,0(a5)
   116c8:    557010ef            jal     ra,0x1341e
   116cc:    a0050563            beqz    a0,0x108d6
   116d0:    77fd                lui     a5,0xfffff
   116d2:    ae878793            addi    a5,a5,-1304 # 0xffffffffffffeae8
   116d6:    97a2                add     a5,a5,s0
   116d8:    6398                ld      a4,0(a5)
   116da:    77fd                lui     a5,0xfffff
   116dc:    ae078793            addi    a5,a5,-1312 # 0xffffffffffffeae0
   116e0:    97a2                add     a5,a5,s0
   116e2:    639c                ld      a5,0(a5)
   116e4:    00a9b023            sd      a0,0(s3)
   116e8:    00e99423            sh      a4,8(s3)
   116ec:    0009b703            ld      a4,0(s3)
   116f0:    0017869b            addiw   a3,a5,1
   116f4:    078e                slli    a5,a5,0x3
   116f6:    97ba                add     a5,a5,a4
   116f8:    0197b023            sd      s9,0(a5)
   116fc:    77fd                lui     a5,0xfffff
   116fe:    ae878793            addi    a5,a5,-1304 # 0xffffffffffffeae8
   11702:    777d                lui     a4,0xfffff
   11704:    97a2                add     a5,a5,s0
   11706:    ae070713            addi    a4,a4,-1312 # 0xffffffffffffeae0
   1170a:    0197b023            sd      s9,0(a5)
   1170e:    9722                add     a4,a4,s0
   11710:    02000793            li      a5,32
   11714:    00d99523            sh      a3,10(s3)
   11718:    8cee                mv      s9,s11
   1171a:    e31c                sd      a5,0(a4)
   1171c:    76fd                lui     a3,0xfffff
   1171e:    f9040713            addi    a4,s0,-112
   11722:    ad068693            addi    a3,a3,-1328 # 0xffffffffffffead0
   11726:    975e                add     a4,a4,s7
   11728:    96a2                add     a3,a3,s0
   1172a:    e298                sd      a4,0(a3)
   1172c:    76fd                lui     a3,0xfffff
   1172e:    b8868693            addi    a3,a3,-1144 # 0xffffffffffffeb88
   11732:    f9040713            addi    a4,s0,-112
   11736:    9736                add     a4,a4,a3
   11738:    76fd                lui     a3,0xfffff
   1173a:    ab868693            addi    a3,a3,-1352 # 0xffffffffffffeab8
   1173e:    96a2                add     a3,a3,s0
   11740:    e298                sd      a4,0(a3)
   11742:    f9040693            addi    a3,s0,-112
   11746:    c90b8713            addi    a4,s7,-880
   1174a:    9736                add     a4,a4,a3
   1174c:    76fd                lui     a3,0xfffff
   1174e:    ab068693            addi    a3,a3,-1360 # 0xffffffffffffeab0
   11752:    96a2                add     a3,a3,s0
   11754:    4781                li      a5,0
   11756:    e298                sd      a4,0(a3)
   11758:    777d                lui     a4,0xfffff
   1175a:    ac070713            addi    a4,a4,-1344 # 0xffffffffffffeac0
   1175e:    9722                add     a4,a4,s0
   11760:    e31c                sd      a5,0(a4)
   11762:    5c8010ef            jal     ra,0x12d2a
   11766:    6098                ld      a4,0(s1)
   11768:    00074703            lbu     a4,0(a4)
   1176c:    953a                add     a0,a0,a4
   1176e:    00154703            lbu     a4,1(a0)
   11772:    8b21                andi    a4,a4,8
   11774:    12071063            bnez    a4,0x11894
   11778:    77fd                lui     a5,0xfffff
   1177a:    ac078793            addi    a5,a5,-1344 # 0xffffffffffffeac0
   1177e:    97a2                add     a5,a5,s0
   11780:    639c                ld      a5,0(a5)
   11782:    10090963            beqz    s2,0x11894
   11786:    777d                lui     a4,0xfffff
   11788:    ac070713            addi    a4,a4,-1344 # 0xffffffffffffeac0
   1178c:    9722                add     a4,a4,s0
   1178e:    e31c                sd      a5,0(a4)
   11790:    580010ef            jal     ra,0x12d10
   11794:    77fd                lui     a5,0xfffff
   11796:    ac078793            addi    a5,a5,-1344 # 0xffffffffffffeac0
   1179a:    97a2                add     a5,a5,s0
   1179c:    639c                ld      a5,0(a5)
   1179e:    00f51463            bne     a0,a5,0x117a6
   117a2:    f4ffe06f            j       0x106f0
   117a6:    767d                lui     a2,0xfffff
   117a8:    ac060613            addi    a2,a2,-1344 # 0xffffffffffffeac0
   117ac:    0017869b            addiw   a3,a5,1
   117b0:    9622                add     a2,a2,s0
   117b2:    c214                sw      a3,0(a2)
   117b4:    00062803            lw      a6,0(a2)
   117b8:    767d                lui     a2,0xfffff
   117ba:    6098                ld      a4,0(s1)
   117bc:    ad060613            addi    a2,a2,-1328 # 0xffffffffffffead0
   117c0:    9622                add     a2,a2,s0
   117c2:    6210                ld      a2,0(a2)
   117c4:    00074683            lbu     a3,0(a4)
   117c8:    0705                addi    a4,a4,1
   117ca:    97b2                add     a5,a5,a2
   117cc:    c8d78823            sb      a3,-880(a5)
   117d0:    449c                lw      a5,8(s1)
   117d2:    e098                sd      a4,0(s1)
   117d4:    37fd                addiw   a5,a5,-1
   117d6:    c49c                sw      a5,8(s1)
   117d8:    478d                li      a5,3
   117da:    00fd1763            bne     s10,a5,0x117e8
   117de:    b8862783            lw      a5,-1144(a2)
   117e2:    4711                li      a4,4
   117e4:    02e78763            beq     a5,a4,0x11812
   117e8:    77fd                lui     a5,0xfffff
   117ea:    a9878793            addi    a5,a5,-1384 # 0xffffffffffffea98
   117ee:    97a2                add     a5,a5,s0
   117f0:    0107b023            sd      a6,0(a5)
   117f4:    77fd                lui     a5,0xfffff
   117f6:    ab878793            addi    a5,a5,-1352 # 0xffffffffffffeab8
   117fa:    97a2                add     a5,a5,s0
   117fc:    6388                ld      a0,0(a5)
   117fe:    4621                li      a2,8
   11800:    4581                li      a1,0
   11802:    bb1fe0ef            jal     ra,0x103b2
   11806:    77fd                lui     a5,0xfffff
   11808:    a9878793            addi    a5,a5,-1384 # 0xffffffffffffea98
   1180c:    97a2                add     a5,a5,s0
   1180e:    0007b803            ld      a6,0(a5)
   11812:    77fd                lui     a5,0xfffff
   11814:    ab878793            addi    a5,a5,-1352 # 0xffffffffffffeab8
   11818:    97a2                add     a5,a5,s0
   1181a:    6398                ld      a4,0(a5)
   1181c:    77fd                lui     a5,0xfffff
   1181e:    a9878793            addi    a5,a5,-1384 # 0xffffffffffffea98
   11822:    97a2                add     a5,a5,s0
   11824:    0107b023            sd      a6,0(a5)
   11828:    77fd                lui     a5,0xfffff
   1182a:    ab078793            addi    a5,a5,-1360 # 0xffffffffffffeab0
   1182e:    97a2                add     a5,a5,s0
   11830:    6390                ld      a2,0(a5)
   11832:    86c2                mv      a3,a6
   11834:    85e6                mv      a1,s9
   11836:    8556                mv      a0,s5
   11838:    20d010ef            jal     ra,0x13244
   1183c:    57fd                li      a5,-1
   1183e:    8d2a                mv      s10,a0
   11840:    00f51463            bne     a0,a5,0x11848
   11844:    eadfe06f            j       0x106f0
   11848:    77fd                lui     a5,0xfffff
   1184a:    a9878793            addi    a5,a5,-1384 # 0xffffffffffffea98
   1184e:    97a2                add     a5,a5,s0
   11850:    0007b803            ld      a6,0(a5)
   11854:    e959                bnez    a0,0x118ea
   11856:    000ca023            sw      zero,0(s9)
   1185a:    77fd                lui     a5,0xfffff
   1185c:    000ca503            lw      a0,0(s9)
   11860:    a9878793            addi    a5,a5,-1384 # 0xffffffffffffea98
   11864:    97a2                add     a5,a5,s0
   11866:    0107b023            sd      a6,0(a5)
   1186a:    3f8010ef            jal     ra,0x12c62
   1186e:    777d                lui     a4,0xfffff
   11870:    a9870713            addi    a4,a4,-1384 # 0xffffffffffffea98
   11874:    9722                add     a4,a4,s0
   11876:    87aa                mv      a5,a0
   11878:    00073803            ld      a6,0(a4)
   1187c:    c961                beqz    a0,0x1194c
   1187e:    c90b8913            addi    s2,s7,-880
   11882:    f9040793            addi    a5,s0,-112
   11886:    577d                li      a4,-1
   11888:    993e                add     s2,s2,a5
   1188a:    187d                addi    a6,a6,-1
   1188c:    0008079b            sext.w  a5,a6
   11890:    08e79863            bne     a5,a4,0x11920
   11894:    77fd                lui     a5,0xfffff
   11896:    ad878793            addi    a5,a5,-1320 # 0xffffffffffffead8
   1189a:    b2dd                j       0x11280
   1189c:    77fd                lui     a5,0xfffff
   1189e:    ac878793            addi    a5,a5,-1336 # 0xffffffffffffeac8
   118a2:    97a2                add     a5,a5,s0
   118a4:    0197b023            sd      s9,0(a5)
   118a8:    77fd                lui     a5,0xfffff
   118aa:    ae078793            addi    a5,a5,-1312 # 0xffffffffffffeae0
   118ae:    97a2                add     a5,a5,s0
   118b0:    0007b023            sd      zero,0(a5)
   118b4:    77fd                lui     a5,0xfffff
   118b6:    ae878793            addi    a5,a5,-1304 # 0xffffffffffffeae8
   118ba:    97a2                add     a5,a5,s0
   118bc:    0007b023            sd      zero,0(a5)
   118c0:    b7cb8c93            addi    s9,s7,-1156
   118c4:    f9040793            addi    a5,s0,-112
   118c8:    4d81                li      s11,0
   118ca:    9cbe                add     s9,s9,a5
   118cc:    bd81                j       0x1171c
   118ce:    77fd                lui     a5,0xfffff
   118d0:    ae078793            addi    a5,a5,-1312 # 0xffffffffffffeae0
   118d4:    97a2                add     a5,a5,s0
   118d6:    0007b023            sd      zero,0(a5)
   118da:    77fd                lui     a5,0xfffff
   118dc:    ae878793            addi    a5,a5,-1304 # 0xffffffffffffeae8
   118e0:    97a2                add     a5,a5,s0
   118e2:    4d81                li      s11,0
   118e4:    0007b023            sd      zero,0(a5)
   118e8:    bd15                j       0x1171c
   118ea:    5779                li      a4,-2
   118ec:    87c2                mv      a5,a6
   118ee:    f6e516e3            bne     a0,a4,0x1185a
   118f2:    4498                lw      a4,8(s1)
   118f4:    e6e042e3            bgtz    a4,0x11758
   118f8:    777d                lui     a4,0xfffff
   118fa:    ac070713            addi    a4,a4,-1344 # 0xffffffffffffeac0
   118fe:    9722                add     a4,a4,s0
   11900:    85a6                mv      a1,s1
   11902:    8556                mv      a0,s5
   11904:    e31c                sd      a5,0(a4)
   11906:    703010ef            jal     ra,0x13808
   1190a:    77fd                lui     a5,0xfffff
   1190c:    ac078793            addi    a5,a5,-1344 # 0xffffffffffffeac0
   11910:    97a2                add     a5,a5,s0
   11912:    639c                ld      a5,0(a5)
   11914:    e40502e3            beqz    a0,0x11758
   11918:    c399                beqz    a5,0x1191e
   1191a:    dd7fe06f            j       0x106f0
   1191e:    bf9d                j       0x11894
   11920:    010907b3            add     a5,s2,a6
   11924:    0007c583            lbu     a1,0(a5)
   11928:    777d                lui     a4,0xfffff
   1192a:    ad070713            addi    a4,a4,-1328 # 0xffffffffffffead0
   1192e:    9722                add     a4,a4,s0
   11930:    8626                mv      a2,s1
   11932:    8556                mv      a0,s5
   11934:    01073023            sd      a6,0(a4)
   11938:    6a9040ef            jal     ra,0x167e0
   1193c:    77fd                lui     a5,0xfffff
   1193e:    ad078793            addi    a5,a5,-1328 # 0xffffffffffffead0
   11942:    97a2                add     a5,a5,s0
   11944:    577d                li      a4,-1
   11946:    0007b803            ld      a6,0(a5)
   1194a:    b781                j       0x1188a
   1194c:    777d                lui     a4,0xfffff
   1194e:    ac070713            addi    a4,a4,-1344 # 0xffffffffffffeac0
   11952:    9722                add     a4,a4,s0
   11954:    4318                lw      a4,0(a4)
   11956:    01470a3b            addw    s4,a4,s4
   1195a:    470d                li      a4,3
   1195c:    00ed1c63            bne     s10,a4,0x11974
   11960:    777d                lui     a4,0xfffff
   11962:    ad070713            addi    a4,a4,-1328 # 0xffffffffffffead0
   11966:    9722                add     a4,a4,s0
   11968:    6318                ld      a4,0(a4)
   1196a:    4691                li      a3,4
   1196c:    b8872703            lw      a4,-1144(a4)
   11970:    00d70363            beq     a4,a3,0x11976
   11974:    197d                addi    s2,s2,-1
   11976:    777d                lui     a4,0xfffff
   11978:    ad870713            addi    a4,a4,-1320 # 0xffffffffffffead8
   1197c:    9722                add     a4,a4,s0
   1197e:    6318                ld      a4,0(a4)
   11980:    fb2d                bnez    a4,0x118f2
   11982:    77fd                lui     a5,0xfffff
   11984:    ae878793            addi    a5,a5,-1304 # 0xffffffffffffeae8
   11988:    97a2                add     a5,a5,s0
   1198a:    639c                ld      a5,0(a5)
   1198c:    0c91                addi    s9,s9,4
   1198e:    c3bd                beqz    a5,0x119f4
   11990:    767d                lui     a2,0xfffff
   11992:    ae060613            addi    a2,a2,-1312 # 0xffffffffffffeae0
   11996:    9622                add     a2,a2,s0
   11998:    6210                ld      a2,0(a2)
   1199a:    41bc8733            sub     a4,s9,s11
   1199e:    40275693            srai    a3,a4,0x2
   119a2:    4781                li      a5,0
   119a4:    f4c6e7e3            bltu    a3,a2,0x118f2
   119a8:    77fd                lui     a5,0xfffff
   119aa:    ac078793            addi    a5,a5,-1344 # 0xffffffffffffeac0
   119ae:    97a2                add     a5,a5,s0
   119b0:    856e                mv      a0,s11
   119b2:    00361593            slli    a1,a2,0x3
   119b6:    e398                sd      a4,0(a5)
   119b8:    267010ef            jal     ra,0x1341e
   119bc:    8daa                mv      s11,a0
   119be:    e119                bnez    a0,0x119c4
   119c0:    f17fe06f            j       0x108d6
   119c4:    77fd                lui     a5,0xfffff
   119c6:    ac078793            addi    a5,a5,-1344 # 0xffffffffffffeac0
   119ca:    97a2                add     a5,a5,s0
   119cc:    6398                ld      a4,0(a5)
   119ce:    77fd                lui     a5,0xfffff
   119d0:    ae878793            addi    a5,a5,-1304 # 0xffffffffffffeae8
   119d4:    97a2                add     a5,a5,s0
   119d6:    639c                ld      a5,0(a5)
   119d8:    00e50cb3            add     s9,a0,a4
   119dc:    777d                lui     a4,0xfffff
   119de:    e388                sd      a0,0(a5)
   119e0:    77fd                lui     a5,0xfffff
   119e2:    ae078793            addi    a5,a5,-1312 # 0xffffffffffffeae0
   119e6:    97a2                add     a5,a5,s0
   119e8:    639c                ld      a5,0(a5)
   119ea:    ae070713            addi    a4,a4,-1312 # 0xffffffffffffeae0
   119ee:    9722                add     a4,a4,s0
   119f0:    0786                slli    a5,a5,0x1
   119f2:    e31c                sd      a5,0(a4)
   119f4:    4781                li      a5,0
   119f6:    bdf5                j       0x118f2
   119f8:    777d                lui     a4,0xfffff
   119fa:    ad870713            addi    a4,a4,-1320 # 0xffffffffffffead8
   119fe:    9722                add     a4,a4,s0
   11a00:    6318                ld      a4,0(a4)
   11a02:    c325                beqz    a4,0x11a62
   11a04:    777d                lui     a4,0xfffff
   11a06:    ae870713            addi    a4,a4,-1304 # 0xffffffffffffeae8
   11a0a:    fff90793            addi    a5,s2,-1
   11a0e:    9722                add     a4,a4,s0
   11a10:    e31c                sd      a5,0(a4)
   11a12:    4d81                li      s11,0
   11a14:    316010ef            jal     ra,0x12d2a
   11a18:    609c                ld      a5,0(s1)
   11a1a:    000d891b            sext.w  s2,s11
   11a1e:    0007c703            lbu     a4,0(a5)
   11a22:    953a                add     a0,a0,a4
   11a24:    00154703            lbu     a4,1(a0)
   11a28:    8b21                andi    a4,a4,8
   11a2a:    eb05                bnez    a4,0x11a5a
   11a2c:    0785                addi    a5,a5,1
   11a2e:    e09c                sd      a5,0(s1)
   11a30:    77fd                lui     a5,0xfffff
   11a32:    4498                lw      a4,8(s1)
   11a34:    ae878793            addi    a5,a5,-1304 # 0xffffffffffffeae8
   11a38:    97a2                add     a5,a5,s0
   11a3a:    639c                ld      a5,0(a5)
   11a3c:    fff7061b            addiw   a2,a4,-1
   11a40:    c490                sw      a2,8(s1)
   11a42:    2905                addiw   s2,s2,1
   11a44:    01b78b63            beq     a5,s11,0x11a5a
   11a48:    00c05463            blez    a2,0x11a50
   11a4c:    0d85                addi    s11,s11,1
   11a4e:    b7d9                j       0x11a14
   11a50:    85a6                mv      a1,s1
   11a52:    8556                mv      a0,s5
   11a54:    5b5010ef            jal     ra,0x13808
   11a58:    d975                beqz    a0,0x11a4c
   11a5a:    01490a3b            addw    s4,s2,s4
   11a5e:    b8ffe06f            j       0x105ec
   11a62:    76fd                lui     a3,0xfffff
   11a64:    ae868693            addi    a3,a3,-1304 # 0xffffffffffffeae8
   11a68:    008c8713            addi    a4,s9,8
   11a6c:    96a2                add     a3,a3,s0
   11a6e:    e298                sd      a4,0(a3)
   11a70:    0807f793            andi    a5,a5,128
   11a74:    000cb703            ld      a4,0(s9)
   11a78:    c7f5                beqz    a5,0x11b64
   11a7a:    77fd                lui     a5,0xfffff
   11a7c:    ae078793            addi    a5,a5,-1312 # 0xffffffffffffeae0
   11a80:    97a2                add     a5,a5,s0
   11a82:    e398                sd      a4,0(a5)
   11a84:    e319                bnez    a4,0x11a8a
   11a86:    c5bfe06f            j       0x106e0
   11a8a:    02000513            li      a0,32
   11a8e:    2bc010ef            jal     ra,0x12d4a
   11a92:    8daa                mv      s11,a0
   11a94:    e119                bnez    a0,0x11a9a
   11a96:    c69fe06f            j       0x106fe
   11a9a:    77fd                lui     a5,0xfffff
   11a9c:    ae078793            addi    a5,a5,-1312 # 0xffffffffffffeae0
   11aa0:    97a2                add     a5,a5,s0
   11aa2:    6398                ld      a4,0(a5)
   11aa4:    0089d783            lhu     a5,8(s3)
   11aa8:    00a9dc83            lhu     s9,10(s3)
   11aac:    e308                sd      a0,0(a4)
   11aae:    0007859b            sext.w  a1,a5
   11ab2:    04bcea63            bltu    s9,a1,0x11b06
   11ab6:    76fd                lui     a3,0xfffff
   11ab8:    ad868693            addi    a3,a3,-1320 # 0xffffffffffffead8
   11abc:    96a2                add     a3,a3,s0
   11abe:    6641                lui     a2,0x10
   11ac0:    e298                sd      a4,0(a3)
   11ac2:    1659                addi    a2,a2,-10
   11ac4:    00b67463            bgeu    a2,a1,0x11acc
   11ac8:    c3dfe06f            j       0x10704
   11acc:    777d                lui     a4,0xfffff
   11ace:    0009b503            ld      a0,0(s3)
   11ad2:    27a1                addiw   a5,a5,8
   11ad4:    ae070713            addi    a4,a4,-1312 # 0xffffffffffffeae0
   11ad8:    9722                add     a4,a4,s0
   11ada:    00379593            slli    a1,a5,0x3
   11ade:    e31c                sd      a5,0(a4)
   11ae0:    13f010ef            jal     ra,0x1341e
   11ae4:    e119                bnez    a0,0x11aea
   11ae6:    c1ffe06f            j       0x10704
   11aea:    77fd                lui     a5,0xfffff
   11aec:    ae078793            addi    a5,a5,-1312 # 0xffffffffffffeae0
   11af0:    97a2                add     a5,a5,s0
   11af2:    639c                ld      a5,0(a5)
   11af4:    00a9b023            sd      a0,0(s3)
   11af8:    00f99423            sh      a5,8(s3)
   11afc:    77fd                lui     a5,0xfffff
   11afe:    ad878793            addi    a5,a5,-1320 # 0xffffffffffffead8
   11b02:    97a2                add     a5,a5,s0
   11b04:    6398                ld      a4,0(a5)
   11b06:    0009b783            ld      a5,0(s3)
   11b0a:    001c861b            addiw   a2,s9,1
   11b0e:    0c8e                slli    s9,s9,0x3
   11b10:    9cbe                add     s9,s9,a5
   11b12:    00ecb023            sd      a4,0(s9)
   11b16:    00c99523            sh      a2,10(s3)
   11b1a:    8cba                mv      s9,a4
   11b1c:    876e                mv      a4,s11
   11b1e:    02000d93            li      s11,32
   11b22:    86ba                mv      a3,a4
   11b24:    77fd                lui     a5,0xfffff
   11b26:    ad878793            addi    a5,a5,-1320 # 0xffffffffffffead8
   11b2a:    97a2                add     a5,a5,s0
   11b2c:    e394                sd      a3,0(a5)
   11b2e:    77fd                lui     a5,0xfffff
   11b30:    ae078793            addi    a5,a5,-1312 # 0xffffffffffffeae0
   11b34:    97a2                add     a5,a5,s0
   11b36:    e398                sd      a4,0(a5)
   11b38:    1f2010ef            jal     ra,0x12d2a
   11b3c:    608c                ld      a1,0(s1)
   11b3e:    777d                lui     a4,0xfffff
   11b40:    76fd                lui     a3,0xfffff
   11b42:    0005c783            lbu     a5,0(a1)
   11b46:    ae070713            addi    a4,a4,-1312 # 0xffffffffffffeae0
   11b4a:    ad868693            addi    a3,a3,-1320 # 0xffffffffffffead8
   11b4e:    953e                add     a0,a0,a5
   11b50:    00154783            lbu     a5,1(a0)
   11b54:    9722                add     a4,a4,s0
   11b56:    96a2                add     a3,a3,s0
   11b58:    8ba1                andi    a5,a5,8
   11b5a:    6318                ld      a4,0(a4)
   11b5c:    6294                ld      a3,0(a3)
   11b5e:    c791                beqz    a5,0x11b6a
   11b60:    87ba                mv      a5,a4
   11b62:    a871                j       0x11bfe
   11b64:    4d81                li      s11,0
   11b66:    4c81                li      s9,0
   11b68:    bf6d                j       0x11b22
   11b6a:    449c                lw      a5,8(s1)
   11b6c:    37fd                addiw   a5,a5,-1
   11b6e:    c49c                sw      a5,8(s1)
   11b70:    00158793            addi    a5,a1,1
   11b74:    e09c                sd      a5,0(s1)
   11b76:    0005c583            lbu     a1,0(a1)
   11b7a:    00170793            addi    a5,a4,1
   11b7e:    00b70023            sb      a1,0(a4)
   11b82:    020c8d63            beqz    s9,0x11bbc
   11b86:    40d78733            sub     a4,a5,a3
   11b8a:    03b76963            bltu    a4,s11,0x11bbc
   11b8e:    77fd                lui     a5,0xfffff
   11b90:    ae078793            addi    a5,a5,-1312 # 0xffffffffffffeae0
   11b94:    0d86                slli    s11,s11,0x1
   11b96:    97a2                add     a5,a5,s0
   11b98:    8536                mv      a0,a3
   11b9a:    85ee                mv      a1,s11
   11b9c:    e398                sd      a4,0(a5)
   11b9e:    081010ef            jal     ra,0x1341e
   11ba2:    86aa                mv      a3,a0
   11ba4:    e119                bnez    a0,0x11baa
   11ba6:    b59fe06f            j       0x106fe
   11baa:    77fd                lui     a5,0xfffff
   11bac:    ae078793            addi    a5,a5,-1312 # 0xffffffffffffeae0
   11bb0:    97a2                add     a5,a5,s0
   11bb2:    6398                ld      a4,0(a5)
   11bb4:    00acb023            sd      a0,0(s9)
   11bb8:    00e507b3            add     a5,a0,a4
   11bbc:    197d                addi    s2,s2,-1
   11bbe:    04090063            beqz    s2,0x11bfe
   11bc2:    4498                lw      a4,8(s1)
   11bc4:    00e05463            blez    a4,0x11bcc
   11bc8:    873e                mv      a4,a5
   11bca:    bfa9                j       0x11b24
   11bcc:    777d                lui     a4,0xfffff
   11bce:    ad870713            addi    a4,a4,-1320 # 0xffffffffffffead8
   11bd2:    9722                add     a4,a4,s0
   11bd4:    e314                sd      a3,0(a4)
   11bd6:    777d                lui     a4,0xfffff
   11bd8:    ae070713            addi    a4,a4,-1312 # 0xffffffffffffeae0
   11bdc:    9722                add     a4,a4,s0
   11bde:    85a6                mv      a1,s1
   11be0:    8556                mv      a0,s5
   11be2:    e31c                sd      a5,0(a4)
   11be4:    425010ef            jal     ra,0x13808
   11be8:    77fd                lui     a5,0xfffff
   11bea:    777d                lui     a4,0xfffff
   11bec:    ae078793            addi    a5,a5,-1312 # 0xffffffffffffeae0
   11bf0:    ad870713            addi    a4,a4,-1320 # 0xffffffffffffead8
   11bf4:    97a2                add     a5,a5,s0
   11bf6:    9722                add     a4,a4,s0
   11bf8:    639c                ld      a5,0(a5)
   11bfa:    6314                ld      a3,0(a4)
   11bfc:    d571                beqz    a0,0x11bc8
   11bfe:    00078023            sb      zero,0(a5)
   11c02:    40d78933            sub     s2,a5,a3
   11c06:    000c8d63            beqz    s9,0x11c20
   11c0a:    00190593            addi    a1,s2,1
   11c0e:    01b5f963            bgeu    a1,s11,0x11c20
   11c12:    000cb503            ld      a0,0(s9)
   11c16:    009010ef            jal     ra,0x1341e
   11c1a:    c119                beqz    a0,0x11c20
   11c1c:    00acb023            sd      a0,0(s9)
   11c20:    01490a3b            addw    s4,s2,s4
   11c24:    bdcff06f            j       0x11000
   11c28:    6685                lui     a3,0x1
   11c2a:    fff90713            addi    a4,s2,-1
   11c2e:    36c68593            addi    a1,a3,876 # 0x136c
   11c32:    4601                li      a2,0
   11c34:    00e5f963            bgeu    a1,a4,0x11c46
   11c38:    767d                lui     a2,0xfffff
   11c3a:    c936061b            addiw   a2,a2,-877
   11c3e:    0126063b            addw    a2,a2,s2
   11c42:    36d68913            addi    s2,a3,877
   11c46:    6885                lui     a7,0x1
   11c48:    d8088713            addi    a4,a7,-640 # 0xd80
   11c4c:    8fd9                or      a5,a5,a4
   11c4e:    777d                lui     a4,0xfffff
   11c50:    ae870713            addi    a4,a4,-1304 # 0xffffffffffffeae8
   11c54:    9722                add     a4,a4,s0
   11c56:    00073023            sd      zero,0(a4)
   11c5a:    f9040693            addi    a3,s0,-112
   11c5e:    c90b8713            addi    a4,s7,-880
   11c62:    6875                lui     a6,0x1d
   11c64:    00e68db3            add     s11,a3,a4
   11c68:    03900e93            li      t4,57
   11c6c:    05800e13            li      t3,88
   11c70:    47fb8313            addi    t1,s7,1151
   11c74:    08080813            addi    a6,a6,128 # 0x1d080
   11c78:    80088893            addi    a7,a7,-2048
   11c7c:    608c                ld      a1,0(s1)
   11c7e:    0005c683            lbu     a3,0(a1)
   11c82:    0cdeef63            bltu    t4,a3,0x11d60
   11c86:    03800513            li      a0,56
   11c8a:    18a6f463            bgeu    a3,a0,0x11e12
   11c8e:    03000513            li      a0,48
   11c92:    10a68c63            beq     a3,a0,0x11daa
   11c96:    16d56763            bltu    a0,a3,0x11e04
   11c9a:    02b00513            li      a0,43
   11c9e:    18a68263            beq     a3,a0,0x11e22
   11ca2:    02d00513            li      a0,45
   11ca6:    16a68e63            beq     a3,a0,0x11e22
   11caa:    1007f693            andi    a3,a5,256
   11cae:    c6a1                beqz    a3,0x11cf6
   11cb0:    c90b8693            addi    a3,s7,-880
   11cb4:    f9040713            addi    a4,s0,-112
   11cb8:    96ba                add     a3,a3,a4
   11cba:    03b6f563            bgeu    a3,s11,0x11ce4
   11cbe:    fffdc583            lbu     a1,-1(s11)
   11cc2:    777d                lui     a4,0xfffff
   11cc4:    ae070713            addi    a4,a4,-1312 # 0xffffffffffffeae0
   11cc8:    9722                add     a4,a4,s0
   11cca:    8626                mv      a2,s1
   11ccc:    8556                mv      a0,s5
   11cce:    e31c                sd      a5,0(a4)
   11cd0:    311040ef            jal     ra,0x167e0
   11cd4:    77fd                lui     a5,0xfffff
   11cd6:    ae078793            addi    a5,a5,-1312 # 0xffffffffffffeae0
   11cda:    97a2                add     a5,a5,s0
   11cdc:    639c                ld      a5,0(a5)
   11cde:    fffd8913            addi    s2,s11,-1
   11ce2:    8dca                mv      s11,s2
   11ce4:    c90b8693            addi    a3,s7,-880
   11ce8:    f9040713            addi    a4,s0,-112
   11cec:    96ba                add     a3,a3,a4
   11cee:    00dd9463            bne     s11,a3,0x11cf6
   11cf2:    9effe06f            j       0x106e0
   11cf6:    777d                lui     a4,0xfffff
   11cf8:    ad870713            addi    a4,a4,-1320 # 0xffffffffffffead8
   11cfc:    9722                add     a4,a4,s0
   11cfe:    0107f693            andi    a3,a5,16
   11d02:    e31c                sd      a5,0(a4)
   11d04:    18069663            bnez    a3,0x11e90
   11d08:    f9040793            addi    a5,s0,-112
   11d0c:    c90b8813            addi    a6,s7,-880
   11d10:    983e                add     a6,a6,a5
   11d12:    77fd                lui     a5,0xfffff
   11d14:    ae078793            addi    a5,a5,-1312 # 0xffffffffffffeae0
   11d18:    97a2                add     a5,a5,s0
   11d1a:    0107b023            sd      a6,0(a5)
   11d1e:    77fd                lui     a5,0xfffff
   11d20:    af078793            addi    a5,a5,-1296 # 0xffffffffffffeaf0
   11d24:    97a2                add     a5,a5,s0
   11d26:    639c                ld      a5,0(a5)
   11d28:    86da                mv      a3,s6
   11d2a:    85c2                mv      a1,a6
   11d2c:    4601                li      a2,0
   11d2e:    8556                mv      a0,s5
   11d30:    000d8023            sb      zero,0(s11)
   11d34:    9782                jalr    a5
   11d36:    77fd                lui     a5,0xfffff
   11d38:    ad878793            addi    a5,a5,-1320 # 0xffffffffffffead8
   11d3c:    97a2                add     a5,a5,s0
   11d3e:    639c                ld      a5,0(a5)
   11d40:    777d                lui     a4,0xfffff
   11d42:    ae070713            addi    a4,a4,-1312 # 0xffffffffffffeae0
   11d46:    9722                add     a4,a4,s0
   11d48:    0207f693            andi    a3,a5,32
   11d4c:    008c8913            addi    s2,s9,8
   11d50:    00073803            ld      a6,0(a4)
   11d54:    12068563            beqz    a3,0x11e7e
   11d58:    000cb783            ld      a5,0(s9)
   11d5c:    e388                sd      a0,0(a5)
   11d5e:    a23d                j       0x11e8c
   11d60:    03c68963            beq     a3,t3,0x11d92
   11d64:    00de6b63            bltu    t3,a3,0x11d7a
   11d68:    fbf6851b            addiw   a0,a3,-65
   11d6c:    0ff57513            andi    a0,a0,255
   11d70:    4f15                li      t5,5
   11d72:    f2af6ce3            bltu    t5,a0,0x11caa
   11d76:    4529                li      a0,10
   11d78:    a055                j       0x11e1c
   11d7a:    06100513            li      a0,97
   11d7e:    f2a6e6e3            bltu    a3,a0,0x11caa
   11d82:    06600513            li      a0,102
   11d86:    fed578e3            bgeu    a0,a3,0x11d76
   11d8a:    07800513            li      a0,120
   11d8e:    f0a69ee3            bne     a3,a0,0x11caa
   11d92:    6007f513            andi    a0,a5,1536
   11d96:    20000f13            li      t5,512
   11d9a:    f1e518e3            bne     a0,t5,0x11caa
   11d9e:    dff7f793            andi    a5,a5,-513
   11da2:    5007e793            ori     a5,a5,1280
   11da6:    4b41                li      s6,16
   11da8:    a831                j       0x11dc4
   11daa:    0117f533            and     a0,a5,a7
   11dae:    c919                beqz    a0,0x11dc4
   11db0:    000b1563            bnez    s6,0x11dba
   11db4:    2007e793            ori     a5,a5,512
   11db8:    4b21                li      s6,8
   11dba:    4007f513            andi    a0,a5,1024
   11dbe:    c519                beqz    a0,0x11dcc
   11dc0:    a7f7f793            andi    a5,a5,-1409
   11dc4:    00dd8023            sb      a3,0(s11)
   11dc8:    0d85                addi    s11,s11,1
   11dca:    a00d                j       0x11dec
   11dcc:    c7f7f793            andi    a5,a5,-897
   11dd0:    c219                beqz    a2,0x11dd6
   11dd2:    367d                addiw   a2,a2,-1
   11dd4:    0905                addi    s2,s2,1
   11dd6:    777d                lui     a4,0xfffff
   11dd8:    ae870713            addi    a4,a4,-1304 # 0xffffffffffffeae8
   11ddc:    9722                add     a4,a4,s0
   11dde:    6318                ld      a4,0(a4)
   11de0:    76fd                lui     a3,0xfffff
   11de2:    ae868693            addi    a3,a3,-1304 # 0xffffffffffffeae8
   11de6:    2705                addiw   a4,a4,1
   11de8:    96a2                add     a3,a3,s0
   11dea:    e298                sd      a4,0(a3)
   11dec:    4494                lw      a3,8(s1)
   11dee:    fff6851b            addiw   a0,a3,-1
   11df2:    c488                sw      a0,8(s1)
   11df4:    02a05e63            blez    a0,0x11e30
   11df8:    0585                addi    a1,a1,1
   11dfa:    e08c                sd      a1,0(s1)
   11dfc:    197d                addi    s2,s2,-1
   11dfe:    e6091fe3            bnez    s2,0x11c7c
   11e02:    b565                j       0x11caa
   11e04:    0b06                slli    s6,s6,0x1
   11e06:    9b42                add     s6,s6,a6
   11e08:    000b1b03            lh      s6,0(s6)
   11e0c:    0067f7b3            and     a5,a5,t1
   11e10:    bf55                j       0x11dc4
   11e12:    0b06                slli    s6,s6,0x1
   11e14:    9b42                add     s6,s6,a6
   11e16:    000b1b03            lh      s6,0(s6)
   11e1a:    4521                li      a0,8
   11e1c:    ff6548e3            blt     a0,s6,0x11e0c
   11e20:    b569                j       0x11caa
   11e22:    0807f513            andi    a0,a5,128
   11e26:    e80502e3            beqz    a0,0x11caa
   11e2a:    f7f7f793            andi    a5,a5,-129
   11e2e:    bf59                j       0x11dc4
   11e30:    777d                lui     a4,0xfffff
   11e32:    ad870713            addi    a4,a4,-1320 # 0xffffffffffffead8
   11e36:    9722                add     a4,a4,s0
   11e38:    e310                sd      a2,0(a4)
   11e3a:    777d                lui     a4,0xfffff
   11e3c:    ae070713            addi    a4,a4,-1312 # 0xffffffffffffeae0
   11e40:    9722                add     a4,a4,s0
   11e42:    85a6                mv      a1,s1
   11e44:    8556                mv      a0,s5
   11e46:    e31c                sd      a5,0(a4)
   11e48:    1c1010ef            jal     ra,0x13808
   11e4c:    777d                lui     a4,0xfffff
   11e4e:    ad870713            addi    a4,a4,-1320 # 0xffffffffffffead8
   11e52:    9722                add     a4,a4,s0
   11e54:    77fd                lui     a5,0xfffff
   11e56:    6310                ld      a2,0(a4)
   11e58:    777d                lui     a4,0xfffff
   11e5a:    ae078793            addi    a5,a5,-1312 # 0xffffffffffffeae0
   11e5e:    47f70313            addi    t1,a4,1151 # 0xfffffffffffff47f
   11e62:    6775                lui     a4,0x1d
   11e64:    97a2                add     a5,a5,s0
   11e66:    08070813            addi    a6,a4,128 # 0x1d080
   11e6a:    6705                lui     a4,0x1
   11e6c:    639c                ld      a5,0(a5)
   11e6e:    03900e93            li      t4,57
   11e72:    05800e13            li      t3,88
   11e76:    80070893            addi    a7,a4,-2048 # 0x800
   11e7a:    d149                beqz    a0,0x11dfc
   11e7c:    b53d                j       0x11caa
   11e7e:    0087f693            andi    a3,a5,8
   11e82:    ca8d                beqz    a3,0x11eb4
   11e84:    000cb783            ld      a5,0(s9)
   11e88:    00a78023            sb      a0,0(a5)
   11e8c:    2c05                addiw   s8,s8,1
   11e8e:    8cca                mv      s9,s2
   11e90:    f9040713            addi    a4,s0,-112
   11e94:    c90b8793            addi    a5,s7,-880
   11e98:    97ba                add     a5,a5,a4
   11e9a:    40fd8733            sub     a4,s11,a5
   11e9e:    77fd                lui     a5,0xfffff
   11ea0:    ae878793            addi    a5,a5,-1304 # 0xffffffffffffeae8
   11ea4:    97a2                add     a5,a5,s0
   11ea6:    639c                ld      a5,0(a5)
   11ea8:    01478a3b            addw    s4,a5,s4
   11eac:    00ea0a3b            addw    s4,s4,a4
   11eb0:    f3cfe06f            j       0x105ec
   11eb4:    0047f693            andi    a3,a5,4
   11eb8:    c691                beqz    a3,0x11ec4
   11eba:    000cb783            ld      a5,0(s9)
   11ebe:    00a79023            sh      a0,0(a5)
   11ec2:    b7e9                j       0x11e8c
   11ec4:    0017f693            andi    a3,a5,1
   11ec8:    e80698e3            bnez    a3,0x11d58
   11ecc:    8b89                andi    a5,a5,2
   11ece:    c795                beqz    a5,0x11efa
   11ed0:    777d                lui     a4,0xfffff
   11ed2:    af070713            addi    a4,a4,-1296 # 0xffffffffffffeaf0
   11ed6:    9722                add     a4,a4,s0
   11ed8:    6318                ld      a4,0(a4)
   11eda:    000157b7            lui     a5,0x15
   11ede:    1a278793            addi    a5,a5,418 # 0x151a2
   11ee2:    86da                mv      a3,s6
   11ee4:    4601                li      a2,0
   11ee6:    85c2                mv      a1,a6
   11ee8:    8556                mv      a0,s5
   11eea:    00f71563            bne     a4,a5,0x11ef4
   11eee:    130030ef            jal     ra,0x1501e
   11ef2:    b59d                j       0x11d58
   11ef4:    50b020ef            jal     ra,0x14bfe
   11ef8:    b585                j       0x11d58
   11efa:    000cb783            ld      a5,0(s9)
   11efe:    c388                sw      a0,0(a5)
   11f00:    b771                j       0x11e8c
   11f02:    04500513            li      a0,69
   11f06:    08a60f63            beq     a2,a0,0x11fa4
   11f0a:    02c56e63            bltu    a0,a2,0x11f46
   11f0e:    04100513            li      a0,65
   11f12:    16a60b63            beq     a2,a0,0x12088
   11f16:    77fd                lui     a5,0xfffff
   11f18:    ad078793            addi    a5,a5,-1328 # 0xffffffffffffead0
   11f1c:    97a2                add     a5,a5,s0
   11f1e:    639c                ld      a5,0(a5)
   11f20:    0007c503            lbu     a0,0(a5)
   11f24:    16c51463            bne     a0,a2,0x1208c
   11f28:    200df513            andi    a0,s11,512
   11f2c:    16050063            beqz    a0,0x1208c
   11f30:    d7fdf793            andi    a5,s11,-641
   11f34:    00078d9b            sext.w  s11,a5
   11f38:    77fd                lui     a5,0xfffff
   11f3a:    ae878793            addi    a5,a5,-1304 # 0xffffffffffffeae8
   11f3e:    97a2                add     a5,a5,s0
   11f40:    0107b023            sd      a6,0(a5)
   11f44:    a239                j       0x12052
   11f46:    04600513            li      a0,70
   11f4a:    18a60d63            beq     a2,a0,0x120e4
   11f4e:    04900513            li      a0,73
   11f52:    fca612e3            bne     a2,a0,0x11f16
   11f56:    18069163            bnez    a3,0x120d8
   11f5a:    12081b63            bnez    a6,0x12090
   11f5e:    700df513            andi    a0,s11,1792
   11f62:    13f51b63            bne     a0,t6,0x12098
   11f66:    87fdfd93            andi    s11,s11,-1921
   11f6a:    4685                li      a3,1
   11f6c:    a0dd                j       0x12052
   11f6e:    16560b63            beq     a2,t0,0x120e4
   11f72:    06c2ec63            bltu    t0,a2,0x11fea
   11f76:    05900513            li      a0,89
   11f7a:    08a60963            beq     a2,a0,0x1200c
   11f7e:    00c56b63            bltu    a0,a2,0x11f94
   11f82:    05400513            li      a0,84
   11f86:    f8a618e3            bne     a2,a0,0x11f16
   11f8a:    4519                li      a0,6
   11f8c:    10a69063            bne     a3,a0,0x1208c
   11f90:    469d                li      a3,7
   11f92:    a0c1                j       0x12052
   11f94:    06100513            li      a0,97
   11f98:    0ea60863            beq     a2,a0,0x12088
   11f9c:    06500513            li      a0,101
   11fa0:    f6a61be3            bne     a2,a0,0x11f16
   11fa4:    500df513            andi    a0,s11,1280
   11fa8:    00750763            beq     a0,t2,0x11fb6
   11fac:    400df513            andi    a0,s11,1024
   11fb0:    cd71                beqz    a0,0x1208c
   11fb2:    0e080363            beqz    a6,0x12098
   11fb6:    200df513            andi    a0,s11,512
   11fba:    e115                bnez    a0,0x11fde
   11fbc:    77fd                lui     a5,0xfffff
   11fbe:    ae878793            addi    a5,a5,-1304 # 0xffffffffffffeae8
   11fc2:    97a2                add     a5,a5,s0
   11fc4:    639c                ld      a5,0(a5)
   11fc6:    757d                lui     a0,0xfffff
   11fc8:    ae050513            addi    a0,a0,-1312 # 0xffffffffffffeae0
   11fcc:    40f807b3            sub     a5,a6,a5
   11fd0:    9522                add     a0,a0,s0
   11fd2:    e11c                sd      a5,0(a0)
   11fd4:    77fd                lui     a5,0xfffff
   11fd6:    ad878793            addi    a5,a5,-1320 # 0xffffffffffffead8
   11fda:    97a2                add     a5,a5,s0
   11fdc:    e398                sd      a4,0(a5)
   11fde:    87fdf793            andi    a5,s11,-1921
   11fe2:    1807ed93            ori     s11,a5,384
   11fe6:    4801                li      a6,0
   11fe8:    a0ad                j       0x12052
   11fea:    06e00513            li      a0,110
   11fee:    06a60663            beq     a2,a0,0x1205a
   11ff2:    00c56563            bltu    a0,a2,0x11ffc
   11ff6:    06900513            li      a0,105
   11ffa:    bfa1                j       0x11f52
   11ffc:    07400513            li      a0,116
   12000:    f8a605e3            beq     a2,a0,0x11f8a
   12004:    07900513            li      a0,121
   12008:    f0a617e3            bne     a2,a0,0x11f16
   1200c:    451d                li      a0,7
   1200e:    06a69f63            bne     a3,a0,0x1208c
   12012:    46a1                li      a3,8
   12014:    a83d                j       0x12052
   12016:    100df513            andi    a0,s11,256
   1201a:    c51d                beqz    a0,0x12048
   1201c:    f7fdfd93            andi    s11,s11,-129
   12020:    0805                addi    a6,a6,1
   12022:    00030463            beqz    t1,0x1202a
   12026:    337d                addiw   t1,t1,-1
   12028:    0905                addi    s2,s2,1
   1202a:    4490                lw      a2,8(s1)
   1202c:    197d                addi    s2,s2,-1
   1202e:    2a05                addiw   s4,s4,1
   12030:    fff6051b            addiw   a0,a2,-1
   12034:    c488                sw      a0,8(s1)
   12036:    0aa05f63            blez    a0,0x120f4
   1203a:    0585                addi    a1,a1,1
   1203c:    e08c                sd      a1,0(s1)
   1203e:    00090463            beqz    s2,0x12046
   12042:    ae9fe06f            j       0x10b2a
   12046:    a099                j       0x1208c
   12048:    00d88533            add     a0,a7,a3
   1204c:    e121                bnez    a0,0x1208c
   1204e:    e7fdfd93            andi    s11,s11,-385
   12052:    00c70023            sb      a2,0(a4)
   12056:    0705                addi    a4,a4,1
   12058:    bfc9                j       0x1202a
   1205a:    00089c63            bnez    a7,0x12072
   1205e:    00081c63            bnez    a6,0x12076
   12062:    700df513            andi    a0,s11,1792
   12066:    01f51863            bne     a0,t6,0x12076
   1206a:    87fdfd93            andi    s11,s11,-1921
   1206e:    4885                li      a7,1
   12070:    b7cd                j       0x12052
   12072:    07e88d63            beq     a7,t5,0x120ec
   12076:    01d68563            beq     a3,t4,0x12080
   1207a:    4791                li      a5,4
   1207c:    00f69863            bne     a3,a5,0x1208c
   12080:    2685                addiw   a3,a3,1
   12082:    0ff6f693            andi    a3,a3,255
   12086:    b7f1                j       0x12052
   12088:    07d88463            beq     a7,t4,0x120f0
   1208c:    00080663            beqz    a6,0x12098
   12090:    effdf793            andi    a5,s11,-257
   12094:    00078d9b            sext.w  s11,a5
   12098:    38fd                addiw   a7,a7,-1
   1209a:    4605                li      a2,1
   1209c:    0f166563            bltu    a2,a7,0x12186
   120a0:    797d                lui     s2,0xfffff
   120a2:    c9090913            addi    s2,s2,-880 # 0xffffffffffffec90
   120a6:    f9040793            addi    a5,s0,-112
   120aa:    993e                add     s2,s2,a5
   120ac:    00e96463            bltu    s2,a4,0x120b4
   120b0:    e30fe06f            j       0x106e0
   120b4:    fff74583            lbu     a1,-1(a4)
   120b8:    77fd                lui     a5,0xfffff
   120ba:    af878793            addi    a5,a5,-1288 # 0xffffffffffffeaf8
   120be:    177d                addi    a4,a4,-1
   120c0:    97a2                add     a5,a5,s0
   120c2:    8626                mv      a2,s1
   120c4:    8556                mv      a0,s5
   120c6:    e398                sd      a4,0(a5)
   120c8:    718040ef            jal     ra,0x167e0
   120cc:    77fd                lui     a5,0xfffff
   120ce:    af878793            addi    a5,a5,-1288 # 0xffffffffffffeaf8
   120d2:    97a2                add     a5,a5,s0
   120d4:    6398                ld      a4,0(a5)
   120d6:    bfd9                j       0x120ac
   120d8:    ffd6851b            addiw   a0,a3,-3
   120dc:    0fd57513            andi    a0,a0,253
   120e0:    f555                bnez    a0,0x1208c
   120e2:    bf79                j       0x12080
   120e4:    fbe694e3            bne     a3,t5,0x1208c
   120e8:    468d                li      a3,3
   120ea:    b7a5                j       0x12052
   120ec:    488d                li      a7,3
   120ee:    b795                j       0x12052
   120f0:    4889                li      a7,2
   120f2:    b785                j       0x12052
   120f4:    77fd                lui     a5,0xfffff
   120f6:    a9878793            addi    a5,a5,-1384 # 0xffffffffffffea98
   120fa:    97a2                add     a5,a5,s0
   120fc:    e394                sd      a3,0(a5)
   120fe:    77fd                lui     a5,0xfffff
   12100:    ab078793            addi    a5,a5,-1360 # 0xffffffffffffeab0
   12104:    97a2                add     a5,a5,s0
   12106:    0117b023            sd      a7,0(a5)
   1210a:    77fd                lui     a5,0xfffff
   1210c:    ab878793            addi    a5,a5,-1352 # 0xffffffffffffeab8
   12110:    97a2                add     a5,a5,s0
   12112:    0067b023            sd      t1,0(a5)
   12116:    77fd                lui     a5,0xfffff
   12118:    ac078793            addi    a5,a5,-1344 # 0xffffffffffffeac0
   1211c:    97a2                add     a5,a5,s0
   1211e:    0107b023            sd      a6,0(a5)
   12122:    77fd                lui     a5,0xfffff
   12124:    ac878793            addi    a5,a5,-1336 # 0xffffffffffffeac8
   12128:    97a2                add     a5,a5,s0
   1212a:    85a6                mv      a1,s1
   1212c:    8556                mv      a0,s5
   1212e:    e398                sd      a4,0(a5)
   12130:    6d8010ef            jal     ra,0x13808
   12134:    77fd                lui     a5,0xfffff
   12136:    ac878793            addi    a5,a5,-1336 # 0xffffffffffffeac8
   1213a:    97a2                add     a5,a5,s0
   1213c:    6398                ld      a4,0(a5)
   1213e:    77fd                lui     a5,0xfffff
   12140:    ac078793            addi    a5,a5,-1344 # 0xffffffffffffeac0
   12144:    97a2                add     a5,a5,s0
   12146:    0007b803            ld      a6,0(a5)
   1214a:    77fd                lui     a5,0xfffff
   1214c:    ab878793            addi    a5,a5,-1352 # 0xffffffffffffeab8
   12150:    97a2                add     a5,a5,s0
   12152:    0007b303            ld      t1,0(a5)
   12156:    77fd                lui     a5,0xfffff
   12158:    ab078793            addi    a5,a5,-1360 # 0xffffffffffffeab0
   1215c:    97a2                add     a5,a5,s0
   1215e:    0007b883            ld      a7,0(a5)
   12162:    77fd                lui     a5,0xfffff
   12164:    a9878793            addi    a5,a5,-1384 # 0xffffffffffffea98
   12168:    97a2                add     a5,a5,s0
   1216a:    6394                ld      a3,0(a5)
   1216c:    04e00e13            li      t3,78
   12170:    4e85                li      t4,1
   12172:    4f09                li      t5,2
   12174:    70000f93            li      t6,1792
   12178:    40000393            li      t2,1024
   1217c:    06600293            li      t0,102
   12180:    ea050fe3            beqz    a0,0x1203e
   12184:    b721                j       0x1208c
   12186:    fff6861b            addiw   a2,a3,-1
   1218a:    4599                li      a1,6
   1218c:    0cc5e163            bltu    a1,a2,0x1224e
   12190:    4609                li      a2,2
   12192:    10d66063            bltu    a2,a3,0x12292
   12196:    797d                lui     s2,0xfffff
   12198:    c9090913            addi    s2,s2,-880 # 0xffffffffffffec90
   1219c:    f9040793            addi    a5,s0,-112
   121a0:    993e                add     s2,s2,a5
   121a2:    00e96463            bltu    s2,a4,0x121aa
   121a6:    d3afe06f            j       0x106e0
   121aa:    fff74583            lbu     a1,-1(a4)
   121ae:    77fd                lui     a5,0xfffff
   121b0:    af878793            addi    a5,a5,-1288 # 0xffffffffffffeaf8
   121b4:    177d                addi    a4,a4,-1
   121b6:    97a2                add     a5,a5,s0
   121b8:    8626                mv      a2,s1
   121ba:    8556                mv      a0,s5
   121bc:    e398                sd      a4,0(a5)
   121be:    622040ef            jal     ra,0x167e0
   121c2:    77fd                lui     a5,0xfffff
   121c4:    af878793            addi    a5,a5,-1288 # 0xffffffffffffeaf8
   121c8:    97a2                add     a5,a5,s0
   121ca:    6398                ld      a4,0(a5)
   121cc:    bfd9                j       0x121a2
   121ce:    77fd                lui     a5,0xfffff
   121d0:    ab878793            addi    a5,a5,-1352 # 0xffffffffffffeab8
   121d4:    97a2                add     a5,a5,s0
   121d6:    0117b023            sd      a7,0(a5)
   121da:    77fd                lui     a5,0xfffff
   121dc:    ac078793            addi    a5,a5,-1344 # 0xffffffffffffeac0
   121e0:    97a2                add     a5,a5,s0
   121e2:    e394                sd      a3,0(a5)
   121e4:    77fd                lui     a5,0xfffff
   121e6:    ac878793            addi    a5,a5,-1336 # 0xffffffffffffeac8
   121ea:    97a2                add     a5,a5,s0
   121ec:    197d                addi    s2,s2,-1
   121ee:    0107b023            sd      a6,0(a5)
   121f2:    00094583            lbu     a1,0(s2)
   121f6:    77fd                lui     a5,0xfffff
   121f8:    ad078793            addi    a5,a5,-1328 # 0xffffffffffffead0
   121fc:    97a2                add     a5,a5,s0
   121fe:    8626                mv      a2,s1
   12200:    8556                mv      a0,s5
   12202:    e398                sd      a4,0(a5)
   12204:    5dc040ef            jal     ra,0x167e0
   12208:    77fd                lui     a5,0xfffff
   1220a:    ad078793            addi    a5,a5,-1328 # 0xffffffffffffead0
   1220e:    97a2                add     a5,a5,s0
   12210:    6398                ld      a4,0(a5)
   12212:    77fd                lui     a5,0xfffff
   12214:    ac878793            addi    a5,a5,-1336 # 0xffffffffffffeac8
   12218:    97a2                add     a5,a5,s0
   1221a:    0007b803            ld      a6,0(a5)
   1221e:    77fd                lui     a5,0xfffff
   12220:    ac078793            addi    a5,a5,-1344 # 0xffffffffffffeac0
   12224:    97a2                add     a5,a5,s0
   12226:    6394                ld      a3,0(a5)
   12228:    77fd                lui     a5,0xfffff
   1222a:    ab878793            addi    a5,a5,-1352 # 0xffffffffffffeab8
   1222e:    97a2                add     a5,a5,s0
   12230:    0007b883            ld      a7,0(a5)
   12234:    0119063b            addw    a2,s2,a7
   12238:    430d                li      t1,3
   1223a:    0ff67613            andi    a2,a2,255
   1223e:    f8c368e3            bltu    t1,a2,0x121ce
   12242:    36f5                addiw   a3,a3,-3
   12244:    0ff6f693            andi    a3,a3,255
   12248:    8f15                sub     a4,a4,a3
   1224a:    40da0a3b            subw    s4,s4,a3
   1224e:    100df693            andi    a3,s11,256
   12252:    c2e5                beqz    a3,0x12332
   12254:    400df693            andi    a3,s11,1024
   12258:    c2b9                beqz    a3,0x1229e
   1225a:    797d                lui     s2,0xfffff
   1225c:    c9090913            addi    s2,s2,-880 # 0xffffffffffffec90
   12260:    f9040793            addi    a5,s0,-112
   12264:    993e                add     s2,s2,a5
   12266:    00e96463            bltu    s2,a4,0x1226e
   1226a:    c76fe06f            j       0x106e0
   1226e:    fff74583            lbu     a1,-1(a4)
   12272:    77fd                lui     a5,0xfffff
   12274:    af878793            addi    a5,a5,-1288 # 0xffffffffffffeaf8
   12278:    177d                addi    a4,a4,-1
   1227a:    97a2                add     a5,a5,s0
   1227c:    8626                mv      a2,s1
   1227e:    8556                mv      a0,s5
   12280:    e398                sd      a4,0(a5)
   12282:    55e040ef            jal     ra,0x167e0
   12286:    77fd                lui     a5,0xfffff
   12288:    af878793            addi    a5,a5,-1288 # 0xffffffffffffeaf8
   1228c:    97a2                add     a5,a5,s0
   1228e:    6398                ld      a4,0(a5)
   12290:    bfd9                j       0x12266
   12292:    40e688bb            subw    a7,a3,a4
   12296:    893a                mv      s2,a4
   12298:    0ff8f893            andi    a7,a7,255
   1229c:    bf61                j       0x12234
   1229e:    77fd                lui     a5,0xfffff
   122a0:    ac878793            addi    a5,a5,-1336 # 0xffffffffffffeac8
   122a4:    fff74583            lbu     a1,-1(a4)
   122a8:    97a2                add     a5,a5,s0
   122aa:    e398                sd      a4,0(a5)
   122ac:    06500613            li      a2,101
   122b0:    fff70913            addi    s2,a4,-1
   122b4:    fffa069b            addiw   a3,s4,-1
   122b8:    04c58163            beq     a1,a2,0x122fa
   122bc:    04500613            li      a2,69
   122c0:    02c58d63            beq     a1,a2,0x122fa
   122c4:    77fd                lui     a5,0xfffff
   122c6:    ad078793            addi    a5,a5,-1328 # 0xffffffffffffead0
   122ca:    97a2                add     a5,a5,s0
   122cc:    8626                mv      a2,s1
   122ce:    8556                mv      a0,s5
   122d0:    0107b023            sd      a6,0(a5)
   122d4:    50c040ef            jal     ra,0x167e0
   122d8:    77fd                lui     a5,0xfffff
   122da:    ac878793            addi    a5,a5,-1336 # 0xffffffffffffeac8
   122de:    97a2                add     a5,a5,s0
   122e0:    6398                ld      a4,0(a5)
   122e2:    77fd                lui     a5,0xfffff
   122e4:    ad078793            addi    a5,a5,-1328 # 0xffffffffffffead0
   122e8:    97a2                add     a5,a5,s0
   122ea:    ffe74583            lbu     a1,-2(a4)
   122ee:    0007b803            ld      a6,0(a5)
   122f2:    ffe70913            addi    s2,a4,-2
   122f6:    ffea069b            addiw   a3,s4,-2
   122fa:    77fd                lui     a5,0xfffff
   122fc:    ac878793            addi    a5,a5,-1336 # 0xffffffffffffeac8
   12300:    97a2                add     a5,a5,s0
   12302:    0107b023            sd      a6,0(a5)
   12306:    77fd                lui     a5,0xfffff
   12308:    ad078793            addi    a5,a5,-1328 # 0xffffffffffffead0
   1230c:    97a2                add     a5,a5,s0
   1230e:    8626                mv      a2,s1
   12310:    8556                mv      a0,s5
   12312:    e394                sd      a3,0(a5)
   12314:    4cc040ef            jal     ra,0x167e0
   12318:    77fd                lui     a5,0xfffff
   1231a:    ad078793            addi    a5,a5,-1328 # 0xffffffffffffead0
   1231e:    97a2                add     a5,a5,s0
   12320:    6394                ld      a3,0(a5)
   12322:    77fd                lui     a5,0xfffff
   12324:    ac878793            addi    a5,a5,-1336 # 0xffffffffffffeac8
   12328:    97a2                add     a5,a5,s0
   1232a:    0007b803            ld      a6,0(a5)
   1232e:    8a36                mv      s4,a3
   12330:    874a                mv      a4,s2
   12332:    010df693            andi    a3,s11,16
   12336:    c299                beqz    a3,0x1233c
   12338:    ab4fe06f            j       0x105ec
   1233c:    00070023            sb      zero,0(a4)
   12340:    600df693            andi    a3,s11,1536
   12344:    40000613            li      a2,1024
   12348:    77fd                lui     a5,0xfffff
   1234a:    04c69b63            bne     a3,a2,0x123a0
   1234e:    ae878793            addi    a5,a5,-1304 # 0xffffffffffffeae8
   12352:    97a2                add     a5,a5,s0
   12354:    639c                ld      a5,0(a5)
   12356:    41078633            sub     a2,a5,a6
   1235a:    77fd                lui     a5,0xfffff
   1235c:    ae878793            addi    a5,a5,-1304 # 0xffffffffffffeae8
   12360:    97a2                add     a5,a5,s0
   12362:    639c                ld      a5,0(a5)
   12364:    07079b63            bne     a5,a6,0x123da
   12368:    002df913            andi    s2,s11,2
   1236c:    c90b8593            addi    a1,s7,-880
   12370:    f9040793            addi    a5,s0,-112
   12374:    2901                sext.w  s2,s2
   12376:    4601                li      a2,0
   12378:    95be                add     a1,a1,a5
   1237a:    8556                mv      a0,s5
   1237c:    06090d63            beqz    s2,0x123f6
   12380:    6be020ef            jal     ra,0x14a3e
   12384:    f2000553            fmv.d.x    fa0,zero
   12388:    001df793            andi    a5,s11,1
   1238c:    008c8713            addi    a4,s9,8
   12390:    000cbc83            ld      s9,0(s9)
   12394:    c7b5                beqz    a5,0x12400
   12396:    00acb027            fsd     fa0,0(s9)
   1239a:    2c05                addiw   s8,s8,1
   1239c:    e20fe06f            j       0x109bc
   123a0:    ae078793            addi    a5,a5,-1312
   123a4:    97a2                add     a5,a5,s0
   123a6:    639c                ld      a5,0(a5)
   123a8:    d3e1                beqz    a5,0x12368
   123aa:    77fd                lui     a5,0xfffff
   123ac:    ad878793            addi    a5,a5,-1320 # 0xffffffffffffead8
   123b0:    97a2                add     a5,a5,s0
   123b2:    639c                ld      a5,0(a5)
   123b4:    4601                li      a2,0
   123b6:    46a9                li      a3,10
   123b8:    00178593            addi    a1,a5,1
   123bc:    8556                mv      a0,s5
   123be:    1cf020ef            jal     ra,0x14d8c
   123c2:    77fd                lui     a5,0xfffff
   123c4:    ae078793            addi    a5,a5,-1312 # 0xffffffffffffeae0
   123c8:    97a2                add     a5,a5,s0
   123ca:    639c                ld      a5,0(a5)
   123cc:    40f50633            sub     a2,a0,a5
   123d0:    77fd                lui     a5,0xfffff
   123d2:    ad878793            addi    a5,a5,-1320 # 0xffffffffffffead8
   123d6:    97a2                add     a5,a5,s0
   123d8:    6398                ld      a4,0(a5)
   123da:    f7940693            addi    a3,s0,-135
   123de:    00d76463            bltu    a4,a3,0x123e6
   123e2:    f7840713            addi    a4,s0,-136
   123e6:    0001d5b7            lui     a1,0x1d
   123ea:    0a858593            addi    a1,a1,168 # 0x1d0a8
   123ee:    853a                mv      a0,a4
   123f0:    66e010ef            jal     ra,0x13a5e
   123f4:    bf95                j       0x12368
   123f6:    516020ef            jal     ra,0x1490c
   123fa:    4501                li      a0,0
   123fc:    4581                li      a1,0
   123fe:    b769                j       0x12388
   12400:    00090763            beqz    s2,0x1240e
   12404:    00acb023            sd      a0,0(s9)
   12408:    00bcb423            sd      a1,8(s9)
   1240c:    b779                j       0x1239a
   1240e:    a2a527d3            feq.d    a5,fa0,fa0
   12412:    e38d                bnez    a5,0x12434
   12414:    77fd                lui     a5,0xfffff
   12416:    ae878793            addi    a5,a5,-1304 # 0xffffffffffffeae8
   1241a:    97a2                add     a5,a5,s0
   1241c:    4501                li      a0,0
   1241e:    e398                sd      a4,0(a5)
   12420:    5f8010ef            jal     ra,0x13a18
   12424:    77fd                lui     a5,0xfffff
   12426:    ae878793            addi    a5,a5,-1304 # 0xffffffffffffeae8
   1242a:    97a2                add     a5,a5,s0
   1242c:    00aca027            fsw     fa0,0(s9)
   12430:    6398                ld      a4,0(a5)
   12432:    b7a5                j       0x1239a
   12434:    40157553            fcvt.s.d    fa0,fa0
   12438:    00aca027            fsw     fa0,0(s9)
   1243c:    bfb9                j       0x1239a
   1243e:    00349793            slli    a5,s1,0x3
   12442:    993e                add     s2,s2,a5
   12444:    00093783            ld      a5,0(s2)
   12448:    0485                addi    s1,s1,1
   1244a:    6388                ld      a0,0(a5)
   1244c:    109000ef            jal     ra,0x12d54
   12450:    00093783            ld      a5,0(s2)
   12454:    0007b023            sd      zero,0(a5)
   12458:    00a9d703            lhu     a4,10(s3)
   1245c:    0004879b            sext.w  a5,s1
   12460:    0009b903            ld      s2,0(s3)
   12464:    fce7cde3            blt     a5,a4,0x1243e
   12468:    5c7d                li      s8,-1
   1246a:    c78fe06f            j       0x108e2
   1246e:    7179                addi    sp,sp,-48
   12470:    f022                sd      s0,32(sp)
   12472:    8781b403            ld      s0,-1928(gp)
   12476:    ec26                sd      s1,24(sp)
   12478:    f406                sd      ra,40(sp)
   1247a:    84aa                mv      s1,a0
   1247c:    86b2                mv      a3,a2
   1247e:    c811                beqz    s0,0x12492
   12480:    483c                lw      a5,80(s0)
   12482:    eb81                bnez    a5,0x12492
   12484:    8522                mv      a0,s0
   12486:    e02e                sd      a1,0(sp)
   12488:    e432                sd      a2,8(sp)
   1248a:    22e000ef            jal     ra,0x126b8
   1248e:    66a2                ld      a3,8(sp)
   12490:    6582                ld      a1,0(sp)
   12492:    8522                mv      a0,s0
   12494:    7402                ld      s0,32(sp)
   12496:    70a2                ld      ra,40(sp)
   12498:    862e                mv      a2,a1
   1249a:    85a6                mv      a1,s1
   1249c:    64e2                ld      s1,24(sp)
   1249e:    6145                addi    sp,sp,48
   124a0:    89efe06f            j       0x1053e
   124a4:    86b2                mv      a3,a2
   124a6:    862e                mv      a2,a1
   124a8:    85aa                mv      a1,a0
   124aa:    8781b503            ld      a0,-1928(gp)
   124ae:    890fe06f            j       0x1053e
   124b2:    7179                addi    sp,sp,-48
   124b4:    f022                sd      s0,32(sp)
   124b6:    f406                sd      ra,40(sp)
   124b8:    842a                mv      s0,a0
   124ba:    c919                beqz    a0,0x124d0
   124bc:    493c                lw      a5,80(a0)
   124be:    eb89                bnez    a5,0x124d0
   124c0:    ec36                sd      a3,24(sp)
   124c2:    e832                sd      a2,16(sp)
   124c4:    e42e                sd      a1,8(sp)
   124c6:    1f2000ef            jal     ra,0x126b8
   124ca:    66e2                ld      a3,24(sp)
   124cc:    6642                ld      a2,16(sp)
   124ce:    65a2                ld      a1,8(sp)
   124d0:    8522                mv      a0,s0
   124d2:    7402                ld      s0,32(sp)
   124d4:    70a2                ld      ra,40(sp)
   124d6:    6145                addi    sp,sp,48
   124d8:    866fe06f            j       0x1053e
   124dc:    8681b703            ld      a4,-1944(gp)
   124e0:    832a                mv      t1,a0
   124e2:    1f873783            ld      a5,504(a4)
   124e6:    e789                bnez    a5,0x124f0
   124e8:    20070793            addi    a5,a4,512
   124ec:    1ef73c23            sd      a5,504(a4)
   124f0:    4798                lw      a4,8(a5)
   124f2:    487d                li      a6,31
   124f4:    557d                li      a0,-1
   124f6:    04e84463            blt     a6,a4,0x1253e
   124fa:    02030a63            beqz    t1,0x1252e
   124fe:    00371813            slli    a6,a4,0x3
   12502:    983e                add     a6,a6,a5
   12504:    10c83823            sd      a2,272(a6)
   12508:    3107a883            lw      a7,784(a5)
   1250c:    4605                li      a2,1
   1250e:    00e6163b            sllw    a2,a2,a4
   12512:    00c8e8b3            or      a7,a7,a2
   12516:    3117a823            sw      a7,784(a5)
   1251a:    20d83823            sd      a3,528(a6)
   1251e:    4689                li      a3,2
   12520:    00d31763            bne     t1,a3,0x1252e
   12524:    3147a683            lw      a3,788(a5)
   12528:    8e55                or      a2,a2,a3
   1252a:    30c7aa23            sw      a2,788(a5)
   1252e:    0017069b            addiw   a3,a4,1
   12532:    0709                addi    a4,a4,2
   12534:    070e                slli    a4,a4,0x3
   12536:    c794                sw      a3,8(a5)
   12538:    97ba                add     a5,a5,a4
   1253a:    e38c                sd      a1,0(a5)
   1253c:    4501                li      a0,0
   1253e:    8082                ret

   12540:    715d                addi    sp,sp,-80
   12542:    f44e                sd      s3,40(sp)
   12544:    8681b983            ld      s3,-1944(gp)
   12548:    f052                sd      s4,32(sp)
   1254a:    ec56                sd      s5,24(sp)
   1254c:    e85a                sd      s6,16(sp)
   1254e:    e486                sd      ra,72(sp)
   12550:    e0a2                sd      s0,64(sp)
   12552:    fc26                sd      s1,56(sp)
   12554:    f84a                sd      s2,48(sp)
   12556:    e45e                sd      s7,8(sp)
   12558:    8aaa                mv      s5,a0
   1255a:    8a2e                mv      s4,a1
   1255c:    4b05                li      s6,1
   1255e:    1f89b483            ld      s1,504(s3)
   12562:    c881                beqz    s1,0x12572
   12564:    4480                lw      s0,8(s1)
   12566:    fff4091b            addiw   s2,s0,-1
   1256a:    040e                slli    s0,s0,0x3
   1256c:    9426                add     s0,s0,s1
   1256e:    00095d63            bgez    s2,0x12588
   12572:    60a6                ld      ra,72(sp)
   12574:    6406                ld      s0,64(sp)
   12576:    74e2                ld      s1,56(sp)
   12578:    7942                ld      s2,48(sp)
   1257a:    79a2                ld      s3,40(sp)
   1257c:    7a02                ld      s4,32(sp)
   1257e:    6ae2                ld      s5,24(sp)
   12580:    6b42                ld      s6,16(sp)
   12582:    6ba2                ld      s7,8(sp)
   12584:    6161                addi    sp,sp,80
   12586:    8082                ret

   12588:    000a0963            beqz    s4,0x1259a
   1258c:    20843783            ld      a5,520(s0)
   12590:    01478563            beq     a5,s4,0x1259a
   12594:    397d                addiw   s2,s2,-1
   12596:    1461                addi    s0,s0,-8
   12598:    bfd9                j       0x1256e
   1259a:    449c                lw      a5,8(s1)
   1259c:    6414                ld      a3,8(s0)
   1259e:    37fd                addiw   a5,a5,-1
   125a0:    03279763            bne     a5,s2,0x125ce
   125a4:    0124a423            sw      s2,8(s1)
   125a8:    d6f5                beqz    a3,0x12594
   125aa:    3104a703            lw      a4,784(s1)
   125ae:    012b163b            sllw    a2,s6,s2
   125b2:    0084ab83            lw      s7,8(s1)
   125b6:    8f71                and     a4,a4,a2
   125b8:    2701                sext.w  a4,a4
   125ba:    ef09                bnez    a4,0x125d4
   125bc:    9682                jalr    a3
   125be:    449c                lw      a5,8(s1)
   125c0:    f9779fe3            bne     a5,s7,0x1255e
   125c4:    1f89b783            ld      a5,504(s3)
   125c8:    fc9786e3            beq     a5,s1,0x12594
   125cc:    bf49                j       0x1255e
   125ce:    00043423            sd      zero,8(s0)
   125d2:    bfd9                j       0x125a8
   125d4:    3144a783            lw      a5,788(s1)
   125d8:    10843583            ld      a1,264(s0)
   125dc:    8ff1                and     a5,a5,a2
   125de:    2781                sext.w  a5,a5
   125e0:    e781                bnez    a5,0x125e8
   125e2:    8556                mv      a0,s5
   125e4:    9682                jalr    a3
   125e6:    bfe1                j       0x125be
   125e8:    852e                mv      a0,a1
   125ea:    9682                jalr    a3
   125ec:    bfc9                j       0x125be
   125ee:    4501                li      a0,0
   125f0:    8082                ret

   125f2:    1141                addi    sp,sp,-16
   125f4:    e022                sd      s0,0(sp)
   125f6:    e406                sd      ra,8(sp)
   125f8:    842a                mv      s0,a0
   125fa:    00b51823            sh      a1,16(a0)
   125fe:    00c51923            sh      a2,18(a0)
   12602:    00053023            sd      zero,0(a0)
   12606:    00053423            sd      zero,8(a0)
   1260a:    0a052623            sw      zero,172(a0)
   1260e:    00053c23            sd      zero,24(a0)
   12612:    02052023            sw      zero,32(a0)
   12616:    02052423            sw      zero,40(a0)
   1261a:    4621                li      a2,8
   1261c:    4581                li      a1,0
   1261e:    0a450513            addi    a0,a0,164
   12622:    d91fd0ef            jal     ra,0x103b2
   12626:    000147b7            lui     a5,0x14
   1262a:    aa278793            addi    a5,a5,-1374 # 0x13aa2
   1262e:    fc1c                sd      a5,56(s0)
   12630:    000147b7            lui     a5,0x14
   12634:    ad878793            addi    a5,a5,-1320 # 0x13ad8
   12638:    e03c                sd      a5,64(s0)
   1263a:    000147b7            lui     a5,0x14
   1263e:    b2a78793            addi    a5,a5,-1238 # 0x13b2a
   12642:    e43c                sd      a5,72(s0)
   12644:    000147b7            lui     a5,0x14
   12648:    b6278793            addi    a5,a5,-1182 # 0x13b62
   1264c:    f800                sd      s0,48(s0)
   1264e:    e83c                sd      a5,80(s0)
   12650:    60a2                ld      ra,8(sp)
   12652:    6402                ld      s0,0(sp)
   12654:    0141                addi    sp,sp,16
   12656:    8082                ret

   12658:    000175b7            lui     a1,0x17
   1265c:    a6458593            addi    a1,a1,-1436 # 0x16a64
   12660:    5940006f            j       0x12bf4
   12664:    4501                li      a0,0
   12666:    8082                ret

   12668:    1101                addi    sp,sp,-32
   1266a:    e426                sd      s1,8(sp)
   1266c:    0b000613            li      a2,176
   12670:    fff5849b            addiw   s1,a1,-1
   12674:    02c484b3            mul     s1,s1,a2
   12678:    e04a                sd      s2,0(sp)
   1267a:    892e                mv      s2,a1
   1267c:    e822                sd      s0,16(sp)
   1267e:    ec06                sd      ra,24(sp)
   12680:    0c848593            addi    a1,s1,200
   12684:    6da000ef            jal     ra,0x12d5e
   12688:    842a                mv      s0,a0
   1268a:    cd01                beqz    a0,0x126a2
   1268c:    00053023            sd      zero,0(a0)
   12690:    01252423            sw      s2,8(a0)
   12694:    0561                addi    a0,a0,24
   12696:    e808                sd      a0,16(s0)
   12698:    0b048613            addi    a2,s1,176
   1269c:    4581                li      a1,0
   1269e:    d15fd0ef            jal     ra,0x103b2
   126a2:    8522                mv      a0,s0
   126a4:    60e2                ld      ra,24(sp)
   126a6:    6442                ld      s0,16(sp)
   126a8:    64a2                ld      s1,8(sp)
   126aa:    6902                ld      s2,0(sp)
   126ac:    6105                addi    sp,sp,32
   126ae:    8082                ret

   126b0:    8681b503            ld      a0,-1944(gp)
   126b4:    fa5ff06f            j       0x12658
   126b8:    493c                lw      a5,80(a0)
   126ba:    eba1                bnez    a5,0x1270a
   126bc:    1141                addi    sp,sp,-16
   126be:    000127b7            lui     a5,0x12
   126c2:    e406                sd      ra,8(sp)
   126c4:    e022                sd      s0,0(sp)
   126c6:    65878793            addi    a5,a5,1624 # 0x12658
   126ca:    ed3c                sd      a5,88(a0)
   126cc:    478d                li      a5,3
   126ce:    52f52423            sw      a5,1320(a0)
   126d2:    53850793            addi    a5,a0,1336
   126d6:    842a                mv      s0,a0
   126d8:    52f53823            sd      a5,1328(a0)
   126dc:    52053023            sd      zero,1312(a0)
   126e0:    6508                ld      a0,8(a0)
   126e2:    4601                li      a2,0
   126e4:    4591                li      a1,4
   126e6:    f0dff0ef            jal     ra,0x125f2
   126ea:    6808                ld      a0,16(s0)
   126ec:    4605                li      a2,1
   126ee:    45a5                li      a1,9
   126f0:    f03ff0ef            jal     ra,0x125f2
   126f4:    6c08                ld      a0,24(s0)
   126f6:    4609                li      a2,2
   126f8:    45c9                li      a1,18
   126fa:    ef9ff0ef            jal     ra,0x125f2
   126fe:    4785                li      a5,1
   12700:    c83c                sw      a5,80(s0)
   12702:    60a2                ld      ra,8(sp)
   12704:    6402                ld      s0,0(sp)
   12706:    0141                addi    sp,sp,16
   12708:    8082                ret

   1270a:    8082                ret

   1270c:    1101                addi    sp,sp,-32
   1270e:    e426                sd      s1,8(sp)
   12710:    8681b483            ld      s1,-1944(gp)
   12714:    e04a                sd      s2,0(sp)
   12716:    ec06                sd      ra,24(sp)
   12718:    48bc                lw      a5,80(s1)
   1271a:    e822                sd      s0,16(sp)
   1271c:    892a                mv      s2,a0
   1271e:    e781                bnez    a5,0x12726
   12720:    8526                mv      a0,s1
   12722:    f97ff0ef            jal     ra,0x126b8
   12726:    52048493            addi    s1,s1,1312
   1272a:    6880                ld      s0,16(s1)
   1272c:    449c                lw      a5,8(s1)
   1272e:    37fd                addiw   a5,a5,-1
   12730:    0007d663            bgez    a5,0x1273c
   12734:    609c                ld      a5,0(s1)
   12736:    cfa9                beqz    a5,0x12790
   12738:    6084                ld      s1,0(s1)
   1273a:    bfc5                j       0x1272a
   1273c:    01041703            lh      a4,16(s0)
   12740:    e729                bnez    a4,0x1278a
   12742:    77c1                lui     a5,0xffff0
   12744:    2785                addiw   a5,a5,1
   12746:    0a042623            sw      zero,172(s0)
   1274a:    00043023            sd      zero,0(s0)
   1274e:    00043423            sd      zero,8(s0)
   12752:    c81c                sw      a5,16(s0)
   12754:    00043c23            sd      zero,24(s0)
   12758:    02042023            sw      zero,32(s0)
   1275c:    02042423            sw      zero,40(s0)
   12760:    4621                li      a2,8
   12762:    4581                li      a1,0
   12764:    0a440513            addi    a0,s0,164
   12768:    c4bfd0ef            jal     ra,0x103b2
   1276c:    04043c23            sd      zero,88(s0)
   12770:    06042023            sw      zero,96(s0)
   12774:    06043c23            sd      zero,120(s0)
   12778:    08042023            sw      zero,128(s0)
   1277c:    8522                mv      a0,s0
   1277e:    60e2                ld      ra,24(sp)
   12780:    6442                ld      s0,16(sp)
   12782:    64a2                ld      s1,8(sp)
   12784:    6902                ld      s2,0(sp)
   12786:    6105                addi    sp,sp,32
   12788:    8082                ret

   1278a:    0b040413            addi    s0,s0,176
   1278e:    b745                j       0x1272e
   12790:    4591                li      a1,4
   12792:    854a                mv      a0,s2
   12794:    ed5ff0ef            jal     ra,0x12668
   12798:    e088                sd      a0,0(s1)
   1279a:    fd59                bnez    a0,0x12738
   1279c:    47b1                li      a5,12
   1279e:    00f92023            sw      a5,0(s2)
   127a2:    4401                li      s0,0
   127a4:    bfe1                j       0x1277c
   127a6:    8082                ret

   127a8:    8082                ret

   127aa:    8082                ret

   127ac:    8082                ret

   127ae:    8781b503            ld      a0,-1928(gp)
   127b2:    000125b7            lui     a1,0x12
   127b6:    5ee58593            addi    a1,a1,1518 # 0x125ee
   127ba:    3d60006f            j       0x12b90
   127be:    8781b503            ld      a0,-1928(gp)
   127c2:    000125b7            lui     a1,0x12
   127c6:    66458593            addi    a1,a1,1636 # 0x12664
   127ca:    3c60006f            j       0x12b90
   127ce:    715d                addi    sp,sp,-80
   127d0:    f44e                sd      s3,40(sp)
   127d2:    02c689b3            mul     s3,a3,a2
   127d6:    e486                sd      ra,72(sp)
   127d8:    e0a2                sd      s0,64(sp)
   127da:    fc26                sd      s1,56(sp)
   127dc:    f84a                sd      s2,48(sp)
   127de:    f052                sd      s4,32(sp)
   127e0:    ec56                sd      s5,24(sp)
   127e2:    e85a                sd      s6,16(sp)
   127e4:    e45e                sd      s7,8(sp)
   127e6:    e062                sd      s8,0(sp)
   127e8:    08098863            beqz    s3,0x12878
   127ec:    8b2a                mv      s6,a0
   127ee:    8a2e                mv      s4,a1
   127f0:    8bb2                mv      s7,a2
   127f2:    8ab6                mv      s5,a3
   127f4:    843a                mv      s0,a4
   127f6:    c509                beqz    a0,0x12800
   127f8:    493c                lw      a5,80(a0)
   127fa:    e399                bnez    a5,0x12800
   127fc:    ebdff0ef            jal     ra,0x126b8
   12800:    01041783            lh      a5,16(s0)
   12804:    03279713            slli    a4,a5,0x32
   12808:    00074d63            bltz    a4,0x12822
   1280c:    6689                lui     a3,0x2
   1280e:    0ac42703            lw      a4,172(s0)
   12812:    8fd5                or      a5,a5,a3
   12814:    00f41823            sh      a5,16(s0)
   12818:    77f9                lui     a5,0xffffe
   1281a:    17fd                addi    a5,a5,-1
   1281c:    8ff9                and     a5,a5,a4
   1281e:    0af42623            sw      a5,172(s0)
   12822:    441c                lw      a5,8(s0)
   12824:    0007d463            bgez    a5,0x1282c
   12828:    00042423            sw      zero,8(s0)
   1282c:    894e                mv      s2,s3
   1282e:    4404                lw      s1,8(s0)
   12830:    600c                ld      a1,0(s0)
   12832:    0124ef63            bltu    s1,s2,0x12850
   12836:    864a                mv      a2,s2
   12838:    8552                mv      a0,s4
   1283a:    2e1000ef            jal     ra,0x1331a
   1283e:    441c                lw      a5,8(s0)
   12840:    6004                ld      s1,0(s0)
   12842:    89d6                mv      s3,s5
   12844:    412787bb            subw    a5,a5,s2
   12848:    94ca                add     s1,s1,s2
   1284a:    c41c                sw      a5,8(s0)
   1284c:    e004                sd      s1,0(s0)
   1284e:    a02d                j       0x12878
   12850:    8552                mv      a0,s4
   12852:    8626                mv      a2,s1
   12854:    2c7000ef            jal     ra,0x1331a
   12858:    601c                ld      a5,0(s0)
   1285a:    85a2                mv      a1,s0
   1285c:    855a                mv      a0,s6
   1285e:    97a6                add     a5,a5,s1
   12860:    e01c                sd      a5,0(s0)
   12862:    9a26                add     s4,s4,s1
   12864:    40990c33            sub     s8,s2,s1
   12868:    7a1000ef            jal     ra,0x13808
   1286c:    c11d                beqz    a0,0x12892
   1286e:    94ce                add     s1,s1,s3
   12870:    412484b3            sub     s1,s1,s2
   12874:    0374d9b3            divu    s3,s1,s7
   12878:    60a6                ld      ra,72(sp)
   1287a:    6406                ld      s0,64(sp)
   1287c:    854e                mv      a0,s3
   1287e:    74e2                ld      s1,56(sp)
   12880:    7942                ld      s2,48(sp)
   12882:    79a2                ld      s3,40(sp)
   12884:    7a02                ld      s4,32(sp)
   12886:    6ae2                ld      s5,24(sp)
   12888:    6b42                ld      s6,16(sp)
   1288a:    6ba2                ld      s7,8(sp)
   1288c:    6c02                ld      s8,0(sp)
   1288e:    6161                addi    sp,sp,80
   12890:    8082                ret

   12892:    8962                mv      s2,s8
   12894:    bf69                j       0x1282e
   12896:    8736                mv      a4,a3
   12898:    86b2                mv      a3,a2
   1289a:    862e                mv      a2,a1
   1289c:    85aa                mv      a1,a0
   1289e:    8781b503            ld      a0,-1928(gp)
   128a2:    f2dff06f            j       0x127ce
   128a6:    6a1c                ld      a5,16(a2)
   128a8:    e781                bnez    a5,0x128b0
   128aa:    4781                li      a5,0
   128ac:    853e                mv      a0,a5
   128ae:    8082                ret

   128b0:    0105d783            lhu     a5,16(a1)
   128b4:    7119                addi    sp,sp,-128
   128b6:    f8a2                sd      s0,112(sp)
   128b8:    f0ca                sd      s2,96(sp)
   128ba:    e8d2                sd      s4,80(sp)
   128bc:    fc86                sd      ra,120(sp)
   128be:    f4a6                sd      s1,104(sp)
   128c0:    ecce                sd      s3,88(sp)
   128c2:    e4d6                sd      s5,72(sp)
   128c4:    e0da                sd      s6,64(sp)
   128c6:    fc5e                sd      s7,56(sp)
   128c8:    f862                sd      s8,48(sp)
   128ca:    f466                sd      s9,40(sp)
   128cc:    f06a                sd      s10,32(sp)
   128ce:    ec6e                sd      s11,24(sp)
   128d0:    8ba1                andi    a5,a5,8
   128d2:    8a32                mv      s4,a2
   128d4:    842e                mv      s0,a1
   128d6:    892a                mv      s2,a0
   128d8:    cfd1                beqz    a5,0x12974
   128da:    6d9c                ld      a5,24(a1)
   128dc:    cfc1                beqz    a5,0x12974
   128de:    01045783            lhu     a5,16(s0)
   128e2:    000a3983            ld      s3,0(s4)
   128e6:    0027f713            andi    a4,a5,2
   128ea:    0e071863            bnez    a4,0x129da
   128ee:    8b85                andi    a5,a5,1
   128f0:    4a81                li      s5,0
   128f2:    16078463            beqz    a5,0x12a5a
   128f6:    4501                li      a0,0
   128f8:    4b81                li      s7,0
   128fa:    4b01                li      s6,0
   128fc:    240b0863            beqz    s6,0x12b4c
   12900:    e919                bnez    a0,0x12916
   12902:    865a                mv      a2,s6
   12904:    45a9                li      a1,10
   12906:    855e                mv      a0,s7
   12908:    1f9000ef            jal     ra,0x13300
   1290c:    24050763            beqz    a0,0x12b5a
   12910:    0505                addi    a0,a0,1
   12912:    41750abb            subw    s5,a0,s7
   12916:    8c56                mv      s8,s5
   12918:    015b7363            bgeu    s6,s5,0x1291e
   1291c:    8c5a                mv      s8,s6
   1291e:    6008                ld      a0,0(s0)
   12920:    6c1c                ld      a5,24(s0)
   12922:    5014                lw      a3,32(s0)
   12924:    22a7fe63            bgeu    a5,a0,0x12b60
   12928:    4444                lw      s1,12(s0)
   1292a:    9cb5                addw    s1,s1,a3
   1292c:    2384da63            bge     s1,s8,0x12b60
   12930:    85de                mv      a1,s7
   12932:    8626                mv      a2,s1
   12934:    29d000ef            jal     ra,0x133d0
   12938:    601c                ld      a5,0(s0)
   1293a:    85a2                mv      a1,s0
   1293c:    854a                mv      a0,s2
   1293e:    97a6                add     a5,a5,s1
   12940:    e01c                sd      a5,0(s0)
   12942:    31c040ef            jal     ra,0x16c5e
   12946:    10051263            bnez    a0,0x12a4a
   1294a:    409a8abb            subw    s5,s5,s1
   1294e:    4505                li      a0,1
   12950:    000a9763            bnez    s5,0x1295e
   12954:    85a2                mv      a1,s0
   12956:    854a                mv      a0,s2
   12958:    306040ef            jal     ra,0x16c5e
   1295c:    e57d                bnez    a0,0x12a4a
   1295e:    010a3783            ld      a5,16(s4)
   12962:    9ba6                add     s7,s7,s1
   12964:    409b0b33            sub     s6,s6,s1
   12968:    409784b3            sub     s1,a5,s1
   1296c:    009a3823            sd      s1,16(s4)
   12970:    f4d1                bnez    s1,0x128fc
   12972:    a099                j       0x129b8
   12974:    85a2                mv      a1,s0
   12976:    854a                mv      a0,s2
   12978:    7e7030ef            jal     ra,0x1695e
   1297c:    57fd                li      a5,-1
   1297e:    d125                beqz    a0,0x128de
   12980:    a82d                j       0x129ba
   12982:    0009ba83            ld      s5,0(s3)
   12986:    0089b483            ld      s1,8(s3)
   1298a:    09c1                addi    s3,s3,16
   1298c:    d8fd                beqz    s1,0x12982
   1298e:    86a6                mv      a3,s1
   12990:    009b7363            bgeu    s6,s1,0x12996
   12994:    86da                mv      a3,s6
   12996:    603c                ld      a5,64(s0)
   12998:    780c                ld      a1,48(s0)
   1299a:    2681                sext.w  a3,a3
   1299c:    8656                mv      a2,s5
   1299e:    854a                mv      a0,s2
   129a0:    9782                jalr    a5
   129a2:    0aa05463            blez    a0,0x12a4a
   129a6:    010a3783            ld      a5,16(s4)
   129aa:    9aaa                add     s5,s5,a0
   129ac:    8c89                sub     s1,s1,a0
   129ae:    40a78533            sub     a0,a5,a0
   129b2:    00aa3823            sd      a0,16(s4)
   129b6:    f979                bnez    a0,0x1298c
   129b8:    4781                li      a5,0
   129ba:    70e6                ld      ra,120(sp)
   129bc:    7446                ld      s0,112(sp)
   129be:    74a6                ld      s1,104(sp)
   129c0:    7906                ld      s2,96(sp)
   129c2:    69e6                ld      s3,88(sp)
   129c4:    6a46                ld      s4,80(sp)
   129c6:    6aa6                ld      s5,72(sp)
   129c8:    6b06                ld      s6,64(sp)
   129ca:    7be2                ld      s7,56(sp)
   129cc:    7c42                ld      s8,48(sp)
   129ce:    7ca2                ld      s9,40(sp)
   129d0:    7d02                ld      s10,32(sp)
   129d2:    6de2                ld      s11,24(sp)
   129d4:    853e                mv      a0,a5
   129d6:    6109                addi    sp,sp,128
   129d8:    8082                ret

   129da:    80000b37            lui     s6,0x80000
   129de:    4a81                li      s5,0
   129e0:    4481                li      s1,0
   129e2:    c00b4b13            xori    s6,s6,-1024
   129e6:    b75d                j       0x1298c
   129e8:    0009ba83            ld      s5,0(s3)
   129ec:    0089bd03            ld      s10,8(s3)
   129f0:    09c1                addi    s3,s3,16
   129f2:    4444                lw      s1,12(s0)
   129f4:    87a6                mv      a5,s1
   129f6:    fe0d09e3            beqz    s10,0x129e8
   129fa:    01045703            lhu     a4,16(s0)
   129fe:    6008                ld      a0,0(s0)
   12a00:    20077693            andi    a3,a4,512
   12a04:    0e068863            beqz    a3,0x12af4
   12a08:    089d6963            bltu    s10,s1,0x12a9a
   12a0c:    48077693            andi    a3,a4,1152
   12a10:    c6c9                beqz    a3,0x12a9a
   12a12:    5004                lw      s1,32(s0)
   12a14:    6c0c                ld      a1,24(s0)
   12a16:    029c04bb            mulw    s1,s8,s1
   12a1a:    8d0d                sub     a0,a0,a1
   12a1c:    00050d9b            sext.w  s11,a0
   12a20:    001d8793            addi    a5,s11,1
   12a24:    97ea                add     a5,a5,s10
   12a26:    0394c4bb            divw    s1,s1,s9
   12a2a:    00f4f563            bgeu    s1,a5,0x12a34
   12a2e:    2505                addiw   a0,a0,1
   12a30:    01a504bb            addw    s1,a0,s10
   12a34:    40077713            andi    a4,a4,1024
   12a38:    cf49                beqz    a4,0x12ad2
   12a3a:    85a6                mv      a1,s1
   12a3c:    854a                mv      a0,s2
   12a3e:    320000ef            jal     ra,0x12d5e
   12a42:    e515                bnez    a0,0x12a6e
   12a44:    47b1                li      a5,12
   12a46:    00f92023            sw      a5,0(s2)
   12a4a:    01045783            lhu     a5,16(s0)
   12a4e:    0407e793            ori     a5,a5,64
   12a52:    00f41823            sh      a5,16(s0)
   12a56:    57fd                li      a5,-1
   12a58:    b78d                j       0x129ba
   12a5a:    80000b37            lui     s6,0x80000
   12a5e:    ffeb4b93            xori    s7,s6,-2
   12a62:    4d01                li      s10,0
   12a64:    fffb4b13            not     s6,s6
   12a68:    4c0d                li      s8,3
   12a6a:    4c89                li      s9,2
   12a6c:    b759                j       0x129f2
   12a6e:    6c0c                ld      a1,24(s0)
   12a70:    866e                mv      a2,s11
   12a72:    e42a                sd      a0,8(sp)
   12a74:    0a7000ef            jal     ra,0x1331a
   12a78:    01045703            lhu     a4,16(s0)
   12a7c:    67a2                ld      a5,8(sp)
   12a7e:    b7f77713            andi    a4,a4,-1153
   12a82:    08076713            ori     a4,a4,128
   12a86:    00e41823            sh      a4,16(s0)
   12a8a:    ec1c                sd      a5,24(s0)
   12a8c:    d004                sw      s1,32(s0)
   12a8e:    97ee                add     a5,a5,s11
   12a90:    41b484bb            subw    s1,s1,s11
   12a94:    e01c                sd      a5,0(s0)
   12a96:    c444                sw      s1,12(s0)
   12a98:    87ea                mv      a5,s10
   12a9a:    84ea                mv      s1,s10
   12a9c:    00fd7363            bgeu    s10,a5,0x12aa2
   12aa0:    87ea                mv      a5,s10
   12aa2:    6008                ld      a0,0(s0)
   12aa4:    863e                mv      a2,a5
   12aa6:    85d6                mv      a1,s5
   12aa8:    e43e                sd      a5,8(sp)
   12aaa:    127000ef            jal     ra,0x133d0
   12aae:    4458                lw      a4,12(s0)
   12ab0:    67a2                ld      a5,8(sp)
   12ab2:    9f1d                subw    a4,a4,a5
   12ab4:    c458                sw      a4,12(s0)
   12ab6:    6018                ld      a4,0(s0)
   12ab8:    97ba                add     a5,a5,a4
   12aba:    e01c                sd      a5,0(s0)
   12abc:    010a3783            ld      a5,16(s4)
   12ac0:    9aa6                add     s5,s5,s1
   12ac2:    409d0d33            sub     s10,s10,s1
   12ac6:    409784b3            sub     s1,a5,s1
   12aca:    009a3823            sd      s1,16(s4)
   12ace:    f095                bnez    s1,0x129f2
   12ad0:    b5e5                j       0x129b8
   12ad2:    8626                mv      a2,s1
   12ad4:    854a                mv      a0,s2
   12ad6:    155000ef            jal     ra,0x1342a
   12ada:    87aa                mv      a5,a0
   12adc:    f55d                bnez    a0,0x12a8a
   12ade:    6c0c                ld      a1,24(s0)
   12ae0:    854a                mv      a0,s2
   12ae2:    286040ef            jal     ra,0x16d68
   12ae6:    01045783            lhu     a5,16(s0)
   12aea:    f7f7f793            andi    a5,a5,-129
   12aee:    00f41823            sh      a5,16(s0)
   12af2:    bf89                j       0x12a44
   12af4:    6c1c                ld      a5,24(s0)
   12af6:    00a7e563            bltu    a5,a0,0x12b00
   12afa:    5014                lw      a3,32(s0)
   12afc:    02dd7763            bgeu    s10,a3,0x12b2a
   12b00:    009d7363            bgeu    s10,s1,0x12b06
   12b04:    84ea                mv      s1,s10
   12b06:    8626                mv      a2,s1
   12b08:    85d6                mv      a1,s5
   12b0a:    0c7000ef            jal     ra,0x133d0
   12b0e:    445c                lw      a5,12(s0)
   12b10:    4097873b            subw    a4,a5,s1
   12b14:    601c                ld      a5,0(s0)
   12b16:    c458                sw      a4,12(s0)
   12b18:    97a6                add     a5,a5,s1
   12b1a:    e01c                sd      a5,0(s0)
   12b1c:    f345                bnez    a4,0x12abc
   12b1e:    85a2                mv      a1,s0
   12b20:    854a                mv      a0,s2
   12b22:    13c040ef            jal     ra,0x16c5e
   12b26:    d959                beqz    a0,0x12abc
   12b28:    b70d                j       0x12a4a
   12b2a:    87ea                mv      a5,s10
   12b2c:    01abf363            bgeu    s7,s10,0x12b32
   12b30:    87da                mv      a5,s6
   12b32:    02d7c7bb            divw    a5,a5,a3
   12b36:    6038                ld      a4,64(s0)
   12b38:    780c                ld      a1,48(s0)
   12b3a:    8656                mv      a2,s5
   12b3c:    854a                mv      a0,s2
   12b3e:    02d786bb            mulw    a3,a5,a3
   12b42:    9702                jalr    a4
   12b44:    84aa                mv      s1,a0
   12b46:    f6a04be3            bgtz    a0,0x12abc
   12b4a:    b701                j       0x12a4a
   12b4c:    0009bb83            ld      s7,0(s3)
   12b50:    0089bb03            ld      s6,8(s3)
   12b54:    4501                li      a0,0
   12b56:    09c1                addi    s3,s3,16
   12b58:    b355                j       0x128fc
   12b5a:    001b0a9b            addiw   s5,s6,1
   12b5e:    bb65                j       0x12916
   12b60:    00dc4b63            blt     s8,a3,0x12b76
   12b64:    603c                ld      a5,64(s0)
   12b66:    780c                ld      a1,48(s0)
   12b68:    865e                mv      a2,s7
   12b6a:    854a                mv      a0,s2
   12b6c:    9782                jalr    a5
   12b6e:    84aa                mv      s1,a0
   12b70:    dca04de3            bgtz    a0,0x1294a
   12b74:    bdd9                j       0x12a4a
   12b76:    8662                mv      a2,s8
   12b78:    85de                mv      a1,s7
   12b7a:    057000ef            jal     ra,0x133d0
   12b7e:    445c                lw      a5,12(s0)
   12b80:    84e2                mv      s1,s8
   12b82:    418787bb            subw    a5,a5,s8
   12b86:    c45c                sw      a5,12(s0)
   12b88:    601c                ld      a5,0(s0)
   12b8a:    97e2                add     a5,a5,s8
   12b8c:    e01c                sd      a5,0(s0)
   12b8e:    bb75                j       0x1294a
   12b90:    715d                addi    sp,sp,-80
   12b92:    e0a2                sd      s0,64(sp)
   12b94:    fc26                sd      s1,56(sp)
   12b96:    f052                sd      s4,32(sp)
   12b98:    ec56                sd      s5,24(sp)
   12b9a:    e486                sd      ra,72(sp)
   12b9c:    f84a                sd      s2,48(sp)
   12b9e:    f44e                sd      s3,40(sp)
   12ba0:    52050493            addi    s1,a0,1312
   12ba4:    4401                li      s0,0
   12ba6:    4a05                li      s4,1
   12ba8:    5afd                li      s5,-1
   12baa:    e899                bnez    s1,0x12bc0
   12bac:    8522                mv      a0,s0
   12bae:    60a6                ld      ra,72(sp)
   12bb0:    6406                ld      s0,64(sp)
   12bb2:    74e2                ld      s1,56(sp)
   12bb4:    7942                ld      s2,48(sp)
   12bb6:    79a2                ld      s3,40(sp)
   12bb8:    7a02                ld      s4,32(sp)
   12bba:    6ae2                ld      s5,24(sp)
   12bbc:    6161                addi    sp,sp,80
   12bbe:    8082                ret

   12bc0:    0104b903            ld      s2,16(s1)
   12bc4:    0084a983            lw      s3,8(s1)
   12bc8:    39fd                addiw   s3,s3,-1
   12bca:    0009d463            bgez    s3,0x12bd2
   12bce:    6084                ld      s1,0(s1)
   12bd0:    bfe9                j       0x12baa
   12bd2:    01095783            lhu     a5,16(s2)
   12bd6:    00fa7c63            bgeu    s4,a5,0x12bee
   12bda:    01291783            lh      a5,18(s2)
   12bde:    01578863            beq     a5,s5,0x12bee
   12be2:    854a                mv      a0,s2
   12be4:    e42e                sd      a1,8(sp)
   12be6:    9582                jalr    a1
   12be8:    65a2                ld      a1,8(sp)
   12bea:    8c49                or      s0,s0,a0
   12bec:    2401                sext.w  s0,s0
   12bee:    0b090913            addi    s2,s2,176
   12bf2:    bfd9                j       0x12bc8
   12bf4:    715d                addi    sp,sp,-80
   12bf6:    e0a2                sd      s0,64(sp)
   12bf8:    fc26                sd      s1,56(sp)
   12bfa:    f052                sd      s4,32(sp)
   12bfc:    ec56                sd      s5,24(sp)
   12bfe:    e85a                sd      s6,16(sp)
   12c00:    e45e                sd      s7,8(sp)
   12c02:    e486                sd      ra,72(sp)
   12c04:    f84a                sd      s2,48(sp)
   12c06:    f44e                sd      s3,40(sp)
   12c08:    8a2a                mv      s4,a0
   12c0a:    8aae                mv      s5,a1
   12c0c:    52050493            addi    s1,a0,1312
   12c10:    4401                li      s0,0
   12c12:    4b05                li      s6,1
   12c14:    5bfd                li      s7,-1
   12c16:    ec89                bnez    s1,0x12c30
   12c18:    8522                mv      a0,s0
   12c1a:    60a6                ld      ra,72(sp)
   12c1c:    6406                ld      s0,64(sp)
   12c1e:    74e2                ld      s1,56(sp)
   12c20:    7942                ld      s2,48(sp)
   12c22:    79a2                ld      s3,40(sp)
   12c24:    7a02                ld      s4,32(sp)
   12c26:    6ae2                ld      s5,24(sp)
   12c28:    6b42                ld      s6,16(sp)
   12c2a:    6ba2                ld      s7,8(sp)
   12c2c:    6161                addi    sp,sp,80
   12c2e:    8082                ret

   12c30:    0104b903            ld      s2,16(s1)
   12c34:    0084a983            lw      s3,8(s1)
   12c38:    39fd                addiw   s3,s3,-1
   12c3a:    0009d463            bgez    s3,0x12c42
   12c3e:    6084                ld      s1,0(s1)
   12c40:    bfd9                j       0x12c16
   12c42:    01095783            lhu     a5,16(s2)
   12c46:    00fb7b63            bgeu    s6,a5,0x12c5c
   12c4a:    01291783            lh      a5,18(s2)
   12c4e:    01778763            beq     a5,s7,0x12c5c
   12c52:    85ca                mv      a1,s2
   12c54:    8552                mv      a0,s4
   12c56:    9a82                jalr    s5
   12c58:    8c49                or      s0,s0,a0
   12c5a:    2401                sext.w  s0,s0
   12c5c:    0b090913            addi    s2,s2,176
   12c60:    bfe1                j       0x12c38
   12c62:    0ff00793            li      a5,255
   12c66:    02a7e363            bltu    a5,a0,0x12c8c
   12c6a:    1141                addi    sp,sp,-16
   12c6c:    e022                sd      s0,0(sp)
   12c6e:    e406                sd      ra,8(sp)
   12c70:    842a                mv      s0,a0
   12c72:    0b8000ef            jal     ra,0x12d2a
   12c76:    02041793            slli    a5,s0,0x20
   12c7a:    9381                srli    a5,a5,0x20
   12c7c:    953e                add     a0,a0,a5
   12c7e:    00154503            lbu     a0,1(a0)
   12c82:    60a2                ld      ra,8(sp)
   12c84:    6402                ld      s0,0(sp)
   12c86:    8921                andi    a0,a0,8
   12c88:    0141                addi    sp,sp,16
   12c8a:    8082                ret

   12c8c:    4501                li      a0,0
   12c8e:    8082                ret

   12c90:    10050513            addi    a0,a0,256
   12c94:    8082                ret

   12c96:    8781b783            ld      a5,-1928(gp)
   12c9a:    67a8                ld      a0,72(a5)
   12c9c:    e509                bnez    a0,0x12ca6
   12c9e:    0001f537            lui     a0,0x1f
   12ca2:    36850513            addi    a0,a0,872 # 0x1f368
   12ca6:    10050513            addi    a0,a0,256
   12caa:    8082                ret

   12cac:    8781b783            ld      a5,-1928(gp)
   12cb0:    67a8                ld      a0,72(a5)
   12cb2:    e509                bnez    a0,0x12cbc
   12cb4:    0001f537            lui     a0,0x1f
   12cb8:    36850513            addi    a0,a0,872 # 0x1f368
   12cbc:    10050513            addi    a0,a0,256
   12cc0:    8082                ret

   12cc2:    1101                addi    sp,sp,-32
   12cc4:    e426                sd      s1,8(sp)
   12cc6:    ec06                sd      ra,24(sp)
   12cc8:    e822                sd      s0,16(sp)
   12cca:    0001d4b7            lui     s1,0x1d
   12cce:    ea01                bnez    a2,0x12cde
   12cd0:    0b048513            addi    a0,s1,176 # 0x1d0b0
   12cd4:    60e2                ld      ra,24(sp)
   12cd6:    6442                ld      s0,16(sp)
   12cd8:    64a2                ld      s1,8(sp)
   12cda:    6105                addi    sp,sp,32
   12cdc:    8082                ret

   12cde:    0001d5b7            lui     a1,0x1d
   12ce2:    0b858593            addi    a1,a1,184 # 0x1d0b8
   12ce6:    8532                mv      a0,a2
   12ce8:    8432                mv      s0,a2
   12cea:    681000ef            jal     ra,0x13b6a
   12cee:    d16d                beqz    a0,0x12cd0
   12cf0:    0b048593            addi    a1,s1,176
   12cf4:    8522                mv      a0,s0
   12cf6:    675000ef            jal     ra,0x13b6a
   12cfa:    d979                beqz    a0,0x12cd0
   12cfc:    0001d5b7            lui     a1,0x1d
   12d00:    37858593            addi    a1,a1,888 # 0x1d378
   12d04:    8522                mv      a0,s0
   12d06:    665000ef            jal     ra,0x13b6a
   12d0a:    d179                beqz    a0,0x12cd0
   12d0c:    4501                li      a0,0
   12d0e:    b7d9                j       0x12cd4
   12d10:    8781b783            ld      a5,-1928(gp)
   12d14:    67bc                ld      a5,72(a5)
   12d16:    e789                bnez    a5,0x12d20
   12d18:    0001f7b7            lui     a5,0x1f
   12d1c:    36878793            addi    a5,a5,872 # 0x1f368
   12d20:    1607c503            lbu     a0,352(a5)
   12d24:    8082                ret

   12d26:    7d68                ld      a0,248(a0)
   12d28:    8082                ret

   12d2a:    8781b783            ld      a5,-1928(gp)
   12d2e:    67bc                ld      a5,72(a5)
   12d30:    e789                bnez    a5,0x12d3a
   12d32:    0001f7b7            lui     a5,0x1f
   12d36:    36878793            addi    a5,a5,872 # 0x1f368
   12d3a:    7fe8                ld      a0,248(a5)
   12d3c:    8082                ret

   12d3e:    862e                mv      a2,a1
   12d40:    85aa                mv      a1,a0
   12d42:    8781b503            ld      a0,-1928(gp)
   12d46:    f7dff06f            j       0x12cc2
   12d4a:    85aa                mv      a1,a0
   12d4c:    8781b503            ld      a0,-1928(gp)
   12d50:    00e0006f            j       0x12d5e
   12d54:    85aa                mv      a1,a0
   12d56:    8781b503            ld      a0,-1928(gp)
   12d5a:    00e0406f            j       0x16d68
   12d5e:    711d                addi    sp,sp,-96
   12d60:    ec86                sd      ra,88(sp)
   12d62:    e8a2                sd      s0,80(sp)
   12d64:    e4a6                sd      s1,72(sp)
   12d66:    e0ca                sd      s2,64(sp)
   12d68:    fc4e                sd      s3,56(sp)
   12d6a:    f852                sd      s4,48(sp)
   12d6c:    f456                sd      s5,40(sp)
   12d6e:    f05a                sd      s6,32(sp)
   12d70:    ec5e                sd      s7,24(sp)
   12d72:    e862                sd      s8,16(sp)
   12d74:    e466                sd      s9,8(sp)
   12d76:    01758793            addi    a5,a1,23
   12d7a:    02e00713            li      a4,46
   12d7e:    02f77a63            bgeu    a4,a5,0x12db2
   12d82:    ff07f493            andi    s1,a5,-16
   12d86:    800007b7            lui     a5,0x80000
   12d8a:    fff7c793            not     a5,a5
   12d8e:    0297f463            bgeu    a5,s1,0x12db6
   12d92:    47b1                li      a5,12
   12d94:    c11c                sw      a5,0(a0)
   12d96:    4501                li      a0,0
   12d98:    60e6                ld      ra,88(sp)
   12d9a:    6446                ld      s0,80(sp)
   12d9c:    64a6                ld      s1,72(sp)
   12d9e:    6906                ld      s2,64(sp)
   12da0:    79e2                ld      s3,56(sp)
   12da2:    7a42                ld      s4,48(sp)
   12da4:    7aa2                ld      s5,40(sp)
   12da6:    7b02                ld      s6,32(sp)
   12da8:    6be2                ld      s7,24(sp)
   12daa:    6c42                ld      s8,16(sp)
   12dac:    6ca2                ld      s9,8(sp)
   12dae:    6125                addi    sp,sp,96
   12db0:    8082                ret

   12db2:    02000493            li      s1,32
   12db6:    fcb4eee3            bltu    s1,a1,0x12d92
   12dba:    89aa                mv      s3,a0
   12dbc:    65e000ef            jal     ra,0x1341a
   12dc0:    0001f937            lui     s2,0x1f
   12dc4:    1f700793            li      a5,503
   12dc8:    51090913            addi    s2,s2,1296 # 0x1f510
   12dcc:    0497e063            bltu    a5,s1,0x12e0c
   12dd0:    0034d793            srli    a5,s1,0x3
   12dd4:    2781                sext.w  a5,a5
   12dd6:    0017871b            addiw   a4,a5,1
   12dda:    0017171b            slliw   a4,a4,0x1
   12dde:    070e                slli    a4,a4,0x3
   12de0:    974a                add     a4,a4,s2
   12de2:    6700                ld      s0,8(a4)
   12de4:    ff070693            addi    a3,a4,-16
   12de8:    00d41663            bne     s0,a3,0x12df4
   12dec:    6f00                ld      s0,24(a4)
   12dee:    2789                addiw   a5,a5,2
   12df0:    04870e63            beq     a4,s0,0x12e4c
   12df4:    641c                ld      a5,8(s0)
   12df6:    6c18                ld      a4,24(s0)
   12df8:    6814                ld      a3,16(s0)
   12dfa:    9bf1                andi    a5,a5,-4
   12dfc:    97a2                add     a5,a5,s0
   12dfe:    ee98                sd      a4,24(a3)
   12e00:    eb14                sd      a3,16(a4)
   12e02:    6798                ld      a4,8(a5)
   12e04:    00176713            ori     a4,a4,1
   12e08:    e798                sd      a4,8(a5)
   12e0a:    a051                j       0x12e8e
   12e0c:    0094d713            srli    a4,s1,0x9
   12e10:    03f00793            li      a5,63
   12e14:    cb01                beqz    a4,0x12e24
   12e16:    4791                li      a5,4
   12e18:    08e7e163            bltu    a5,a4,0x12e9a
   12e1c:    0064d793            srli    a5,s1,0x6
   12e20:    0387879b            addiw   a5,a5,56
   12e24:    0017871b            addiw   a4,a5,1
   12e28:    0017171b            slliw   a4,a4,0x1
   12e2c:    070e                slli    a4,a4,0x3
   12e2e:    974a                add     a4,a4,s2
   12e30:    6700                ld      s0,8(a4)
   12e32:    ff070593            addi    a1,a4,-16
   12e36:    457d                li      a0,31
   12e38:    00b40963            beq     s0,a1,0x12e4a
   12e3c:    6418                ld      a4,8(s0)
   12e3e:    9b71                andi    a4,a4,-4
   12e40:    40970633            sub     a2,a4,s1
   12e44:    08c55e63            bge     a0,a2,0x12ee0
   12e48:    37fd                addiw   a5,a5,-1
   12e4a:    2785                addiw   a5,a5,1
   12e4c:    02093403            ld      s0,32(s2)
   12e50:    0001f5b7            lui     a1,0x1f
   12e54:    52058693            addi    a3,a1,1312 # 0x1f520
   12e58:    52058593            addi    a1,a1,1312
   12e5c:    0ed40663            beq     s0,a3,0x12f48
   12e60:    6418                ld      a4,8(s0)
   12e62:    467d                li      a2,31
   12e64:    9b71                andi    a4,a4,-4
   12e66:    40970533            sub     a0,a4,s1
   12e6a:    08a65663            bge     a2,a0,0x12ef6
   12e6e:    0014e793            ori     a5,s1,1
   12e72:    e41c                sd      a5,8(s0)
   12e74:    00940633            add     a2,s0,s1
   12e78:    02c93423            sd      a2,40(s2)
   12e7c:    02c93023            sd      a2,32(s2)
   12e80:    00156793            ori     a5,a0,1
   12e84:    ee14                sd      a3,24(a2)
   12e86:    ea14                sd      a3,16(a2)
   12e88:    e61c                sd      a5,8(a2)
   12e8a:    9722                add     a4,a4,s0
   12e8c:    e308                sd      a0,0(a4)
   12e8e:    854e                mv      a0,s3
   12e90:    58c000ef            jal     ra,0x1341c
   12e94:    01040513            addi    a0,s0,16
   12e98:    b701                j       0x12d98
   12e9a:    47d1                li      a5,20
   12e9c:    00e7e563            bltu    a5,a4,0x12ea6
   12ea0:    05b7079b            addiw   a5,a4,91
   12ea4:    b741                j       0x12e24
   12ea6:    05400793            li      a5,84
   12eaa:    00e7e763            bltu    a5,a4,0x12eb8
   12eae:    00c4d793            srli    a5,s1,0xc
   12eb2:    06e7879b            addiw   a5,a5,110
   12eb6:    b7bd                j       0x12e24
   12eb8:    15400793            li      a5,340
   12ebc:    00e7e763            bltu    a5,a4,0x12eca
   12ec0:    00f4d793            srli    a5,s1,0xf
   12ec4:    0777879b            addiw   a5,a5,119
   12ec8:    bfb1                j       0x12e24
   12eca:    55400693            li      a3,1364
   12ece:    07e00793            li      a5,126
   12ed2:    f4e6e9e3            bltu    a3,a4,0x12e24
   12ed6:    0124d793            srli    a5,s1,0x12
   12eda:    07c7879b            addiw   a5,a5,124
   12ede:    b799                j       0x12e24
   12ee0:    6c14                ld      a3,24(s0)
   12ee2:    00064863            bltz    a2,0x12ef2
   12ee6:    681c                ld      a5,16(s0)
   12ee8:    ef94                sd      a3,24(a5)
   12eea:    ea9c                sd      a5,16(a3)
   12eec:    00e407b3            add     a5,s0,a4
   12ef0:    bf09                j       0x12e02
   12ef2:    8436                mv      s0,a3
   12ef4:    b791                j       0x12e38
   12ef6:    02d93423            sd      a3,40(s2)
   12efa:    02d93023            sd      a3,32(s2)
   12efe:    00054863            bltz    a0,0x12f0e
   12f02:    9722                add     a4,a4,s0
   12f04:    671c                ld      a5,8(a4)
   12f06:    0017e793            ori     a5,a5,1
   12f0a:    e71c                sd      a5,8(a4)
   12f0c:    b749                j       0x12e8e
   12f0e:    1ff00693            li      a3,511
   12f12:    00893803            ld      a6,8(s2)
   12f16:    12e6e763            bltu    a3,a4,0x13044
   12f1a:    830d                srli    a4,a4,0x3
   12f1c:    2701                sext.w  a4,a4
   12f1e:    4027561b            sraiw   a2,a4,0x2
   12f22:    2705                addiw   a4,a4,1
   12f24:    4685                li      a3,1
   12f26:    0017171b            slliw   a4,a4,0x1
   12f2a:    00c696b3            sll     a3,a3,a2
   12f2e:    070e                slli    a4,a4,0x3
   12f30:    974a                add     a4,a4,s2
   12f32:    0106e6b3            or      a3,a3,a6
   12f36:    00d93423            sd      a3,8(s2)
   12f3a:    6314                ld      a3,0(a4)
   12f3c:    ff070613            addi    a2,a4,-16
   12f40:    ec10                sd      a2,24(s0)
   12f42:    e814                sd      a3,16(s0)
   12f44:    e300                sd      s0,0(a4)
   12f46:    ee80                sd      s0,24(a3)
   12f48:    4027d71b            sraiw   a4,a5,0x2
   12f4c:    4305                li      t1,1
   12f4e:    00e31333            sll     t1,t1,a4
   12f52:    00893703            ld      a4,8(s2)
   12f56:    06676063            bltu    a4,t1,0x12fb6
   12f5a:    006776b3            and     a3,a4,t1
   12f5e:    e699                bnez    a3,0x12f6c
   12f60:    9bf1                andi    a5,a5,-4
   12f62:    0306                slli    t1,t1,0x1
   12f64:    006776b3            and     a3,a4,t1
   12f68:    2791                addiw   a5,a5,4
   12f6a:    dee5                beqz    a3,0x12f62
   12f6c:    4e7d                li      t3,31
   12f6e:    0017871b            addiw   a4,a5,1
   12f72:    0017171b            slliw   a4,a4,0x1
   12f76:    070e                slli    a4,a4,0x3
   12f78:    1741                addi    a4,a4,-16
   12f7a:    974a                add     a4,a4,s2
   12f7c:    883a                mv      a6,a4
   12f7e:    853e                mv      a0,a5
   12f80:    01883403            ld      s0,24(a6)
   12f84:    15041e63            bne     s0,a6,0x130e0
   12f88:    2505                addiw   a0,a0,1
   12f8a:    00357693            andi    a3,a0,3
   12f8e:    0841                addi    a6,a6,16
   12f90:    fae5                bnez    a3,0x12f80
   12f92:    0037f693            andi    a3,a5,3
   12f96:    18069e63            bnez    a3,0x13132
   12f9a:    00893703            ld      a4,8(s2)
   12f9e:    fff34793            not     a5,t1
   12fa2:    8ff9                and     a5,a5,a4
   12fa4:    00f93423            sd      a5,8(s2)
   12fa8:    00893703            ld      a4,8(s2)
   12fac:    0306                slli    t1,t1,0x1
   12fae:    00676463            bltu    a4,t1,0x12fb6
   12fb2:    18031c63            bnez    t1,0x1314a
   12fb6:    01093b83            ld      s7,16(s2)
   12fba:    008bb403            ld      s0,8(s7)
   12fbe:    ffc47a93            andi    s5,s0,-4
   12fc2:    009ae763            bltu    s5,s1,0x12fd0
   12fc6:    409a8733            sub     a4,s5,s1
   12fca:    47fd                li      a5,31
   12fcc:    26e7c263            blt     a5,a4,0x13230
   12fd0:    8a81b403            ld      s0,-1880(gp)
   12fd4:    8801b703            ld      a4,-1920(gp)
   12fd8:    57fd                li      a5,-1
   12fda:    015b8cb3            add     s9,s7,s5
   12fde:    9426                add     s0,s0,s1
   12fe0:    16f71763            bne     a4,a5,0x1314e
   12fe4:    02040413            addi    s0,s0,32
   12fe8:    85a2                mv      a1,s0
   12fea:    854e                mv      a0,s3
   12fec:    165000ef            jal     ra,0x13950
   12ff0:    57fd                li      a5,-1
   12ff2:    8b2a                mv      s6,a0
   12ff4:    1ef50363            beq     a0,a5,0x131da
   12ff8:    01957463            bgeu    a0,s9,0x13000
   12ffc:    1d2b9f63            bne     s7,s2,0x131da
   13000:    8f018693            addi    a3,gp,-1808
   13004:    4298                lw      a4,0(a3)
   13006:    8f018c13            addi    s8,gp,-1808
   1300a:    9f21                addw    a4,a4,s0
   1300c:    c298                sw      a4,0(a3)
   1300e:    156c9663            bne     s9,s6,0x1315a
   13012:    034c9793            slli    a5,s9,0x34
   13016:    14079263            bnez    a5,0x1315a
   1301a:    01093783            ld      a5,16(s2)
   1301e:    9456                add     s0,s0,s5
   13020:    00146413            ori     s0,s0,1
   13024:    e780                sd      s0,8(a5)
   13026:    000c2783            lw      a5,0(s8)
   1302a:    8a01b683            ld      a3,-1888(gp)
   1302e:    00f6f463            bgeu    a3,a5,0x13036
   13032:    8af1b023            sd      a5,-1888(gp)
   13036:    8981b683            ld      a3,-1896(gp)
   1303a:    1af6f063            bgeu    a3,a5,0x131da
   1303e:    88f1bc23            sd      a5,-1896(gp)
   13042:    aa61                j       0x131da
   13044:    00975613            srli    a2,a4,0x9
   13048:    4691                li      a3,4
   1304a:    02c6ef63            bltu    a3,a2,0x13088
   1304e:    00675693            srli    a3,a4,0x6
   13052:    0386869b            addiw   a3,a3,56
   13056:    0016861b            addiw   a2,a3,1
   1305a:    0016161b            slliw   a2,a2,0x1
   1305e:    060e                slli    a2,a2,0x3
   13060:    964a                add     a2,a2,s2
   13062:    ff060513            addi    a0,a2,-16 # 0xffffffffffffeff0
   13066:    6210                ld      a2,0(a2)
   13068:    06c51663            bne     a0,a2,0x130d4
   1306c:    4026d69b            sraiw   a3,a3,0x2
   13070:    4705                li      a4,1
   13072:    00d716b3            sll     a3,a4,a3
   13076:    0106e6b3            or      a3,a3,a6
   1307a:    00d93423            sd      a3,8(s2)
   1307e:    ec08                sd      a0,24(s0)
   13080:    e810                sd      a2,16(s0)
   13082:    e900                sd      s0,16(a0)
   13084:    ee00                sd      s0,24(a2)
   13086:    b5c9                j       0x12f48
   13088:    46d1                li      a3,20
   1308a:    00c6e563            bltu    a3,a2,0x13094
   1308e:    05b6069b            addiw   a3,a2,91
   13092:    b7d1                j       0x13056
   13094:    05400693            li      a3,84
   13098:    00c6e763            bltu    a3,a2,0x130a6
   1309c:    00c75693            srli    a3,a4,0xc
   130a0:    06e6869b            addiw   a3,a3,110
   130a4:    bf4d                j       0x13056
   130a6:    15400693            li      a3,340
   130aa:    00c6e763            bltu    a3,a2,0x130b8
   130ae:    00f75693            srli    a3,a4,0xf
   130b2:    0776869b            addiw   a3,a3,119
   130b6:    b745                j       0x13056
   130b8:    55400513            li      a0,1364
   130bc:    07e00693            li      a3,126
   130c0:    f8c56be3            bltu    a0,a2,0x13056
   130c4:    01275693            srli    a3,a4,0x12
   130c8:    07c6869b            addiw   a3,a3,124
   130cc:    b769                j       0x13056
   130ce:    6a10                ld      a2,16(a2)
   130d0:    00c50663            beq     a0,a2,0x130dc
   130d4:    6614                ld      a3,8(a2)
   130d6:    9af1                andi    a3,a3,-4
   130d8:    fed76be3            bltu    a4,a3,0x130ce
   130dc:    6e08                ld      a0,24(a2)
   130de:    b745                j       0x1307e
   130e0:    6414                ld      a3,8(s0)
   130e2:    6c10                ld      a2,24(s0)
   130e4:    9af1                andi    a3,a3,-4
   130e6:    409688b3            sub     a7,a3,s1
   130ea:    031e5763            bge     t3,a7,0x13118
   130ee:    0014e793            ori     a5,s1,1
   130f2:    e41c                sd      a5,8(s0)
   130f4:    681c                ld      a5,16(s0)
   130f6:    00940733            add     a4,s0,s1
   130fa:    96a2                add     a3,a3,s0
   130fc:    ef90                sd      a2,24(a5)
   130fe:    ea1c                sd      a5,16(a2)
   13100:    02e93423            sd      a4,40(s2)
   13104:    02e93023            sd      a4,32(s2)
   13108:    0018e793            ori     a5,a7,1
   1310c:    ef0c                sd      a1,24(a4)
   1310e:    eb0c                sd      a1,16(a4)
   13110:    e71c                sd      a5,8(a4)
   13112:    0116b023            sd      a7,0(a3) # 0x2000
   13116:    bba5                j       0x12e8e
   13118:    0008cb63            bltz    a7,0x1312e
   1311c:    96a2                add     a3,a3,s0
   1311e:    669c                ld      a5,8(a3)
   13120:    0017e793            ori     a5,a5,1
   13124:    e69c                sd      a5,8(a3)
   13126:    681c                ld      a5,16(s0)
   13128:    ef90                sd      a2,24(a5)
   1312a:    ea1c                sd      a5,16(a2)
   1312c:    b38d                j       0x12e8e
   1312e:    8432                mv      s0,a2
   13130:    bd91                j       0x12f84
   13132:    1741                addi    a4,a4,-16
   13134:    6b14                ld      a3,16(a4)
   13136:    37fd                addiw   a5,a5,-1
   13138:    e4e68de3            beq     a3,a4,0x12f92
   1313c:    b5b5                j       0x12fa8
   1313e:    2791                addiw   a5,a5,4
   13140:    0306                slli    t1,t1,0x1
   13142:    006776b3            and     a3,a4,t1
   13146:    dee5                beqz    a3,0x1313e
   13148:    b51d                j       0x12f6e
   1314a:    87aa                mv      a5,a0
   1314c:    bfdd                j       0x13142
   1314e:    6705                lui     a4,0x1
   13150:    077d                addi    a4,a4,31
   13152:    943a                add     s0,s0,a4
   13154:    77fd                lui     a5,0xfffff
   13156:    8c7d                and     s0,s0,a5
   13158:    bd41                j       0x12fe8
   1315a:    8801b683            ld      a3,-1920(gp)
   1315e:    57fd                li      a5,-1
   13160:    08f69c63            bne     a3,a5,0x131f8
   13164:    8961b023            sd      s6,-1920(gp)
   13168:    00fb7c93            andi    s9,s6,15
   1316c:    4781                li      a5,0
   1316e:    000c8663            beqz    s9,0x1317a
   13172:    47c1                li      a5,16
   13174:    419787b3            sub     a5,a5,s9
   13178:    9b3e                add     s6,s6,a5
   1317a:    6505                lui     a0,0x1
   1317c:    00a78a33            add     s4,a5,a0
   13180:    945a                add     s0,s0,s6
   13182:    157d                addi    a0,a0,-1
   13184:    00a477b3            and     a5,s0,a0
   13188:    40fa0a33            sub     s4,s4,a5
   1318c:    00aa7a33            and     s4,s4,a0
   13190:    85d2                mv      a1,s4
   13192:    854e                mv      a0,s3
   13194:    7bc000ef            jal     ra,0x13950
   13198:    57fd                li      a5,-1
   1319a:    00f51963            bne     a0,a5,0x131ac
   1319e:    8522                mv      a0,s0
   131a0:    000c8563            beqz    s9,0x131aa
   131a4:    ff0c8513            addi    a0,s9,-16
   131a8:    9522                add     a0,a0,s0
   131aa:    4a01                li      s4,0
   131ac:    000c2783            lw      a5,0(s8)
   131b0:    41650533            sub     a0,a0,s6
   131b4:    01693823            sd      s6,16(s2)
   131b8:    014787bb            addw    a5,a5,s4
   131bc:    9a2a                add     s4,s4,a0
   131be:    001a6a13            ori     s4,s4,1
   131c2:    00fc2023            sw      a5,0(s8)
   131c6:    014b3423            sd      s4,8(s6) # 0xffffffff80000008
   131ca:    e52b8ee3            beq     s7,s2,0x13026
   131ce:    477d                li      a4,31
   131d0:    03576a63            bltu    a4,s5,0x13204
   131d4:    4785                li      a5,1
   131d6:    00fb3423            sd      a5,8(s6)
   131da:    01093783            ld      a5,16(s2)
   131de:    679c                ld      a5,8(a5)
   131e0:    9bf1                andi    a5,a5,-4
   131e2:    40978733            sub     a4,a5,s1
   131e6:    0097e563            bltu    a5,s1,0x131f0
   131ea:    47fd                li      a5,31
   131ec:    04e7c263            blt     a5,a4,0x13230
   131f0:    854e                mv      a0,s3
   131f2:    22a000ef            jal     ra,0x1341c
   131f6:    b645                j       0x12d96
   131f8:    419b07b3            sub     a5,s6,s9
   131fc:    9fb9                addw    a5,a5,a4
   131fe:    00fc2023            sw      a5,0(s8)
   13202:    b79d                j       0x13168
   13204:    008bb783            ld      a5,8(s7)
   13208:    fe8a8413            addi    s0,s5,-24
   1320c:    9841                andi    s0,s0,-16
   1320e:    8b85                andi    a5,a5,1
   13210:    8fc1                or      a5,a5,s0
   13212:    00fbb423            sd      a5,8(s7)
   13216:    46a5                li      a3,9
   13218:    008b87b3            add     a5,s7,s0
   1321c:    e794                sd      a3,8(a5)
   1321e:    eb94                sd      a3,16(a5)
   13220:    e08773e3            bgeu    a4,s0,0x13026
   13224:    010b8593            addi    a1,s7,16
   13228:    854e                mv      a0,s3
   1322a:    33f030ef            jal     ra,0x16d68
   1322e:    bbe5                j       0x13026
   13230:    01093403            ld      s0,16(s2)
   13234:    0014e793            ori     a5,s1,1
   13238:    e41c                sd      a5,8(s0)
   1323a:    009407b3            add     a5,s0,s1
   1323e:    00f93823            sd      a5,16(s2)
   13242:    b6c9                j       0x12e04
   13244:    8781b783            ld      a5,-1928(gp)
   13248:    1101                addi    sp,sp,-32
   1324a:    e822                sd      s0,16(sp)
   1324c:    e426                sd      s1,8(sp)
   1324e:    ec06                sd      ra,24(sp)
   13250:    842a                mv      s0,a0
   13252:    84ba                mv      s1,a4
   13254:    67bc                ld      a5,72(a5)
   13256:    ee0d                bnez    a2,0x13290
   13258:    e789                bnez    a5,0x13262
   1325a:    0001f7b7            lui     a5,0x1f
   1325e:    36878793            addi    a5,a5,872 # 0x1f368
   13262:    77fc                ld      a5,232(a5)
   13264:    0001d637            lui     a2,0x1d
   13268:    8726                mv      a4,s1
   1326a:    4685                li      a3,1
   1326c:    37860613            addi    a2,a2,888 # 0x1d378
   13270:    4581                li      a1,0
   13272:    8522                mv      a0,s0
   13274:    9782                jalr    a5
   13276:    57fd                li      a5,-1
   13278:    00f51763            bne     a0,a5,0x13286
   1327c:    0004a023            sw      zero,0(s1)
   13280:    08a00793            li      a5,138
   13284:    c01c                sw      a5,0(s0)
   13286:    60e2                ld      ra,24(sp)
   13288:    6442                ld      s0,16(sp)
   1328a:    64a2                ld      s1,8(sp)
   1328c:    6105                addi    sp,sp,32
   1328e:    8082                ret

   13290:    e789                bnez    a5,0x1329a
   13292:    0001f7b7            lui     a5,0x1f
   13296:    36878793            addi    a5,a5,872 # 0x1f368
   1329a:    77fc                ld      a5,232(a5)
   1329c:    8726                mv      a4,s1
   1329e:    bfd1                j       0x13272
   132a0:    8736                mv      a4,a3
   132a2:    86b2                mv      a3,a2
   132a4:    862e                mv      a2,a1
   132a6:    85aa                mv      a1,a0
   132a8:    8781b503            ld      a0,-1928(gp)
   132ac:    f99ff06f            j       0x13244
   132b0:    8781b783            ld      a5,-1928(gp)
   132b4:    67bc                ld      a5,72(a5)
   132b6:    e789                bnez    a5,0x132c0
   132b8:    0001f7b7            lui     a5,0x1f
   132bc:    36878793            addi    a5,a5,872 # 0x1f368
   132c0:    0e87b303            ld      t1,232(a5)
   132c4:    8302                jr      t1
   132c6:    e185                bnez    a1,0x132e6
   132c8:    1141                addi    sp,sp,-16
   132ca:    006c                addi    a1,sp,12
   132cc:    4501                li      a0,0
   132ce:    ca11                beqz    a2,0x132e2
   132d0:    5579                li      a0,-2
   132d2:    ca81                beqz    a3,0x132e2
   132d4:    00064783            lbu     a5,0(a2)
   132d8:    c19c                sw      a5,0(a1)
   132da:    00064503            lbu     a0,0(a2)
   132de:    00a03533            snez    a0,a0
   132e2:    0141                addi    sp,sp,16
   132e4:    8082                ret

   132e6:    4501                li      a0,0
   132e8:    ca19                beqz    a2,0x132fe
   132ea:    5579                li      a0,-2
   132ec:    ca89                beqz    a3,0x132fe
   132ee:    00064783            lbu     a5,0(a2)
   132f2:    c19c                sw      a5,0(a1)
   132f4:    00064503            lbu     a0,0(a2)
   132f8:    00a03533            snez    a0,a0
   132fc:    8082                ret

   132fe:    8082                ret

   13300:    0ff5f593            andi    a1,a1,255
   13304:    962a                add     a2,a2,a0
   13306:    00c51463            bne     a0,a2,0x1330e
   1330a:    4501                li      a0,0
   1330c:    8082                ret

   1330e:    00054783            lbu     a5,0(a0) # 0x1000
   13312:    feb78de3            beq     a5,a1,0x1330c
   13316:    0505                addi    a0,a0,1
   13318:    b7fd                j       0x13306
   1331a:    00a5c7b3            xor     a5,a1,a0
   1331e:    8b9d                andi    a5,a5,7
   13320:    00c50733            add     a4,a0,a2
   13324:    e781                bnez    a5,0x1332c
   13326:    479d                li      a5,7
   13328:    00c7ee63            bltu    a5,a2,0x13344
   1332c:    87aa                mv      a5,a0
   1332e:    0ae57063            bgeu    a0,a4,0x133ce
   13332:    0005c683            lbu     a3,0(a1)
   13336:    0785                addi    a5,a5,1
   13338:    0585                addi    a1,a1,1
   1333a:    fed78fa3            sb      a3,-1(a5)
   1333e:    fee7eae3            bltu    a5,a4,0x13332
   13342:    8082                ret

   13344:    00757693            andi    a3,a0,7
   13348:    87aa                mv      a5,a0
   1334a:    ca91                beqz    a3,0x1335e
   1334c:    0005c683            lbu     a3,0(a1)
   13350:    0785                addi    a5,a5,1
   13352:    0585                addi    a1,a1,1
   13354:    fed78fa3            sb      a3,-1(a5)
   13358:    0077f693            andi    a3,a5,7
   1335c:    b7fd                j       0x1334a
   1335e:    ff877693            andi    a3,a4,-8
   13362:    fc068613            addi    a2,a3,-64
   13366:    06c7f063            bgeu    a5,a2,0x133c6
   1336a:    0005b383            ld      t2,0(a1)
   1336e:    0085b283            ld      t0,8(a1)
   13372:    0105bf83            ld      t6,16(a1)
   13376:    0185bf03            ld      t5,24(a1)
   1337a:    0205be83            ld      t4,32(a1)
   1337e:    0285be03            ld      t3,40(a1)
   13382:    0305b303            ld      t1,48(a1)
   13386:    0385b883            ld      a7,56(a1)
   1338a:    04858593            addi    a1,a1,72
   1338e:    0077b023            sd      t2,0(a5)
   13392:    ff85b803            ld      a6,-8(a1)
   13396:    0057b423            sd      t0,8(a5)
   1339a:    01f7b823            sd      t6,16(a5)
   1339e:    01e7bc23            sd      t5,24(a5)
   133a2:    03d7b023            sd      t4,32(a5)
   133a6:    03c7b423            sd      t3,40(a5)
   133aa:    0267b823            sd      t1,48(a5)
   133ae:    0317bc23            sd      a7,56(a5)
   133b2:    04878793            addi    a5,a5,72
   133b6:    ff07bc23            sd      a6,-8(a5)
   133ba:    b775                j       0x13366
   133bc:    6190                ld      a2,0(a1)
   133be:    07a1                addi    a5,a5,8
   133c0:    05a1                addi    a1,a1,8
   133c2:    fec7bc23            sd      a2,-8(a5)
   133c6:    fed7ebe3            bltu    a5,a3,0x133bc
   133ca:    f6e7e4e3            bltu    a5,a4,0x13332
   133ce:    8082                ret

   133d0:    04a5f363            bgeu    a1,a0,0x13416
   133d4:    00c586b3            add     a3,a1,a2
   133d8:    02d57f63            bgeu    a0,a3,0x13416
   133dc:    fff64593            not     a1,a2
   133e0:    4781                li      a5,0
   133e2:    17fd                addi    a5,a5,-1
   133e4:    00f59363            bne     a1,a5,0x133ea
   133e8:    8082                ret

   133ea:    00f68733            add     a4,a3,a5
   133ee:    00074803            lbu     a6,0(a4) # 0x1000
   133f2:    00c78733            add     a4,a5,a2
   133f6:    972a                add     a4,a4,a0
   133f8:    01070023            sb      a6,0(a4)
   133fc:    b7dd                j       0x133e2
   133fe:    00f58733            add     a4,a1,a5
   13402:    00074683            lbu     a3,0(a4)
   13406:    00f50733            add     a4,a0,a5
   1340a:    0785                addi    a5,a5,1
   1340c:    00d70023            sb      a3,0(a4)
   13410:    fef617e3            bne     a2,a5,0x133fe
   13414:    8082                ret

   13416:    4781                li      a5,0
   13418:    bfe5                j       0x13410
   1341a:    8082                ret

   1341c:    8082                ret

   1341e:    862e                mv      a2,a1
   13420:    85aa                mv      a1,a0
   13422:    8781b503            ld      a0,-1928(gp)
   13426:    0040006f            j       0x1342a
   1342a:    711d                addi    sp,sp,-96
   1342c:    e8a2                sd      s0,80(sp)
   1342e:    ec86                sd      ra,88(sp)
   13430:    842e                mv      s0,a1
   13432:    e4a6                sd      s1,72(sp)
   13434:    e0ca                sd      s2,64(sp)
   13436:    fc4e                sd      s3,56(sp)
   13438:    f852                sd      s4,48(sp)
   1343a:    f456                sd      s5,40(sp)
   1343c:    f05a                sd      s6,32(sp)
   1343e:    ec5e                sd      s7,24(sp)
   13440:    e862                sd      s8,16(sp)
   13442:    85b2                mv      a1,a2
   13444:    ec11                bnez    s0,0x13460
   13446:    6446                ld      s0,80(sp)
   13448:    60e6                ld      ra,88(sp)
   1344a:    64a6                ld      s1,72(sp)
   1344c:    6906                ld      s2,64(sp)
   1344e:    79e2                ld      s3,56(sp)
   13450:    7a42                ld      s4,48(sp)
   13452:    7aa2                ld      s5,40(sp)
   13454:    7b02                ld      s6,32(sp)
   13456:    6be2                ld      s7,24(sp)
   13458:    6c42                ld      s8,16(sp)
   1345a:    6125                addi    sp,sp,96
   1345c:    903ff06f            j       0x12d5e
   13460:    8aaa                mv      s5,a0
   13462:    e432                sd      a2,8(sp)
   13464:    fb7ff0ef            jal     ra,0x1341a
   13468:    65a2                ld      a1,8(sp)
   1346a:    ff843683            ld      a3,-8(s0)
   1346e:    02e00793            li      a5,46
   13472:    01758993            addi    s3,a1,23
   13476:    ff040b93            addi    s7,s0,-16
   1347a:    ffc6f913            andi    s2,a3,-4
   1347e:    0337fb63            bgeu    a5,s3,0x134b4
   13482:    800007b7            lui     a5,0x80000
   13486:    ff09fb13            andi    s6,s3,-16
   1348a:    fff7c793            not     a5,a5
   1348e:    0367f563            bgeu    a5,s6,0x134b8
   13492:    47b1                li      a5,12
   13494:    00faa023            sw      a5,0(s5)
   13498:    4a01                li      s4,0
   1349a:    60e6                ld      ra,88(sp)
   1349c:    6446                ld      s0,80(sp)
   1349e:    8552                mv      a0,s4
   134a0:    64a6                ld      s1,72(sp)
   134a2:    6906                ld      s2,64(sp)
   134a4:    79e2                ld      s3,56(sp)
   134a6:    7a42                ld      s4,48(sp)
   134a8:    7aa2                ld      s5,40(sp)
   134aa:    7b02                ld      s6,32(sp)
   134ac:    6be2                ld      s7,24(sp)
   134ae:    6c42                ld      s8,16(sp)
   134b0:    6125                addi    sp,sp,96
   134b2:    8082                ret

   134b4:    02000b13            li      s6,32
   134b8:    fcbb6de3            bltu    s6,a1,0x13492
   134bc:    33695163            bge     s2,s6,0x137de
   134c0:    0001fc37            lui     s8,0x1f
   134c4:    510c0713            addi    a4,s8,1296 # 0x1f510
   134c8:    6b10                ld      a2,16(a4)
   134ca:    012b87b3            add     a5,s7,s2
   134ce:    6798                ld      a4,8(a5)
   134d0:    510c0c13            addi    s8,s8,1296
   134d4:    00f60863            beq     a2,a5,0x134e4
   134d8:    ffe77513            andi    a0,a4,-2
   134dc:    953e                add     a0,a0,a5
   134de:    6508                ld      a0,8(a0)
   134e0:    8905                andi    a0,a0,1
   134e2:    e921                bnez    a0,0x13532
   134e4:    9b71                andi    a4,a4,-4
   134e6:    00e909b3            add     s3,s2,a4
   134ea:    02f61c63            bne     a2,a5,0x13522
   134ee:    020b0513            addi    a0,s6,32
   134f2:    04a9c263            blt     s3,a0,0x13536
   134f6:    9bda                add     s7,s7,s6
   134f8:    416989b3            sub     s3,s3,s6
   134fc:    017c3823            sd      s7,16(s8)
   13500:    0019e993            ori     s3,s3,1
   13504:    013bb423            sd      s3,8(s7)
   13508:    ff843983            ld      s3,-8(s0)
   1350c:    8556                mv      a0,s5
   1350e:    8a22                mv      s4,s0
   13510:    0019f993            andi    s3,s3,1
   13514:    0169e9b3            or      s3,s3,s6
   13518:    ff343c23            sd      s3,-8(s0)
   1351c:    f01ff0ef            jal     ra,0x1341c
   13520:    bfad                j       0x1349a
   13522:    0169ca63            blt     s3,s6,0x13536
   13526:    6f98                ld      a4,24(a5)
   13528:    6b9c                ld      a5,16(a5)
   1352a:    ef98                sd      a4,24(a5)
   1352c:    eb1c                sd      a5,16(a4)
   1352e:    84de                mv      s1,s7
   13530:    a205                j       0x13650
   13532:    4701                li      a4,0
   13534:    4781                li      a5,0
   13536:    8a85                andi    a3,a3,1
   13538:    20069363            bnez    a3,0x1373e
   1353c:    ff043483            ld      s1,-16(s0)
   13540:    409b84b3            sub     s1,s7,s1
   13544:    0084ba03            ld      s4,8(s1)
   13548:    ffca7a13            andi    s4,s4,-4
   1354c:    9a4a                add     s4,s4,s2
   1354e:    16078a63            beqz    a5,0x136c2
   13552:    014709b3            add     s3,a4,s4
   13556:    0af61663            bne     a2,a5,0x13602
   1355a:    020b0793            addi    a5,s6,32
   1355e:    16f9c263            blt     s3,a5,0x136c2
   13562:    6898                ld      a4,16(s1)
   13564:    6c9c                ld      a5,24(s1)
   13566:    ff890613            addi    a2,s2,-8
   1356a:    01048a13            addi    s4,s1,16
   1356e:    ef1c                sd      a5,24(a4)
   13570:    eb98                sd      a4,16(a5)
   13572:    04800713            li      a4,72
   13576:    08c76163            bltu    a4,a2,0x135f8
   1357a:    02700693            li      a3,39
   1357e:    87d2                mv      a5,s4
   13580:    00c6fd63            bgeu    a3,a2,0x1359a
   13584:    601c                ld      a5,0(s0)
   13586:    e89c                sd      a5,16(s1)
   13588:    641c                ld      a5,8(s0)
   1358a:    ec9c                sd      a5,24(s1)
   1358c:    03700793            li      a5,55
   13590:    02c7ef63            bltu    a5,a2,0x135ce
   13594:    0441                addi    s0,s0,16
   13596:    02048793            addi    a5,s1,32
   1359a:    6018                ld      a4,0(s0)
   1359c:    e398                sd      a4,0(a5)
   1359e:    6418                ld      a4,8(s0)
   135a0:    e798                sd      a4,8(a5)
   135a2:    6818                ld      a4,16(s0)
   135a4:    eb98                sd      a4,16(a5)
   135a6:    016487b3            add     a5,s1,s6
   135aa:    416989b3            sub     s3,s3,s6
   135ae:    00fc3823            sd      a5,16(s8)
   135b2:    0019e993            ori     s3,s3,1
   135b6:    0137b423            sd      s3,8(a5) # 0xffffffff80000008
   135ba:    649c                ld      a5,8(s1)
   135bc:    8b85                andi    a5,a5,1
   135be:    0167e9b3            or      s3,a5,s6
   135c2:    0134b423            sd      s3,8(s1)
   135c6:    8556                mv      a0,s5
   135c8:    e55ff0ef            jal     ra,0x1341c
   135cc:    b5f9                j       0x1349a
   135ce:    681c                ld      a5,16(s0)
   135d0:    f09c                sd      a5,32(s1)
   135d2:    6c1c                ld      a5,24(s0)
   135d4:    f49c                sd      a5,40(s1)
   135d6:    00e60763            beq     a2,a4,0x135e4
   135da:    02040413            addi    s0,s0,32
   135de:    03048793            addi    a5,s1,48
   135e2:    bf65                j       0x1359a
   135e4:    701c                ld      a5,32(s0)
   135e6:    03040413            addi    s0,s0,48
   135ea:    f89c                sd      a5,48(s1)
   135ec:    ff843703            ld      a4,-8(s0)
   135f0:    04048793            addi    a5,s1,64
   135f4:    fc98                sd      a4,56(s1)
   135f6:    b755                j       0x1359a
   135f8:    85a2                mv      a1,s0
   135fa:    8552                mv      a0,s4
   135fc:    dd5ff0ef            jal     ra,0x133d0
   13600:    b75d                j       0x135a6
   13602:    0d69c063            blt     s3,s6,0x136c2
   13606:    6f98                ld      a4,24(a5)
   13608:    6b9c                ld      a5,16(a5)
   1360a:    ff890613            addi    a2,s2,-8
   1360e:    01048513            addi    a0,s1,16
   13612:    ef98                sd      a4,24(a5)
   13614:    eb1c                sd      a5,16(a4)
   13616:    6898                ld      a4,16(s1)
   13618:    6c9c                ld      a5,24(s1)
   1361a:    ef1c                sd      a5,24(a4)
   1361c:    eb98                sd      a4,16(a5)
   1361e:    04800793            li      a5,72
   13622:    08c7ec63            bltu    a5,a2,0x136ba
   13626:    02700713            li      a4,39
   1362a:    00c77d63            bgeu    a4,a2,0x13644
   1362e:    6018                ld      a4,0(s0)
   13630:    e898                sd      a4,16(s1)
   13632:    6418                ld      a4,8(s0)
   13634:    ec98                sd      a4,24(s1)
   13636:    03700713            li      a4,55
   1363a:    04c76b63            bltu    a4,a2,0x13690
   1363e:    0441                addi    s0,s0,16
   13640:    02048513            addi    a0,s1,32
   13644:    601c                ld      a5,0(s0)
   13646:    e11c                sd      a5,0(a0)
   13648:    641c                ld      a5,8(s0)
   1364a:    e51c                sd      a5,8(a0)
   1364c:    681c                ld      a5,16(s0)
   1364e:    e91c                sd      a5,16(a0)
   13650:    6498                ld      a4,8(s1)
   13652:    416986b3            sub     a3,s3,s6
   13656:    467d                li      a2,31
   13658:    8b05                andi    a4,a4,1
   1365a:    013487b3            add     a5,s1,s3
   1365e:    18d67263            bgeu    a2,a3,0x137e2
   13662:    00eb69b3            or      s3,s6,a4
   13666:    0134b423            sd      s3,8(s1)
   1366a:    016485b3            add     a1,s1,s6
   1366e:    0016e693            ori     a3,a3,1
   13672:    e594                sd      a3,8(a1)
   13674:    6798                ld      a4,8(a5)
   13676:    05c1                addi    a1,a1,16
   13678:    8556                mv      a0,s5
   1367a:    00176713            ori     a4,a4,1
   1367e:    e798                sd      a4,8(a5)
   13680:    6e8030ef            jal     ra,0x16d68
   13684:    8556                mv      a0,s5
   13686:    d97ff0ef            jal     ra,0x1341c
   1368a:    01048a13            addi    s4,s1,16
   1368e:    b531                j       0x1349a
   13690:    6818                ld      a4,16(s0)
   13692:    f098                sd      a4,32(s1)
   13694:    6c18                ld      a4,24(s0)
   13696:    f498                sd      a4,40(s1)
   13698:    00f60763            beq     a2,a5,0x136a6
   1369c:    02040413            addi    s0,s0,32
   136a0:    03048513            addi    a0,s1,48
   136a4:    b745                j       0x13644
   136a6:    701c                ld      a5,32(s0)
   136a8:    04048513            addi    a0,s1,64
   136ac:    03040413            addi    s0,s0,48
   136b0:    f89c                sd      a5,48(s1)
   136b2:    ff843783            ld      a5,-8(s0)
   136b6:    fc9c                sd      a5,56(s1)
   136b8:    b771                j       0x13644
   136ba:    85a2                mv      a1,s0
   136bc:    d15ff0ef            jal     ra,0x133d0
   136c0:    bf41                j       0x13650
   136c2:    076a4e63            blt     s4,s6,0x1373e
   136c6:    6c9c                ld      a5,24(s1)
   136c8:    6898                ld      a4,16(s1)
   136ca:    ff890613            addi    a2,s2,-8
   136ce:    01048513            addi    a0,s1,16
   136d2:    ef1c                sd      a5,24(a4)
   136d4:    eb98                sd      a4,16(a5)
   136d6:    04800793            li      a5,72
   136da:    04c7ee63            bltu    a5,a2,0x13736
   136de:    02700713            li      a4,39
   136e2:    00c77d63            bgeu    a4,a2,0x136fc
   136e6:    6018                ld      a4,0(s0)
   136e8:    e898                sd      a4,16(s1)
   136ea:    6418                ld      a4,8(s0)
   136ec:    ec98                sd      a4,24(s1)
   136ee:    03700713            li      a4,55
   136f2:    00c76d63            bltu    a4,a2,0x1370c
   136f6:    0441                addi    s0,s0,16
   136f8:    02048513            addi    a0,s1,32
   136fc:    601c                ld      a5,0(s0)
   136fe:    e11c                sd      a5,0(a0)
   13700:    641c                ld      a5,8(s0)
   13702:    e51c                sd      a5,8(a0)
   13704:    681c                ld      a5,16(s0)
   13706:    e91c                sd      a5,16(a0)
   13708:    89d2                mv      s3,s4
   1370a:    b799                j       0x13650
   1370c:    6818                ld      a4,16(s0)
   1370e:    f098                sd      a4,32(s1)
   13710:    6c18                ld      a4,24(s0)
   13712:    f498                sd      a4,40(s1)
   13714:    00f60763            beq     a2,a5,0x13722
   13718:    02040413            addi    s0,s0,32
   1371c:    03048513            addi    a0,s1,48
   13720:    bff1                j       0x136fc
   13722:    701c                ld      a5,32(s0)
   13724:    04048513            addi    a0,s1,64
   13728:    03040413            addi    s0,s0,48
   1372c:    f89c                sd      a5,48(s1)
   1372e:    ff843783            ld      a5,-8(s0)
   13732:    fc9c                sd      a5,56(s1)
   13734:    b7e1                j       0x136fc
   13736:    85a2                mv      a1,s0
   13738:    c99ff0ef            jal     ra,0x133d0
   1373c:    b7f1                j       0x13708
   1373e:    8556                mv      a0,s5
   13740:    e1eff0ef            jal     ra,0x12d5e
   13744:    8a2a                mv      s4,a0
   13746:    e80500e3            beqz    a0,0x135c6
   1374a:    ff843783            ld      a5,-8(s0)
   1374e:    ff050713            addi    a4,a0,-16
   13752:    9bf9                andi    a5,a5,-2
   13754:    97de                add     a5,a5,s7
   13756:    00e79863            bne     a5,a4,0x13766
   1375a:    ff853983            ld      s3,-8(a0)
   1375e:    ffc9f993            andi    s3,s3,-4
   13762:    99ca                add     s3,s3,s2
   13764:    b3e9                j       0x1352e
   13766:    ff890613            addi    a2,s2,-8
   1376a:    04800793            li      a5,72
   1376e:    06c7e463            bltu    a5,a2,0x137d6
   13772:    02700713            li      a4,39
   13776:    04c77d63            bgeu    a4,a2,0x137d0
   1377a:    6018                ld      a4,0(s0)
   1377c:    e118                sd      a4,0(a0)
   1377e:    6418                ld      a4,8(s0)
   13780:    e518                sd      a4,8(a0)
   13782:    03700713            li      a4,55
   13786:    02c76163            bltu    a4,a2,0x137a8
   1378a:    01040713            addi    a4,s0,16
   1378e:    01050793            addi    a5,a0,16
   13792:    6314                ld      a3,0(a4)
   13794:    e394                sd      a3,0(a5)
   13796:    6714                ld      a3,8(a4)
   13798:    e794                sd      a3,8(a5)
   1379a:    6b18                ld      a4,16(a4)
   1379c:    eb98                sd      a4,16(a5)
   1379e:    85a2                mv      a1,s0
   137a0:    8556                mv      a0,s5
   137a2:    5c6030ef            jal     ra,0x16d68
   137a6:    b505                j       0x135c6
   137a8:    6818                ld      a4,16(s0)
   137aa:    e918                sd      a4,16(a0)
   137ac:    6c18                ld      a4,24(s0)
   137ae:    ed18                sd      a4,24(a0)
   137b0:    00f60763            beq     a2,a5,0x137be
   137b4:    02040713            addi    a4,s0,32
   137b8:    02050793            addi    a5,a0,32
   137bc:    bfd9                j       0x13792
   137be:    701c                ld      a5,32(s0)
   137c0:    03040713            addi    a4,s0,48
   137c4:    f11c                sd      a5,32(a0)
   137c6:    7414                ld      a3,40(s0)
   137c8:    03050793            addi    a5,a0,48
   137cc:    f514                sd      a3,40(a0)
   137ce:    b7d1                j       0x13792
   137d0:    87aa                mv      a5,a0
   137d2:    8722                mv      a4,s0
   137d4:    bf7d                j       0x13792
   137d6:    85a2                mv      a1,s0
   137d8:    bf9ff0ef            jal     ra,0x133d0
   137dc:    b7c9                j       0x1379e
   137de:    89ca                mv      s3,s2
   137e0:    b3b9                j       0x1352e
   137e2:    00e9e9b3            or      s3,s3,a4
   137e6:    0134b423            sd      s3,8(s1)
   137ea:    6798                ld      a4,8(a5)
   137ec:    00176713            ori     a4,a4,1
   137f0:    e798                sd      a4,8(a5)
   137f2:    bd49                j       0x13684
   137f4:    01055783            lhu     a5,16(a0)
   137f8:    4725                li      a4,9
   137fa:    8ba5                andi    a5,a5,9
   137fc:    00e79463            bne     a5,a4,0x13804
   13800:    4900306f            j       0x16c90
   13804:    4501                li      a0,0
   13806:    8082                ret

   13808:    7179                addi    sp,sp,-48
   1380a:    f022                sd      s0,32(sp)
   1380c:    ec26                sd      s1,24(sp)
   1380e:    f406                sd      ra,40(sp)
   13810:    e84a                sd      s2,16(sp)
   13812:    e44e                sd      s3,8(sp)
   13814:    84aa                mv      s1,a0
   13816:    842e                mv      s0,a1
   13818:    c509                beqz    a0,0x13822
   1381a:    493c                lw      a5,80(a0)
   1381c:    e399                bnez    a5,0x13822
   1381e:    e9bfe0ef            jal     ra,0x126b8
   13822:    01041783            lh      a5,16(s0)
   13826:    03279713            slli    a4,a5,0x32
   1382a:    00074d63            bltz    a4,0x13844
   1382e:    6709                lui     a4,0x2
   13830:    8fd9                or      a5,a5,a4
   13832:    00f41823            sh      a5,16(s0)
   13836:    0ac42783            lw      a5,172(s0)
   1383a:    7779                lui     a4,0xffffe
   1383c:    177d                addi    a4,a4,-1
   1383e:    8ff9                and     a5,a5,a4
   13840:    0af42623            sw      a5,172(s0)
   13844:    01041703            lh      a4,16(s0)
   13848:    00042423            sw      zero,8(s0)
   1384c:    03071793            slli    a5,a4,0x30
   13850:    93c1                srli    a5,a5,0x30
   13852:    0207f693            andi    a3,a5,32
   13856:    c299                beqz    a3,0x1385c
   13858:    557d                li      a0,-1
   1385a:    a8f9                j       0x13938
   1385c:    0047f693            andi    a3,a5,4
   13860:    eadd                bnez    a3,0x13916
   13862:    0107f693            andi    a3,a5,16
   13866:    ea81                bnez    a3,0x13876
   13868:    47a5                li      a5,9
   1386a:    c09c                sw      a5,0(s1)
   1386c:    04076713            ori     a4,a4,64
   13870:    00e41823            sh      a4,16(s0)
   13874:    b7d5                j       0x13858
   13876:    8ba1                andi    a5,a5,8
   13878:    cf99                beqz    a5,0x13896
   1387a:    85a2                mv      a1,s0
   1387c:    8526                mv      a0,s1
   1387e:    3e0030ef            jal     ra,0x16c5e
   13882:    f979                bnez    a0,0x13858
   13884:    01045783            lhu     a5,16(s0)
   13888:    00042623            sw      zero,12(s0)
   1388c:    02042423            sw      zero,40(s0)
   13890:    9bdd                andi    a5,a5,-9
   13892:    00f41823            sh      a5,16(s0)
   13896:    01045783            lhu     a5,16(s0)
   1389a:    0047e793            ori     a5,a5,4
   1389e:    00f41823            sh      a5,16(s0)
   138a2:    6c1c                ld      a5,24(s0)
   138a4:    e789                bnez    a5,0x138ae
   138a6:    85a2                mv      a1,s0
   138a8:    8526                mv      a0,s1
   138aa:    536050ef            jal     ra,0x18de0
   138ae:    01041983            lh      s3,16(s0)
   138b2:    03099913            slli    s2,s3,0x30
   138b6:    03095913            srli    s2,s2,0x30
   138ba:    00397793            andi    a5,s2,3
   138be:    c79d                beqz    a5,0x138ec
   138c0:    4785                li      a5,1
   138c2:    00f41823            sh      a5,16(s0)
   138c6:    8681b503            ld      a0,-1944(gp)
   138ca:    000135b7            lui     a1,0x13
   138ce:    7f458593            addi    a1,a1,2036 # 0x137f4
   138d2:    abeff0ef            jal     ra,0x12b90
   138d6:    00997913            andi    s2,s2,9
   138da:    01341823            sh      s3,16(s0)
   138de:    47a5                li      a5,9
   138e0:    00f91663            bne     s2,a5,0x138ec
   138e4:    85a2                mv      a1,s0
   138e6:    8526                mv      a0,s1
   138e8:    214030ef            jal     ra,0x16afc
   138ec:    6c10                ld      a2,24(s0)
   138ee:    7c1c                ld      a5,56(s0)
   138f0:    5014                lw      a3,32(s0)
   138f2:    780c                ld      a1,48(s0)
   138f4:    e010                sd      a2,0(s0)
   138f6:    8526                mv      a0,s1
   138f8:    9782                jalr    a5
   138fa:    0005071b            sext.w  a4,a0
   138fe:    c418                sw      a4,8(s0)
   13900:    4501                li      a0,0
   13902:    02e04b63            bgtz    a4,0x13938
   13906:    01041783            lh      a5,16(s0)
   1390a:    ef15                bnez    a4,0x13946
   1390c:    0207e793            ori     a5,a5,32
   13910:    00f41823            sh      a5,16(s0)
   13914:    b791                j       0x13858
   13916:    6c2c                ld      a1,88(s0)
   13918:    d5c9                beqz    a1,0x138a2
   1391a:    07440793            addi    a5,s0,116
   1391e:    00f58563            beq     a1,a5,0x13928
   13922:    8526                mv      a0,s1
   13924:    444030ef            jal     ra,0x16d68
   13928:    583c                lw      a5,112(s0)
   1392a:    04043c23            sd      zero,88(s0)
   1392e:    c41c                sw      a5,8(s0)
   13930:    dbad                beqz    a5,0x138a2
   13932:    743c                ld      a5,104(s0)
   13934:    4501                li      a0,0
   13936:    e01c                sd      a5,0(s0)
   13938:    70a2                ld      ra,40(sp)
   1393a:    7402                ld      s0,32(sp)
   1393c:    64e2                ld      s1,24(sp)
   1393e:    6942                ld      s2,16(sp)
   13940:    69a2                ld      s3,8(sp)
   13942:    6145                addi    sp,sp,48
   13944:    8082                ret

   13946:    00042423            sw      zero,8(s0)
   1394a:    0407e793            ori     a5,a5,64
   1394e:    b7c9                j       0x13910
   13950:    1101                addi    sp,sp,-32
   13952:    e822                sd      s0,16(sp)
   13954:    e426                sd      s1,8(sp)
   13956:    84aa                mv      s1,a0
   13958:    852e                mv      a0,a1
   1395a:    ec06                sd      ra,24(sp)
   1395c:    9001ac23            sw      zero,-1768(gp)
   13960:    076080ef            jal     ra,0x1b9d6
   13964:    57fd                li      a5,-1
   13966:    00f51663            bne     a0,a5,0x13972
   1396a:    9181a783            lw      a5,-1768(gp)
   1396e:    c391                beqz    a5,0x13972
   13970:    c09c                sw      a5,0(s1)
   13972:    60e2                ld      ra,24(sp)
   13974:    6442                ld      s0,16(sp)
   13976:    64a2                ld      s1,8(sp)
   13978:    6105                addi    sp,sp,32
   1397a:    8082                ret

   1397c:    0005c783            lbu     a5,0(a1)
   13980:    05e00713            li      a4,94
   13984:    04e78863            beq     a5,a4,0x139d4
   13988:    00158713            addi    a4,a1,1
   1398c:    4681                li      a3,0
   1398e:    4601                li      a2,0
   13990:    10000593            li      a1,256
   13994:    00c50833            add     a6,a0,a2
   13998:    00d80023            sb      a3,0(a6)
   1399c:    0605                addi    a2,a2,1
   1399e:    feb61be3            bne     a2,a1,0x13994
   139a2:    fff70613            addi    a2,a4,-1 # 0xffffffffffffdfff
   139a6:    c78d                beqz    a5,0x139d0
   139a8:    0016c693            xori    a3,a3,1
   139ac:    02d00893            li      a7,45
   139b0:    05d00813            li      a6,93
   139b4:    00f50633            add     a2,a0,a5
   139b8:    00d60023            sb      a3,0(a2)
   139bc:    00074583            lbu     a1,0(a4)
   139c0:    00170613            addi    a2,a4,1
   139c4:    03158563            beq     a1,a7,0x139ee
   139c8:    01058463            beq     a1,a6,0x139d0
   139cc:    e991                bnez    a1,0x139e0
   139ce:    863a                mv      a2,a4
   139d0:    8532                mv      a0,a2
   139d2:    8082                ret

   139d4:    00258713            addi    a4,a1,2
   139d8:    0015c783            lbu     a5,1(a1)
   139dc:    4685                li      a3,1
   139de:    bf45                j       0x1398e
   139e0:    0005879b            sext.w  a5,a1
   139e4:    8732                mv      a4,a2
   139e6:    b7f9                j       0x139b4
   139e8:    02d00793            li      a5,45
   139ec:    bfe5                j       0x139e4
   139ee:    00174583            lbu     a1,1(a4)
   139f2:    ff058be3            beq     a1,a6,0x139e8
   139f6:    fef5c9e3            blt     a1,a5,0x139e8
   139fa:    0709                addi    a4,a4,2
   139fc:    0017861b            addiw   a2,a5,1
   13a00:    00c50333            add     t1,a0,a2
   13a04:    0006079b            sext.w  a5,a2
   13a08:    0605                addi    a2,a2,1
   13a0a:    00d30023            sb      a3,0(t1) # 0xfffffffffffff000
   13a0e:    fff6031b            addiw   t1,a2,-1
   13a12:    feb347e3            blt     t1,a1,0x13a00
   13a16:    b75d                j       0x139bc
   13a18:    000207b7            lui     a5,0x20
   13a1c:    d987a507            flw     fa0,-616(a5) # 0x1fd98
   13a20:    8082                ret

   13a22:    7111                addi    sp,sp,-256
   13a24:    f5be                sd      a5,232(sp)
   13a26:    800007b7            lui     a5,0x80000
   13a2a:    fff7c793            not     a5,a5
   13a2e:    d83e                sw      a5,48(sp)
   13a30:    ce3e                sw      a5,28(sp)
   13a32:    77c1                lui     a5,0xffff0
   13a34:    edb6                sd      a3,216(sp)
   13a36:    e82e                sd      a1,16(sp)
   13a38:    f42e                sd      a1,40(sp)
   13a3a:    2087879b            addiw   a5,a5,520
   13a3e:    09b4                addi    a3,sp,216
   13a40:    080c                addi    a1,sp,16
   13a42:    e586                sd      ra,200(sp)
   13a44:    d03e                sw      a5,32(sp)
   13a46:    f1ba                sd      a4,224(sp)
   13a48:    f9c2                sd      a6,240(sp)
   13a4a:    fdc6                sd      a7,248(sp)
   13a4c:    e436                sd      a3,8(sp)
   13a4e:    794010ef            jal     ra,0x151e2
   13a52:    67c2                ld      a5,16(sp)
   13a54:    00078023            sb      zero,0(a5) # 0xffffffffffff0000
   13a58:    60ae                ld      ra,200(sp)
   13a5a:    6111                addi    sp,sp,256
   13a5c:    8082                ret

   13a5e:    7111                addi    sp,sp,-256
   13a60:    f5be                sd      a5,232(sp)
   13a62:    800007b7            lui     a5,0x80000
   13a66:    fff7c793            not     a5,a5
   13a6a:    d83e                sw      a5,48(sp)
   13a6c:    ce3e                sw      a5,28(sp)
   13a6e:    77c1                lui     a5,0xffff0
   13a70:    2087879b            addiw   a5,a5,520
   13a74:    d03e                sw      a5,32(sp)
   13a76:    e82a                sd      a0,16(sp)
   13a78:    f42a                sd      a0,40(sp)
   13a7a:    8781b503            ld      a0,-1928(gp)
   13a7e:    e9b2                sd      a2,208(sp)
   13a80:    edb6                sd      a3,216(sp)
   13a82:    862e                mv      a2,a1
   13a84:    0994                addi    a3,sp,208
   13a86:    080c                addi    a1,sp,16
   13a88:    e586                sd      ra,200(sp)
   13a8a:    f1ba                sd      a4,224(sp)
   13a8c:    f9c2                sd      a6,240(sp)
   13a8e:    fdc6                sd      a7,248(sp)
   13a90:    e436                sd      a3,8(sp)
   13a92:    750010ef            jal     ra,0x151e2
   13a96:    67c2                ld      a5,16(sp)
   13a98:    00078023            sb      zero,0(a5) # 0xffffffffffff0000
   13a9c:    60ae                ld      ra,200(sp)
   13a9e:    6111                addi    sp,sp,256
   13aa0:    8082                ret

   13aa2:    1141                addi    sp,sp,-16
   13aa4:    e022                sd      s0,0(sp)
   13aa6:    842e                mv      s0,a1
   13aa8:    01259583            lh      a1,18(a1)
   13aac:    e406                sd      ra,8(sp)
   13aae:    5c9050ef            jal     ra,0x19876
   13ab2:    00054963            bltz    a0,0x13ac4
   13ab6:    685c                ld      a5,144(s0)
   13ab8:    97aa                add     a5,a5,a0
   13aba:    e85c                sd      a5,144(s0)
   13abc:    60a2                ld      ra,8(sp)
   13abe:    6402                ld      s0,0(sp)
   13ac0:    0141                addi    sp,sp,16
   13ac2:    8082                ret

   13ac4:    01045783            lhu     a5,16(s0)
   13ac8:    777d                lui     a4,0xfffff
   13aca:    177d                addi    a4,a4,-1
   13acc:    8ff9                and     a5,a5,a4
   13ace:    00f41823            sh      a5,16(s0)
   13ad2:    b7ed                j       0x13abc
   13ad4:    4501                li      a0,0
   13ad6:    8082                ret

   13ad8:    0105d783            lhu     a5,16(a1)
   13adc:    7179                addi    sp,sp,-48
   13ade:    f022                sd      s0,32(sp)
   13ae0:    ec26                sd      s1,24(sp)
   13ae2:    e84a                sd      s2,16(sp)
   13ae4:    e44e                sd      s3,8(sp)
   13ae6:    f406                sd      ra,40(sp)
   13ae8:    1007f793            andi    a5,a5,256
   13aec:    84aa                mv      s1,a0
   13aee:    842e                mv      s0,a1
   13af0:    8932                mv      s2,a2
   13af2:    89b6                mv      s3,a3
   13af4:    c799                beqz    a5,0x13b02
   13af6:    01259583            lh      a1,18(a1)
   13afa:    4689                li      a3,2
   13afc:    4601                li      a2,0
   13afe:    24c050ef            jal     ra,0x18d4a
   13b02:    01045783            lhu     a5,16(s0)
   13b06:    777d                lui     a4,0xfffff
   13b08:    177d                addi    a4,a4,-1
   13b0a:    8ff9                and     a5,a5,a4
   13b0c:    00f41823            sh      a5,16(s0)
   13b10:    01241583            lh      a1,18(s0)
   13b14:    7402                ld      s0,32(sp)
   13b16:    70a2                ld      ra,40(sp)
   13b18:    86ce                mv      a3,s3
   13b1a:    864a                mv      a2,s2
   13b1c:    69a2                ld      s3,8(sp)
   13b1e:    6942                ld      s2,16(sp)
   13b20:    8526                mv      a0,s1
   13b22:    64e2                ld      s1,24(sp)
   13b24:    6145                addi    sp,sp,48
   13b26:    6090206f            j       0x1692e
   13b2a:    1141                addi    sp,sp,-16
   13b2c:    e022                sd      s0,0(sp)
   13b2e:    842e                mv      s0,a1
   13b30:    01259583            lh      a1,18(a1)
   13b34:    e406                sd      ra,8(sp)
   13b36:    214050ef            jal     ra,0x18d4a
   13b3a:    57fd                li      a5,-1
   13b3c:    01045703            lhu     a4,16(s0)
   13b40:    00f51b63            bne     a0,a5,0x13b56
   13b44:    77fd                lui     a5,0xfffff
   13b46:    17fd                addi    a5,a5,-1
   13b48:    8ff9                and     a5,a5,a4
   13b4a:    00f41823            sh      a5,16(s0)
   13b4e:    60a2                ld      ra,8(sp)
   13b50:    6402                ld      s0,0(sp)
   13b52:    0141                addi    sp,sp,16
   13b54:    8082                ret

   13b56:    6785                lui     a5,0x1
   13b58:    8fd9                or      a5,a5,a4
   13b5a:    00f41823            sh      a5,16(s0)
   13b5e:    e848                sd      a0,144(s0)
   13b60:    b7fd                j       0x13b4e
   13b62:    01259583            lh      a1,18(a1)
   13b66:    6d30206f            j       0x16a38
   13b6a:    00b56733            or      a4,a0,a1
   13b6e:    53fd                li      t2,-1
   13b70:    8b1d                andi    a4,a4,7
   13b72:    eb4d                bnez    a4,0x13c24
   13b74:    0000c797            auipc   a5,0xc
   13b78:    1c47b783            ld      a5,452(a5) # 0x1fd38
   13b7c:    6110                ld      a2,0(a0)
   13b7e:    6194                ld      a3,0(a1)
   13b80:    00f672b3            and     t0,a2,a5
   13b84:    00f66333            or      t1,a2,a5
   13b88:    92be                add     t0,t0,a5
   13b8a:    0062e2b3            or      t0,t0,t1
   13b8e:    0a729963            bne     t0,t2,0x13c40
   13b92:    02d61e63            bne     a2,a3,0x13bce
   13b96:    6510                ld      a2,8(a0)
   13b98:    6594                ld      a3,8(a1)
   13b9a:    00f672b3            and     t0,a2,a5
   13b9e:    00f66333            or      t1,a2,a5
   13ba2:    92be                add     t0,t0,a5
   13ba4:    0062e2b3            or      t0,t0,t1
   13ba8:    08729a63            bne     t0,t2,0x13c3c
   13bac:    02d61163            bne     a2,a3,0x13bce
   13bb0:    6910                ld      a2,16(a0)
   13bb2:    6994                ld      a3,16(a1)
   13bb4:    00f672b3            and     t0,a2,a5
   13bb8:    00f66333            or      t1,a2,a5
   13bbc:    92be                add     t0,t0,a5
   13bbe:    0062e2b3            or      t0,t0,t1
   13bc2:    08729363            bne     t0,t2,0x13c48
   13bc6:    0561                addi    a0,a0,24
   13bc8:    05e1                addi    a1,a1,24
   13bca:    fad609e3            beq     a2,a3,0x13b7c
   13bce:    03061713            slli    a4,a2,0x30
   13bd2:    03069793            slli    a5,a3,0x30
   13bd6:    02f71863            bne     a4,a5,0x13c06
   13bda:    02061713            slli    a4,a2,0x20
   13bde:    02069793            slli    a5,a3,0x20
   13be2:    02f71263            bne     a4,a5,0x13c06
   13be6:    01061713            slli    a4,a2,0x10
   13bea:    01069793            slli    a5,a3,0x10
   13bee:    00f71c63            bne     a4,a5,0x13c06
   13bf2:    03065713            srli    a4,a2,0x30
   13bf6:    0306d793            srli    a5,a3,0x30
   13bfa:    40f70533            sub     a0,a4,a5
   13bfe:    0ff57593            andi    a1,a0,255
   13c02:    e991                bnez    a1,0x13c16
   13c04:    8082                ret

   13c06:    9341                srli    a4,a4,0x30
   13c08:    93c1                srli    a5,a5,0x30
   13c0a:    40f70533            sub     a0,a4,a5
   13c0e:    0ff57593            andi    a1,a0,255
   13c12:    e191                bnez    a1,0x13c16
   13c14:    8082                ret

   13c16:    0ff77713            andi    a4,a4,255
   13c1a:    0ff7f793            andi    a5,a5,255
   13c1e:    40f70533            sub     a0,a4,a5
   13c22:    8082                ret

   13c24:    00054603            lbu     a2,0(a0)
   13c28:    0005c683            lbu     a3,0(a1)
   13c2c:    0505                addi    a0,a0,1
   13c2e:    0585                addi    a1,a1,1
   13c30:    00d61363            bne     a2,a3,0x13c36
   13c34:    fa65                bnez    a2,0x13c24
   13c36:    40d60533            sub     a0,a2,a3
   13c3a:    8082                ret

   13c3c:    0521                addi    a0,a0,8
   13c3e:    05a1                addi    a1,a1,8
   13c40:    fed612e3            bne     a2,a3,0x13c24
   13c44:    4501                li      a0,0
   13c46:    8082                ret

   13c48:    0541                addi    a0,a0,16
   13c4a:    05c1                addi    a1,a1,16
   13c4c:    fcd61ce3            bne     a2,a3,0x13c24
   13c50:    4501                li      a0,0
   13c52:    8082                ret

   13c54:    f2050553            fmv.d.x    fa0,a0
   13c58:    1101                addi    sp,sp,-32
   13c5a:    e42e                sd      a1,8(sp)
   13c5c:    ec06                sd      ra,24(sp)
   13c5e:    e02a                sd      a0,0(sp)
   13c60:    0bd050ef            jal     ra,0x1951c
   13c64:    65a2                ld      a1,8(sp)
   13c66:    c58d                beqz    a1,0x13c90
   13c68:    6502                ld      a0,0(sp)
   13c6a:    9151                srli    a0,a0,0x34
   13c6c:    7ff57793            andi    a5,a0,2047
   13c70:    06b00513            li      a0,107
   13c74:    40f507bb            subw    a5,a0,a5
   13c78:    00f05c63            blez    a5,0x13c90
   13c7c:    0147951b            slliw   a0,a5,0x14
   13c80:    3ff007b7            lui     a5,0x3ff00
   13c84:    9d3d                addw    a0,a0,a5
   13c86:    1502                slli    a0,a0,0x20
   13c88:    f20507d3            fmv.d.x    fa5,a0
   13c8c:    12f57553            fmul.d    fa0,fa0,fa5
   13c90:    60e2                ld      ra,24(sp)
   13c92:    6105                addi    sp,sp,32
   13c94:    8082                ret

   13c96:    7111                addi    sp,sp,-256
   13c98:    f9a2                sd      s0,240(sp)
   13c9a:    842a                mv      s0,a0
   13c9c:    8536                mv      a0,a3
   13c9e:    f832                sd      a2,48(sp)
   13ca0:    e436                sd      a3,8(sp)
   13ca2:    fd86                sd      ra,248(sp)
   13ca4:    e5d6                sd      s5,200(sp)
   13ca6:    f16a                sd      s10,160(sp)
   13ca8:    8aae                mv      s5,a1
   13caa:    ed6e                sd      s11,152(sp)
   13cac:    f5a6                sd      s1,232(sp)
   13cae:    f1ca                sd      s2,224(sp)
   13cb0:    edce                sd      s3,216(sp)
   13cb2:    e9d2                sd      s4,208(sp)
   13cb4:    e1da                sd      s6,192(sp)
   13cb6:    fd5e                sd      s7,184(sp)
   13cb8:    f962                sd      s8,176(sp)
   13cba:    f566                sd      s9,168(sp)
   13cbc:    a522                fsd     fs0,136(sp)
   13cbe:    a126                fsd     fs1,128(sp)
   13cc0:    bcca                fsd     fs2,120(sp)
   13cc2:    b8ce                fsd     fs3,112(sp)
   13cc4:    b4d2                fsd     fs4,104(sp)
   13cc6:    e882                sd      zero,80(sp)
   13cc8:    fc9fe0ef            jal     ra,0x12c90
   13ccc:    8d2a                mv      s10,a0
   13cce:    6108                ld      a0,0(a0)
   13cd0:    4d81                li      s11,0
   13cd2:    85bfc0ef            jal     ra,0x1052c
   13cd6:    66a2                ld      a3,8(sp)
   13cd8:    e4d6                sd      s5,72(sp)
   13cda:    4635                li      a2,13
   13cdc:    02b00593            li      a1,43
   13ce0:    02d00813            li      a6,45
   13ce4:    02000313            li      t1,32
   13ce8:    4e25                li      t3,9
   13cea:    67a6                ld      a5,72(sp)
   13cec:    0007c703            lbu     a4,0(a5) # 0x3ff00000
   13cf0:    08e66e63            bltu    a2,a4,0x13d8c
   13cf4:    0bc77263            bgeu    a4,t3,0x13d98
   13cf8:    cb55                beqz    a4,0x13dac
   13cfa:    4c01                li      s8,0
   13cfc:    6926                ld      s2,72(sp)
   13cfe:    03000793            li      a5,48
   13d02:    4b81                li      s7,0
   13d04:    00094703            lbu     a4,0(s2)
   13d08:    14f71e63            bne     a4,a5,0x13e64
   13d0c:    00194783            lbu     a5,1(s2)
   13d10:    05800713            li      a4,88
   13d14:    00e78863            beq     a5,a4,0x13d24
   13d18:    07800613            li      a2,120
   13d1c:    03000713            li      a4,48
   13d20:    12c79763            bne     a5,a2,0x13e4e
   13d24:    6675                lui     a2,0x1d
   13d26:    8836                mv      a6,a3
   13d28:    87e2                mv      a5,s8
   13d2a:    0898                addi    a4,sp,80
   13d2c:    00d4                addi    a3,sp,68
   13d2e:    0e060613            addi    a2,a2,224 # 0x1d0e0
   13d32:    00ac                addi    a1,sp,72
   13d34:    8522                mv      a0,s0
   13d36:    29e030ef            jal     ra,0x16fd4
   13d3a:    00757493            andi    s1,a0,7
   13d3e:    89aa                mv      s3,a0
   13d40:    c499                beqz    s1,0x13d4e
   13d42:    4799                li      a5,6
   13d44:    06f49d63            bne     s1,a5,0x13dbe
   13d48:    0905                addi    s2,s2,1
   13d4a:    e4ca                sd      s2,72(sp)
   13d4c:    4c01                li      s8,0
   13d4e:    77c2                ld      a5,48(sp)
   13d50:    c781                beqz    a5,0x13d58
   13d52:    67a6                ld      a5,72(sp)
   13d54:    7742                ld      a4,48(sp)
   13d56:    e31c                sd      a5,0(a4)
   13d58:    040c0e63            beqz    s8,0x13db4
   13d5c:    f20d87d3            fmv.d.x    fa5,s11
   13d60:    22f79553            fneg.d    fa0,fa5
   13d64:    70ee                ld      ra,248(sp)
   13d66:    744e                ld      s0,240(sp)
   13d68:    74ae                ld      s1,232(sp)
   13d6a:    790e                ld      s2,224(sp)
   13d6c:    69ee                ld      s3,216(sp)
   13d6e:    6a4e                ld      s4,208(sp)
   13d70:    6aae                ld      s5,200(sp)
   13d72:    6b0e                ld      s6,192(sp)
   13d74:    7bea                ld      s7,184(sp)
   13d76:    7c4a                ld      s8,176(sp)
   13d78:    7caa                ld      s9,168(sp)
   13d7a:    7d0a                ld      s10,160(sp)
   13d7c:    6dea                ld      s11,152(sp)
   13d7e:    242a                fld     fs0,136(sp)
   13d80:    248a                fld     fs1,128(sp)
   13d82:    3966                fld     fs2,120(sp)
   13d84:    39c6                fld     fs3,112(sp)
   13d86:    3a26                fld     fs4,104(sp)
   13d88:    6111                addi    sp,sp,256
   13d8a:    8082                ret

   13d8c:    00b70963            beq     a4,a1,0x13d9e
   13d90:    03070563            beq     a4,a6,0x13dba
   13d94:    f66713e3            bne     a4,t1,0x13cfa
   13d98:    0785                addi    a5,a5,1
   13d9a:    e4be                sd      a5,72(sp)
   13d9c:    b7b9                j       0x13cea
   13d9e:    4c01                li      s8,0
   13da0:    00178713            addi    a4,a5,1
   13da4:    e4ba                sd      a4,72(sp)
   13da6:    0017c783            lbu     a5,1(a5)
   13daa:    fba9                bnez    a5,0x13cfc
   13dac:    77c2                ld      a5,48(sp)
   13dae:    e4d6                sd      s5,72(sp)
   13db0:    4c01                li      s8,0
   13db2:    f3c5                bnez    a5,0x13d52
   13db4:    f20d8553            fmv.d.x    fa0,s11
   13db8:    b775                j       0x13d64
   13dba:    4c05                li      s8,1
   13dbc:    b7d5                j       0x13da0
   13dbe:    6646                ld      a2,80(sp)
   13dc0:    ca11                beqz    a2,0x13dd4
   13dc2:    03500593            li      a1,53
   13dc6:    08a8                addi    a0,sp,88
   13dc8:    231050ef            jal     ra,0x197f8
   13dcc:    65c6                ld      a1,80(sp)
   13dce:    8522                mv      a0,s0
   13dd0:    116050ef            jal     ra,0x18ee6
   13dd4:    34fd                addiw   s1,s1,-1
   13dd6:    0004871b            sext.w  a4,s1
   13dda:    4791                li      a5,4
   13ddc:    00e7eb63            bltu    a5,a4,0x13df2
   13de0:    1482                slli    s1,s1,0x20
   13de2:    67f5                lui     a5,0x1d
   13de4:    0c878793            addi    a5,a5,200 # 0x1d0c8
   13de8:    80f9                srli    s1,s1,0x1e
   13dea:    94be                add     s1,s1,a5
   13dec:    409c                lw      a5,0(s1)
   13dee:    8782                jr      a5
   13df0:    6de6                ld      s11,88(sp)
   13df2:    0089f993            andi    s3,s3,8
   13df6:    f4098ce3            beqz    s3,0x13d4e
   13dfa:    020dd793            srli    a5,s11,0x20
   13dfe:    80000737            lui     a4,0x80000
   13e02:    8fd9                or      a5,a5,a4
   13e04:    020d9893            slli    a7,s11,0x20
   13e08:    1782                slli    a5,a5,0x20
   13e0a:    0208d893            srli    a7,a7,0x20
   13e0e:    00f8edb3            or      s11,a7,a5
   13e12:    bf35                j       0x13d4e
   13e14:    4796                lw      a5,68(sp)
   13e16:    48f6                lw      a7,92(sp)
   13e18:    fff00737            lui     a4,0xfff00
   13e1c:    177d                addi    a4,a4,-1
   13e1e:    4337879b            addiw   a5,a5,1075
   13e22:    0147979b            slliw   a5,a5,0x14
   13e26:    00e8f8b3            and     a7,a7,a4
   13e2a:    00f8e8b3            or      a7,a7,a5
   13e2e:    02089793            slli    a5,a7,0x20
   13e32:    05816883            lwu     a7,88(sp)
   13e36:    00f8edb3            or      s11,a7,a5
   13e3a:    bf65                j       0x13df2
   13e3c:    7ff00893            li      a7,2047
   13e40:    03489d93            slli    s11,a7,0x34
   13e44:    b77d                j       0x13df2
   13e46:    58fd                li      a7,-1
   13e48:    0018dd93            srli    s11,a7,0x1
   13e4c:    b75d                j       0x13df2
   13e4e:    67a6                ld      a5,72(sp)
   13e50:    00178693            addi    a3,a5,1
   13e54:    e4b6                sd      a3,72(sp)
   13e56:    0017c783            lbu     a5,1(a5)
   13e5a:    fee78ae3            beq     a5,a4,0x13e4e
   13e5e:    ee0788e3            beqz    a5,0x13d4e
   13e62:    4b85                li      s7,1
   13e64:    6b26                ld      s6,72(sp)
   13e66:    4481                li      s1,0
   13e68:    4c81                li      s9,0
   13e6a:    4981                li      s3,0
   13e6c:    45a5                li      a1,9
   13e6e:    4821                li      a6,8
   13e70:    47a9                li      a5,10
   13e72:    66a6                ld      a3,72(sp)
   13e74:    0006ca03            lbu     s4,0(a3)
   13e78:    fd0a061b            addiw   a2,s4,-48
   13e7c:    0ff67713            andi    a4,a2,255
   13e80:    12e5f663            bgeu    a1,a4,0x13fac
   13e84:    000d3583            ld      a1,0(s10)
   13e88:    0005091b            sext.w  s2,a0
   13e8c:    864a                mv      a2,s2
   13e8e:    8536                mv      a0,a3
   13e90:    36d050ef            jal     ra,0x199fc
   13e94:    12050a63            beqz    a0,0x13fc8
   13e98:    000a079b            sext.w  a5,s4
   13e9c:    86ce                mv      a3,s3
   13e9e:    4601                li      a2,0
   13ea0:    4a01                li      s4,0
   13ea2:    4801                li      a6,0
   13ea4:    06500713            li      a4,101
   13ea8:    00e78763            beq     a5,a4,0x13eb6
   13eac:    04500713            li      a4,69
   13eb0:    4901                li      s2,0
   13eb2:    08e79e63            bne     a5,a4,0x13f4e
   13eb6:    e699                bnez    a3,0x13ec4
   13eb8:    00cbe7b3            or      a5,s7,a2
   13ebc:    2781                sext.w  a5,a5
   13ebe:    ee0787e3            beqz    a5,0x13dac
   13ec2:    4681                li      a3,0
   13ec4:    6aa6                ld      s5,72(sp)
   13ec6:    02b00713            li      a4,43
   13eca:    001a8793            addi    a5,s5,1
   13ece:    e4be                sd      a5,72(sp)
   13ed0:    001ac783            lbu     a5,1(s5)
   13ed4:    1ae78f63            beq     a5,a4,0x14092
   13ed8:    02d00713            li      a4,45
   13edc:    1ce78263            beq     a5,a4,0x140a0
   13ee0:    2781                sext.w  a5,a5
   13ee2:    4301                li      t1,0
   13ee4:    fd07871b            addiw   a4,a5,-48
   13ee8:    45a5                li      a1,9
   13eea:    1ce5ea63            bltu    a1,a4,0x140be
   13eee:    03000713            li      a4,48
   13ef2:    1ae78963            beq     a5,a4,0x140a4
   13ef6:    fcf7871b            addiw   a4,a5,-49
   13efa:    45a1                li      a1,8
   13efc:    4901                li      s2,0
   13efe:    04e5e863            bltu    a1,a4,0x13f4e
   13f02:    6e26                ld      t3,72(sp)
   13f04:    fd07871b            addiw   a4,a5,-48
   13f08:    4ea5                li      t4,9
   13f0a:    4f29                li      t5,10
   13f0c:    67a6                ld      a5,72(sp)
   13f0e:    00178513            addi    a0,a5,1
   13f12:    e4aa                sd      a0,72(sp)
   13f14:    0017c583            lbu     a1,1(a5)
   13f18:    0005879b            sext.w  a5,a1
   13f1c:    fd05859b            addiw   a1,a1,-48
   13f20:    0ff5f593            andi    a1,a1,255
   13f24:    18bef763            bgeu    t4,a1,0x140b2
   13f28:    6595                lui     a1,0x5
   13f2a:    41c50533            sub     a0,a0,t3
   13f2e:    e1f58593            addi    a1,a1,-481 # 0x4e1f
   13f32:    4e21                li      t3,8
   13f34:    892e                mv      s2,a1
   13f36:    00ae4863            blt     t3,a0,0x13f46
   13f3a:    0007091b            sext.w  s2,a4
   13f3e:    00e5d463            bge     a1,a4,0x13f46
   13f42:    0005891b            sext.w  s2,a1
   13f46:    00030463            beqz    t1,0x13f4e
   13f4a:    4120093b            negw    s2,s2
   13f4e:    1c069b63            bnez    a3,0x14124
   13f52:    00cbe633            or      a2,s7,a2
   13f56:    2601                sext.w  a2,a2
   13f58:    de061be3            bnez    a2,0x13d4e
   13f5c:    e40818e3            bnez    a6,0x13dac
   13f60:    04e00713            li      a4,78
   13f64:    16e78863            beq     a5,a4,0x140d4
   13f68:    14f74e63            blt     a4,a5,0x140c4
   13f6c:    04900713            li      a4,73
   13f70:    e2e79ee3            bne     a5,a4,0x13dac
   13f74:    0001d5b7            lui     a1,0x1d
   13f78:    13858593            addi    a1,a1,312 # 0x1d138
   13f7c:    00a8                addi    a0,sp,72
   13f7e:    594030ef            jal     ra,0x17512
   13f82:    e20505e3            beqz    a0,0x13dac
   13f86:    67a6                ld      a5,72(sp)
   13f88:    0001d5b7            lui     a1,0x1d
   13f8c:    14058593            addi    a1,a1,320 # 0x1d140
   13f90:    17fd                addi    a5,a5,-1
   13f92:    00a8                addi    a0,sp,72
   13f94:    e4be                sd      a5,72(sp)
   13f96:    57c030ef            jal     ra,0x17512
   13f9a:    e501                bnez    a0,0x13fa2
   13f9c:    67a6                ld      a5,72(sp)
   13f9e:    0785                addi    a5,a5,1
   13fa0:    e4be                sd      a5,72(sp)
   13fa2:    7ff00893            li      a7,2047
   13fa6:    03489d93            slli    s11,a7,0x34
   13faa:    b355                j       0x13d4e
   13fac:    01384a63            blt     a6,s3,0x13fc0
   13fb0:    03978cbb            mulw    s9,a5,s9
   13fb4:    00cc8cbb            addw    s9,s9,a2
   13fb8:    0685                addi    a3,a3,1
   13fba:    2985                addiw   s3,s3,1
   13fbc:    e4b6                sd      a3,72(sp)
   13fbe:    bd55                j       0x13e72
   13fc0:    029784bb            mulw    s1,a5,s1
   13fc4:    9cb1                addw    s1,s1,a2
   13fc6:    bfcd                j       0x13fb8
   13fc8:    6526                ld      a0,72(sp)
   13fca:    4601                li      a2,0
   13fcc:    954a                add     a0,a0,s2
   13fce:    e4aa                sd      a0,72(sp)
   13fd0:    00054783            lbu     a5,0(a0)
   13fd4:    08098363            beqz    s3,0x1405a
   13fd8:    4a01                li      s4,0
   13fda:    86ce                mv      a3,s3
   13fdc:    fd07871b            addiw   a4,a5,-48
   13fe0:    45a5                li      a1,9
   13fe2:    02e5f663            bgeu    a1,a4,0x1400e
   13fe6:    4805                li      a6,1
   13fe8:    bd75                j       0x13ea4
   13fea:    67a6                ld      a5,72(sp)
   13fec:    2605                addiw   a2,a2,1
   13fee:    00178693            addi    a3,a5,1
   13ff2:    e4b6                sd      a3,72(sp)
   13ff4:    0017c783            lbu     a5,1(a5)
   13ff8:    fee789e3            beq     a5,a4,0x13fea
   13ffc:    fcf7871b            addiw   a4,a5,-49
   14000:    46a1                li      a3,8
   14002:    0ee6e8e3            bltu    a3,a4,0x148f2
   14006:    6b26                ld      s6,72(sp)
   14008:    8a32                mv      s4,a2
   1400a:    4681                li      a3,0
   1400c:    4601                li      a2,0
   1400e:    fd07851b            addiw   a0,a5,-48
   14012:    0016071b            addiw   a4,a2,1
   14016:    87aa                mv      a5,a0
   14018:    c90d                beqz    a0,0x1404a
   1401a:    01470a3b            addw    s4,a4,s4
   1401e:    0006871b            sext.w  a4,a3
   14022:    00e6083b            addw    a6,a2,a4
   14026:    4321                li      t1,8
   14028:    4e41                li      t3,16
   1402a:    45a9                li      a1,10
   1402c:    03071a63            bne     a4,a6,0x14060
   14030:    00c685bb            addw    a1,a3,a2
   14034:    4721                li      a4,8
   14036:    2685                addiw   a3,a3,1
   14038:    9eb1                addw    a3,a3,a2
   1403a:    04b74363            blt     a4,a1,0x14080
   1403e:    4729                li      a4,10
   14040:    03970cbb            mulw    s9,a4,s9
   14044:    4701                li      a4,0
   14046:    01978cbb            addw    s9,a5,s9
   1404a:    67a6                ld      a5,72(sp)
   1404c:    00178613            addi    a2,a5,1
   14050:    e4b2                sd      a2,72(sp)
   14052:    0017c783            lbu     a5,1(a5)
   14056:    863a                mv      a2,a4
   14058:    b751                j       0x13fdc
   1405a:    03000713            li      a4,48
   1405e:    bf69                j       0x13ff8
   14060:    0017051b            addiw   a0,a4,1
   14064:    00e34763            blt     t1,a4,0x14072
   14068:    03958cbb            mulw    s9,a1,s9
   1406c:    0005071b            sext.w  a4,a0
   14070:    bf75                j       0x1402c
   14072:    0005071b            sext.w  a4,a0
   14076:    feee4be3            blt     t3,a4,0x1406c
   1407a:    029584bb            mulw    s1,a1,s1
   1407e:    b7fd                j       0x1406c
   14080:    4641                li      a2,16
   14082:    4701                li      a4,0
   14084:    fcd643e3            blt     a2,a3,0x1404a
   14088:    4629                li      a2,10
   1408a:    029604bb            mulw    s1,a2,s1
   1408e:    9cbd                addw    s1,s1,a5
   14090:    bf6d                j       0x1404a
   14092:    4301                li      t1,0
   14094:    002a8793            addi    a5,s5,2
   14098:    e4be                sd      a5,72(sp)
   1409a:    002ac783            lbu     a5,2(s5)
   1409e:    b599                j       0x13ee4
   140a0:    4305                li      t1,1
   140a2:    bfcd                j       0x14094
   140a4:    67a6                ld      a5,72(sp)
   140a6:    00178593            addi    a1,a5,1
   140aa:    e4ae                sd      a1,72(sp)
   140ac:    0017c783            lbu     a5,1(a5)
   140b0:    b589                j       0x13ef2
   140b2:    02ef073b            mulw    a4,t5,a4
   140b6:    9fb9                addw    a5,a5,a4
   140b8:    fd07871b            addiw   a4,a5,-48
   140bc:    bd81                j       0x13f0c
   140be:    e4d6                sd      s5,72(sp)
   140c0:    4901                li      s2,0
   140c2:    b571                j       0x13f4e
   140c4:    06900713            li      a4,105
   140c8:    eae786e3            beq     a5,a4,0x13f74
   140cc:    06e00713            li      a4,110
   140d0:    cce79ee3            bne     a5,a4,0x13dac
   140d4:    0001d5b7            lui     a1,0x1d
   140d8:    14858593            addi    a1,a1,328 # 0x1d148
   140dc:    00a8                addi    a0,sp,72
   140de:    434030ef            jal     ra,0x17512
   140e2:    cc0505e3            beqz    a0,0x13dac
   140e6:    67a6                ld      a5,72(sp)
   140e8:    0007c703            lbu     a4,0(a5)
   140ec:    02800793            li      a5,40
   140f0:    02f71663            bne     a4,a5,0x1411c
   140f4:    65f5                lui     a1,0x1d
   140f6:    08b0                addi    a2,sp,88
   140f8:    0f858593            addi    a1,a1,248 # 0x1d0f8
   140fc:    00a8                addi    a0,sp,72
   140fe:    448030ef            jal     ra,0x17546
   14102:    4795                li      a5,5
   14104:    00f51c63            bne     a0,a5,0x1411c
   14108:    05c16883            lwu     a7,92(sp)
   1410c:    7ff007b7            lui     a5,0x7ff00
   14110:    00f8e8b3            or      a7,a7,a5
   14114:    1882                slli    a7,a7,0x20
   14116:    05816783            lwu     a5,88(sp)
   1411a:    b9d5                j       0x13e0e
   1411c:    58fd                li      a7,-1
   1411e:    03389d93            slli    s11,a7,0x33
   14122:    b135                j       0x13d4e
   14124:    41490abb            subw    s5,s2,s4
   14128:    8bd6                mv      s7,s5
   1412a:    00099363            bnez    s3,0x14130
   1412e:    89b6                mv      s3,a3
   14130:    47c1                li      a5,16
   14132:    8736                mv      a4,a3
   14134:    00d7d363            bge     a5,a3,0x1413a
   14138:    4741                li      a4,16
   1413a:    d21c87d3            fcvt.d.wu    fa5,s9
   1413e:    4625                li      a2,9
   14140:    0007079b            sext.w  a5,a4
   14144:    e20785d3            fmv.x.d    a1,fa5
   14148:    8dae                mv      s11,a1
   1414a:    02d65163            bge     a2,a3,0x1416c
   1414e:    375d                addiw   a4,a4,-9
   14150:    6675                lui     a2,0x1d
   14152:    070e                slli    a4,a4,0x3
   14154:    74060613            addi    a2,a2,1856 # 0x1d740
   14158:    9732                add     a4,a4,a2
   1415a:    d21487d3            fcvt.d.wu    fa5,s1
   1415e:    2318                fld     fa4,0(a4)
   14160:    f20586d3            fmv.d.x    fa3,a1
   14164:    7ae6f7c3            fmadd.d    fa5,fa3,fa4,fa5
   14168:    e2078dd3            fmv.x.d    s11,fa5
   1416c:    473d                li      a4,15
   1416e:    08d74063            blt     a4,a3,0x141ee
   14172:    bc0a8ee3            beqz    s5,0x13d4e
   14176:    05505b63            blez    s5,0x141cc
   1417a:    4759                li      a4,22
   1417c:    03574063            blt     a4,s5,0x1419c
   14180:    67f5                lui     a5,0x1d
   14182:    0a8e                slli    s5,s5,0x3
   14184:    74078793            addi    a5,a5,1856 # 0x1d740
   14188:    9abe                add     s5,s5,a5
   1418a:    000ab787            fld     fa5,0(s5)
   1418e:    f20d8753            fmv.d.x    fa4,s11
   14192:    12e7f7d3            fmul.d    fa5,fa5,fa4
   14196:    e2078dd3            fmv.x.d    s11,fa5
   1419a:    be55                j       0x13d4e
   1419c:    02500713            li      a4,37
   141a0:    9f15                subw    a4,a4,a3
   141a2:    05574663            blt     a4,s5,0x141ee
   141a6:    47bd                li      a5,15
   141a8:    9f95                subw    a5,a5,a3
   141aa:    6775                lui     a4,0x1d
   141ac:    86be                mv      a3,a5
   141ae:    74070713            addi    a4,a4,1856 # 0x1d740
   141b2:    078e                slli    a5,a5,0x3
   141b4:    97ba                add     a5,a5,a4
   141b6:    f20d8753            fmv.d.x    fa4,s11
   141ba:    239c                fld     fa5,0(a5)
   141bc:    40db86bb            subw    a3,s7,a3
   141c0:    068e                slli    a3,a3,0x3
   141c2:    96ba                add     a3,a3,a4
   141c4:    12e7f7d3            fmul.d    fa5,fa5,fa4
   141c8:    2298                fld     fa4,0(a3)
   141ca:    b7e1                j       0x14192
   141cc:    5729                li      a4,-22
   141ce:    02eac063            blt     s5,a4,0x141ee
   141d2:    412a093b            subw    s2,s4,s2
   141d6:    6a75                lui     s4,0x1d
   141d8:    090e                slli    s2,s2,0x3
   141da:    740a0a13            addi    s4,s4,1856 # 0x1d740
   141de:    9952                add     s2,s2,s4
   141e0:    00093787            fld     fa5,0(s2)
   141e4:    f20d8753            fmv.d.x    fa4,s11
   141e8:    1af777d3            fdiv.d    fa5,fa4,fa5
   141ec:    b76d                j       0x14196
   141ee:    40f687bb            subw    a5,a3,a5
   141f2:    0177863b            addw    a2,a5,s7
   141f6:    10c05e63            blez    a2,0x14312
   141fa:    00f67793            andi    a5,a2,15
   141fe:    cf89                beqz    a5,0x14218
   14200:    6775                lui     a4,0x1d
   14202:    078e                slli    a5,a5,0x3
   14204:    74070713            addi    a4,a4,1856 # 0x1d740
   14208:    97ba                add     a5,a5,a4
   1420a:    f20d8753            fmv.d.x    fa4,s11
   1420e:    239c                fld     fa5,0(a5)
   14210:    12e7f7d3            fmul.d    fa5,fa5,fa4
   14214:    e2078dd3            fmv.x.d    s11,fa5
   14218:    9a41                andi    a2,a2,-16
   1421a:    c261                beqz    a2,0x142da
   1421c:    13400793            li      a5,308
   14220:    04c7d463            bge     a5,a2,0x14268
   14224:    4981                li      s3,0
   14226:    4901                li      s2,0
   14228:    4b01                li      s6,0
   1422a:    4a01                li      s4,0
   1422c:    02200793            li      a5,34
   14230:    7ff00893            li      a7,2047
   14234:    c01c                sw      a5,0(s0)
   14236:    03489d93            slli    s11,a7,0x34
   1423a:    b00b0ae3            beqz    s6,0x13d4e
   1423e:    65c6                ld      a1,80(sp)
   14240:    8522                mv      a0,s0
   14242:    4a5040ef            jal     ra,0x18ee6
   14246:    85d2                mv      a1,s4
   14248:    8522                mv      a0,s0
   1424a:    49d040ef            jal     ra,0x18ee6
   1424e:    85ca                mv      a1,s2
   14250:    8522                mv      a0,s0
   14252:    495040ef            jal     ra,0x18ee6
   14256:    85da                mv      a1,s6
   14258:    8522                mv      a0,s0
   1425a:    48d040ef            jal     ra,0x18ee6
   1425e:    85ce                mv      a1,s3
   14260:    8522                mv      a0,s0
   14262:    485040ef            jal     ra,0x18ee6
   14266:    b4e5                j       0x13d4e
   14268:    6579                lui     a0,0x1e
   1426a:    8611                srai    a2,a2,0x4
   1426c:    85ee                mv      a1,s11
   1426e:    4701                li      a4,0
   14270:    4801                li      a6,0
   14272:    4305                li      t1,1
   14274:    83050513            addi    a0,a0,-2000 # 0x1d830
   14278:    0007079b            sext.w  a5,a4
   1427c:    06c34163            blt     t1,a2,0x142de
   14280:    00080363            beqz    a6,0x14286
   14284:    8dae                mv      s11,a1
   14286:    020dd613            srli    a2,s11,0x20
   1428a:    fcb00737            lui     a4,0xfcb00
   1428e:    9f31                addw    a4,a4,a2
   14290:    567d                li      a2,-1
   14292:    9201                srli    a2,a2,0x20
   14294:    1702                slli    a4,a4,0x20
   14296:    00cdf8b3            and     a7,s11,a2
   1429a:    00e8edb3            or      s11,a7,a4
   1429e:    6779                lui     a4,0x1e
   142a0:    83070713            addi    a4,a4,-2000 # 0x1d830
   142a4:    078e                slli    a5,a5,0x3
   142a6:    97ba                add     a5,a5,a4
   142a8:    239c                fld     fa5,0(a5)
   142aa:    f20d8753            fmv.d.x    fa4,s11
   142ae:    7ff00737            lui     a4,0x7ff00
   142b2:    7ca00537            lui     a0,0x7ca00
   142b6:    12e7f7d3            fmul.d    fa5,fa5,fa4
   142ba:    e20787d3            fmv.x.d    a5,fa5
   142be:    4207d593            srai    a1,a5,0x20
   142c2:    8f6d                and     a4,a4,a1
   142c4:    f6e560e3            bltu    a0,a4,0x14224
   142c8:    7c900537            lui     a0,0x7c900
   142cc:    02e57a63            bgeu    a0,a4,0x14300
   142d0:    7ff00893            li      a7,2047
   142d4:    18d2                slli    a7,a7,0x34
   142d6:    fff88d93            addi    s11,a7,-1
   142da:    4481                li      s1,0
   142dc:    a8d5                j       0x143d0
   142de:    00167793            andi    a5,a2,1
   142e2:    cf81                beqz    a5,0x142fa
   142e4:    00371793            slli    a5,a4,0x3
   142e8:    97aa                add     a5,a5,a0
   142ea:    f2058753            fmv.d.x    fa4,a1
   142ee:    239c                fld     fa5,0(a5)
   142f0:    4805                li      a6,1
   142f2:    12f777d3            fmul.d    fa5,fa4,fa5
   142f6:    e20785d3            fmv.x.d    a1,fa5
   142fa:    8605                srai    a2,a2,0x1
   142fc:    0705                addi    a4,a4,1
   142fe:    bfad                j       0x14278
   14300:    035008b7            lui     a7,0x3500
   14304:    00b888bb            addw    a7,a7,a1
   14308:    1882                slli    a7,a7,0x20
   1430a:    8ff1                and     a5,a5,a2
   1430c:    0117edb3            or      s11,a5,a7
   14310:    b7e9                j       0x142da
   14312:    d661                beqz    a2,0x142da
   14314:    40c007bb            negw    a5,a2
   14318:    00f7f713            andi    a4,a5,15
   1431c:    cf09                beqz    a4,0x14336
   1431e:    6675                lui     a2,0x1d
   14320:    070e                slli    a4,a4,0x3
   14322:    74060613            addi    a2,a2,1856 # 0x1d740
   14326:    9732                add     a4,a4,a2
   14328:    f20d8753            fmv.d.x    fa4,s11
   1432c:    231c                fld     fa5,0(a4)
   1432e:    1af777d3            fdiv.d    fa5,fa4,fa5
   14332:    e2078dd3            fmv.x.d    s11,fa5
   14336:    4047d79b            sraiw   a5,a5,0x4
   1433a:    d3c5                beqz    a5,0x142da
   1433c:    477d                li      a4,31
   1433e:    00f75b63            bge     a4,a5,0x14354
   14342:    4981                li      s3,0
   14344:    4901                li      s2,0
   14346:    4b01                li      s6,0
   14348:    4a01                li      s4,0
   1434a:    02200793            li      a5,34
   1434e:    4d81                li      s11,0
   14350:    c01c                sw      a5,0(s0)
   14352:    b5e5                j       0x1423a
   14354:    0107f493            andi    s1,a5,16
   14358:    2481                sext.w  s1,s1
   1435a:    c099                beqz    s1,0x14360
   1435c:    06a00493            li      s1,106
   14360:    6775                lui     a4,0x1d
   14362:    866e                mv      a2,s11
   14364:    11070713            addi    a4,a4,272 # 0x1d110
   14368:    4581                li      a1,0
   1436a:    0017f513            andi    a0,a5,1
   1436e:    c909                beqz    a0,0x14380
   14370:    f2060753            fmv.d.x    fa4,a2
   14374:    231c                fld     fa5,0(a4)
   14376:    4585                li      a1,1
   14378:    12f777d3            fmul.d    fa5,fa4,fa5
   1437c:    e2078653            fmv.x.d    a2,fa5
   14380:    8785                srai    a5,a5,0x1
   14382:    0721                addi    a4,a4,8
   14384:    f3fd                bnez    a5,0x1436a
   14386:    c191                beqz    a1,0x1438a
   14388:    8db2                mv      s11,a2
   1438a:    cc85                beqz    s1,0x143c2
   1438c:    420dd713            srai    a4,s11,0x20
   14390:    0147561b            srliw   a2,a4,0x14
   14394:    7ff67793            andi    a5,a2,2047
   14398:    06b00613            li      a2,107
   1439c:    40f605bb            subw    a1,a2,a5
   143a0:    02b05163            blez    a1,0x143c2
   143a4:    47fd                li      a5,31
   143a6:    26b7d763            bge     a5,a1,0x14614
   143aa:    57fd                li      a5,-1
   143ac:    1782                slli    a5,a5,0x20
   143ae:    00fdfdb3            and     s11,s11,a5
   143b2:    03400793            li      a5,52
   143b6:    24b7d163            bge     a5,a1,0x145f8
   143ba:    03700893            li      a7,55
   143be:    03489d93            slli    s11,a7,0x34
   143c2:    f20007d3            fmv.d.x    fa5,zero
   143c6:    f20d8753            fmv.d.x    fa4,s11
   143ca:    a2f727d3            feq.d    a5,fa4,fa5
   143ce:    fbb5                bnez    a5,0x14342
   143d0:    85da                mv      a1,s6
   143d2:    8766                mv      a4,s9
   143d4:    864e                mv      a2,s3
   143d6:    8522                mv      a0,s0
   143d8:    3bf040ef            jal     ra,0x18f96
   143dc:    8b2a                mv      s6,a0
   143de:    e40503e3            beqz    a0,0x14224
   143e2:    4781                li      a5,0
   143e4:    000ad463            bgez    s5,0x143ec
   143e8:    412a07bb            subw    a5,s4,s2
   143ec:    e83e                sd      a5,16(sp)
   143ee:    000ad363            bgez    s5,0x143f4
   143f2:    4b81                li      s7,0
   143f4:    000b879b            sext.w  a5,s7
   143f8:    f03e                sd      a5,32(sp)
   143fa:    000207b7            lui     a5,0x20
   143fe:    d507b487            fld     fs1,-688(a5) # 0x1fd50
   14402:    000207b7            lui     a5,0x20
   14406:    d407b907            fld     fs2,-704(a5) # 0x1fd40
   1440a:    000207b7            lui     a5,0x20
   1440e:    d487b987            fld     fs3,-696(a5) # 0x1fd48
   14412:    000207b7            lui     a5,0x20
   14416:    d607ba07            fld     fs4,-672(a5) # 0x1fd60
   1441a:    4981                li      s3,0
   1441c:    4901                li      s2,0
   1441e:    008b2583            lw      a1,8(s6)
   14422:    8522                mv      a0,s0
   14424:    25f040ef            jal     ra,0x18e82
   14428:    8a2a                mv      s4,a0
   1442a:    e00501e3            beqz    a0,0x1422c
   1442e:    014b2603            lw      a2,20(s6)
   14432:    010b0593            addi    a1,s6,16
   14436:    0541                addi    a0,a0,16
   14438:    0609                addi    a2,a2,2
   1443a:    060a                slli    a2,a2,0x2
   1443c:    edffe0ef            jal     ra,0x1331a
   14440:    f20d8553            fmv.d.x    fa0,s11
   14444:    08b0                addi    a2,sp,88
   14446:    00cc                addi    a1,sp,68
   14448:    8522                mv      a0,s0
   1444a:    e46e                sd      s11,8(sp)
   1444c:    212050ef            jal     ra,0x1965e
   14450:    e8aa                sd      a0,80(sp)
   14452:    dc050de3            beqz    a0,0x1422c
   14456:    4585                li      a1,1
   14458:    8522                mv      a0,s0
   1445a:    4b3040ef            jal     ra,0x1910c
   1445e:    892a                mv      s2,a0
   14460:    dc0506e3            beqz    a0,0x1422c
   14464:    4796                lw      a5,68(sp)
   14466:    1c07c463            bltz    a5,0x1462e
   1446a:    6742                ld      a4,16(sp)
   1446c:    7682                ld      a3,32(sp)
   1446e:    00e78bbb            addw    s7,a5,a4
   14472:    4766                lw      a4,88(sp)
   14474:    9f85                subw    a5,a5,s1
   14476:    03600613            li      a2,54
   1447a:    9fb9                addw    a5,a5,a4
   1447c:    fff7851b            addiw   a0,a5,-1
   14480:    40e6073b            subw    a4,a2,a4
   14484:    c0200593            li      a1,-1022
   14488:    863a                mv      a2,a4
   1448a:    1cb55263            bge     a0,a1,0x1464e
   1448e:    c0200713            li      a4,-1022
   14492:    40a705bb            subw    a1,a4,a0
   14496:    40b6073b            subw    a4,a2,a1
   1449a:    467d                li      a2,31
   1449c:    18b64e63            blt     a2,a1,0x14638
   144a0:    4785                li      a5,1
   144a2:    00b797bb            sllw    a5,a5,a1
   144a6:    f43e                sd      a5,40(sp)
   144a8:    ec02                sd      zero,24(sp)
   144aa:    00eb8d3b            addw    s10,s7,a4
   144ae:    9f35                addw    a4,a4,a3
   144b0:    00e48cbb            addw    s9,s1,a4
   144b4:    866a                mv      a2,s10
   144b6:    8766                mv      a4,s9
   144b8:    87de                mv      a5,s7
   144ba:    017d5363            bge     s10,s7,0x144c0
   144be:    87ea                mv      a5,s10
   144c0:    0007869b            sext.w  a3,a5
   144c4:    00dcd363            bge     s9,a3,0x144ca
   144c8:    87ba                mv      a5,a4
   144ca:    0007869b            sext.w  a3,a5
   144ce:    00d05863            blez    a3,0x144de
   144d2:    40f60d3b            subw    s10,a2,a5
   144d6:    40f70cbb            subw    s9,a4,a5
   144da:    40fb8bbb            subw    s7,s7,a5
   144de:    67c2                ld      a5,16(sp)
   144e0:    02f05863            blez    a5,0x14510
   144e4:    85ca                mv      a1,s2
   144e6:    863e                mv      a2,a5
   144e8:    8522                mv      a0,s0
   144ea:    58f040ef            jal     ra,0x19278
   144ee:    892a                mv      s2,a0
   144f0:    d2050ee3            beqz    a0,0x1422c
   144f4:    6646                ld      a2,80(sp)
   144f6:    85aa                mv      a1,a0
   144f8:    8522                mv      a0,s0
   144fa:    42f040ef            jal     ra,0x19128
   144fe:    fc2a                sd      a0,56(sp)
   14500:    d20506e3            beqz    a0,0x1422c
   14504:    65c6                ld      a1,80(sp)
   14506:    8522                mv      a0,s0
   14508:    1df040ef            jal     ra,0x18ee6
   1450c:    77e2                ld      a5,56(sp)
   1450e:    e8be                sd      a5,80(sp)
   14510:    15a04163            bgtz    s10,0x14652
   14514:    01505a63            blez    s5,0x14528
   14518:    7602                ld      a2,32(sp)
   1451a:    85d2                mv      a1,s4
   1451c:    8522                mv      a0,s0
   1451e:    55b040ef            jal     ra,0x19278
   14522:    8a2a                mv      s4,a0
   14524:    d00504e3            beqz    a0,0x1422c
   14528:    01905a63            blez    s9,0x1453c
   1452c:    85d2                mv      a1,s4
   1452e:    8666                mv      a2,s9
   14530:    8522                mv      a0,s0
   14532:    5df040ef            jal     ra,0x19310
   14536:    8a2a                mv      s4,a0
   14538:    ce050ae3            beqz    a0,0x1422c
   1453c:    01705a63            blez    s7,0x14550
   14540:    85ca                mv      a1,s2
   14542:    865e                mv      a2,s7
   14544:    8522                mv      a0,s0
   14546:    5cb040ef            jal     ra,0x19310
   1454a:    892a                mv      s2,a0
   1454c:    ce0500e3            beqz    a0,0x1422c
   14550:    65c6                ld      a1,80(sp)
   14552:    8652                mv      a2,s4
   14554:    8522                mv      a0,s0
   14556:    6c5040ef            jal     ra,0x1941a
   1455a:    89aa                mv      s3,a0
   1455c:    cc0508e3            beqz    a0,0x1422c
   14560:    01052c83            lw      s9,16(a0) # 0x7c900010
   14564:    85ca                mv      a1,s2
   14566:    00052823            sw      zero,16(a0)
   1456a:    67f040ef            jal     ra,0x193e8
   1456e:    0e055b63            bgez    a0,0x14664
   14572:    140c9963            bnez    s9,0x146c4
   14576:    67a2                ld      a5,8(sp)
   14578:    00c79713            slli    a4,a5,0xc
   1457c:    14071463            bnez    a4,0x146c4
   14580:    7ff00737            lui     a4,0x7ff00
   14584:    020dd793            srli    a5,s11,0x20
   14588:    8ff9                and     a5,a5,a4
   1458a:    06b00737            lui     a4,0x6b00
   1458e:    12f77b63            bgeu    a4,a5,0x146c4
   14592:    0189a783            lw      a5,24(s3)
   14596:    e791                bnez    a5,0x145a2
   14598:    0149a703            lw      a4,20(s3)
   1459c:    4785                li      a5,1
   1459e:    12e7d363            bge     a5,a4,0x146c4
   145a2:    85ce                mv      a1,s3
   145a4:    4605                li      a2,1
   145a6:    8522                mv      a0,s0
   145a8:    569040ef            jal     ra,0x19310
   145ac:    85ca                mv      a1,s2
   145ae:    89aa                mv      s3,a0
   145b0:    639040ef            jal     ra,0x193e8
   145b4:    10a05863            blez    a0,0x146c4
   145b8:    420dd793            srai    a5,s11,0x20
   145bc:    12048e63            beqz    s1,0x146f8
   145c0:    7ff00737            lui     a4,0x7ff00
   145c4:    8f7d                and     a4,a4,a5
   145c6:    06b006b7            lui     a3,0x6b00
   145ca:    12e6c763            blt     a3,a4,0x146f8
   145ce:    037007b7            lui     a5,0x3700
   145d2:    d6e7dce3            bge     a5,a4,0x1434a
   145d6:    39500793            li      a5,917
   145da:    17d2                slli    a5,a5,0x34
   145dc:    f20d87d3            fmv.d.x    fa5,s11
   145e0:    f2078753            fmv.d.x    fa4,a5
   145e4:    12e7f7d3            fmul.d    fa5,fa5,fa4
   145e8:    e2078dd3            fmv.x.d    s11,fa5
   145ec:    c40d99e3            bnez    s11,0x1423e
   145f0:    02200793            li      a5,34
   145f4:    c01c                sw      a5,0(s0)
   145f6:    b1a1                j       0x1423e
   145f8:    fe05861b            addiw   a2,a1,-32
   145fc:    57fd                li      a5,-1
   145fe:    00c7963b            sllw    a2,a5,a2
   14602:    020d9893            slli    a7,s11,0x20
   14606:    8f71                and     a4,a4,a2
   14608:    1702                slli    a4,a4,0x20
   1460a:    0208d893            srli    a7,a7,0x20
   1460e:    00e8edb3            or      s11,a7,a4
   14612:    bb45                j       0x143c2
   14614:    57fd                li      a5,-1
   14616:    00b797bb            sllw    a5,a5,a1
   1461a:    00fdf7b3            and     a5,s11,a5
   1461e:    020dd893            srli    a7,s11,0x20
   14622:    1782                slli    a5,a5,0x20
   14624:    9381                srli    a5,a5,0x20
   14626:    1882                slli    a7,a7,0x20
   14628:    00f8edb3            or      s11,a7,a5
   1462c:    bb59                j       0x143c2
   1462e:    7702                ld      a4,32(sp)
   14630:    6bc2                ld      s7,16(sp)
   14632:    40f706bb            subw    a3,a4,a5
   14636:    bd35                j       0x14472
   14638:    be200613            li      a2,-1054
   1463c:    40a607bb            subw    a5,a2,a0
   14640:    4605                li      a2,1
   14642:    00f617bb            sllw    a5,a2,a5
   14646:    ec3e                sd      a5,24(sp)
   14648:    4785                li      a5,1
   1464a:    f43e                sd      a5,40(sp)
   1464c:    bdb9                j       0x144aa
   1464e:    ec02                sd      zero,24(sp)
   14650:    bfe5                j       0x14648
   14652:    65c6                ld      a1,80(sp)
   14654:    866a                mv      a2,s10
   14656:    8522                mv      a0,s0
   14658:    4b9040ef            jal     ra,0x19310
   1465c:    e8aa                sd      a0,80(sp)
   1465e:    ea051be3            bnez    a0,0x14514
   14662:    b6e9                j       0x1422c
   14664:    e565                bnez    a0,0x1474c
   14666:    060c8163            beqz    s9,0x146c8
   1466a:    420dd693            srai    a3,s11,0x20
   1466e:    fff6c793            not     a5,a3
   14672:    02c79713            slli    a4,a5,0x2c
   14676:    ef31                bnez    a4,0x146d2
   14678:    000d861b            sext.w  a2,s11
   1467c:    577d                li      a4,-1
   1467e:    c08d                beqz    s1,0x146a0
   14680:    7ff007b7            lui     a5,0x7ff00
   14684:    8ff5                and     a5,a5,a3
   14686:    06a005b7            lui     a1,0x6a00
   1468a:    00f5eb63            bltu    a1,a5,0x146a0
   1468e:    06b00713            li      a4,107
   14692:    0147d79b            srliw   a5,a5,0x14
   14696:    40f707bb            subw    a5,a4,a5
   1469a:    577d                li      a4,-1
   1469c:    00f7173b            sllw    a4,a4,a5
   146a0:    02e61963            bne     a2,a4,0x146d2
   146a4:    7ff00713            li      a4,2047
   146a8:    67a2                ld      a5,8(sp)
   146aa:    1752                slli    a4,a4,0x34
   146ac:    177d                addi    a4,a4,-1
   146ae:    b6f70fe3            beq     a4,a5,0x1422c
   146b2:    7ff008b7            lui     a7,0x7ff00
   146b6:    0116f7b3            and     a5,a3,a7
   146ba:    001008b7            lui     a7,0x100
   146be:    01178db3            add     s11,a5,a7
   146c2:    1d82                slli    s11,s11,0x20
   146c4:    f889                bnez    s1,0x145d6
   146c6:    bea5                j       0x1423e
   146c8:    67a2                ld      a5,8(sp)
   146ca:    00c79713            slli    a4,a5,0xc
   146ce:    ee0705e3            beqz    a4,0x145b8
   146d2:    67e2                ld      a5,24(sp)
   146d4:    c7b9                beqz    a5,0x14722
   146d6:    6762                ld      a4,24(sp)
   146d8:    020dd793            srli    a5,s11,0x20
   146dc:    8ff9                and     a5,a5,a4
   146de:    d3fd                beqz    a5,0x146c4
   146e0:    85a6                mv      a1,s1
   146e2:    856e                mv      a0,s11
   146e4:    040c8463            beqz    s9,0x1472c
   146e8:    d6cff0ef            jal     ra,0x13c54
   146ec:    27a2                fld     fa5,8(sp)
   146ee:    02a7f7d3            fadd.d    fa5,fa5,fa0
   146f2:    e2078dd3            fmv.x.d    s11,fa5
   146f6:    b7f9                j       0x146c4
   146f8:    7ff008b7            lui     a7,0x7ff00
   146fc:    0117f7b3            and     a5,a5,a7
   14700:    fff008b7            lui     a7,0xfff00
   14704:    00f888bb            addw    a7,a7,a5
   14708:    001007b7            lui     a5,0x100
   1470c:    17fd                addi    a5,a5,-1
   1470e:    00f8e8b3            or      a7,a7,a5
   14712:    02089793            slli    a5,a7,0x20
   14716:    58fd                li      a7,-1
   14718:    0208d893            srli    a7,a7,0x20
   1471c:    00f8edb3            or      s11,a7,a5
   14720:    b755                j       0x146c4
   14722:    77a2                ld      a5,40(sp)
   14724:    00fdf7b3            and     a5,s11,a5
   14728:    2781                sext.w  a5,a5
   1472a:    bf55                j       0x146de
   1472c:    d28ff0ef            jal     ra,0x13c54
   14730:    27a2                fld     fa5,8(sp)
   14732:    0aa7f7d3            fsub.d    fa5,fa5,fa0
   14736:    e20787d3            fmv.x.d    a5,fa5
   1473a:    f20007d3            fmv.d.x    fa5,zero
   1473e:    f2078753            fmv.d.x    fa4,a5
   14742:    8dbe                mv      s11,a5
   14744:    a2f727d3            feq.d    a5,fa4,fa5
   14748:    dfb5                beqz    a5,0x146c4
   1474a:    b101                j       0x1434a
   1474c:    85ca                mv      a1,s2
   1474e:    854e                mv      a0,s3
   14750:    7ed040ef            jal     ra,0x1973c
   14754:    a29507d3            fle.d    a5,fa0,fs1
   14758:    c7e9                beqz    a5,0x14822
   1475a:    3ff00b93            li      s7,1023
   1475e:    000c9b63            bnez    s9,0x14774
   14762:    6722                ld      a4,8(sp)
   14764:    00c71693            slli    a3,a4,0xc
   14768:    ced9                beqz    a3,0x14806
   1476a:    4785                li      a5,1
   1476c:    bcf70fe3            beq     a4,a5,0x1434a
   14770:    bff00b93            li      s7,-1025
   14774:    000207b7            lui     a5,0x20
   14778:    d487b407            fld     fs0,-696(a5) # 0x1fd48
   1477c:    1bd2                slli    s7,s7,0x34
   1477e:    420dd693            srai    a3,s11,0x20
   14782:    7ff00737            lui     a4,0x7ff00
   14786:    00e6fd33            and     s10,a3,a4
   1478a:    7fe007b7            lui     a5,0x7fe00
   1478e:    0efd1863            bne     s10,a5,0x1487e
   14792:    fcb007b7            lui     a5,0xfcb00
   14796:    9fb5                addw    a5,a5,a3
   14798:    56fd                li      a3,-1
   1479a:    9281                srli    a3,a3,0x20
   1479c:    00ddf8b3            and     a7,s11,a3
   147a0:    1782                slli    a5,a5,0x20
   147a2:    00f8edb3            or      s11,a7,a5
   147a6:    f20d8553            fmv.d.x    fa0,s11
   147aa:    ec3a                sd      a4,24(sp)
   147ac:    571040ef            jal     ra,0x1951c
   147b0:    f20b87d3            fmv.d.x    fa5,s7
   147b4:    f20d8753            fmv.d.x    fa4,s11
   147b8:    6762                ld      a4,24(sp)
   147ba:    56fd                li      a3,-1
   147bc:    72f577c3            fmadd.d    fa5,fa0,fa5,fa4
   147c0:    7ca007b7            lui     a5,0x7ca00
   147c4:    9281                srli    a3,a3,0x20
   147c6:    e20788d3            fmv.x.d    a7,fa5
   147ca:    4208d613            srai    a2,a7,0x20
   147ce:    8f71                and     a4,a4,a2
   147d0:    06f76063            bltu    a4,a5,0x14830
   147d4:    7ff00893            li      a7,2047
   147d8:    67a2                ld      a5,8(sp)
   147da:    18d2                slli    a7,a7,0x34
   147dc:    18fd                addi    a7,a7,-1
   147de:    a4f887e3            beq     a7,a5,0x1422c
   147e2:    8dc6                mv      s11,a7
   147e4:    65c6                ld      a1,80(sp)
   147e6:    8522                mv      a0,s0
   147e8:    6fe040ef            jal     ra,0x18ee6
   147ec:    85d2                mv      a1,s4
   147ee:    8522                mv      a0,s0
   147f0:    6f6040ef            jal     ra,0x18ee6
   147f4:    85ca                mv      a1,s2
   147f6:    8522                mv      a0,s0
   147f8:    6ee040ef            jal     ra,0x18ee6
   147fc:    85ce                mv      a1,s3
   147fe:    8522                mv      a0,s0
   14800:    6e6040ef            jal     ra,0x18ee6
   14804:    b929                j       0x1441e
   14806:    000207b7            lui     a5,0x20
   1480a:    d407b407            fld     fs0,-704(a5) # 0x1fd40
   1480e:    a33517d3            flt.d    a5,fa0,fs3
   14812:    e399                bnez    a5,0x14818
   14814:    12857453            fmul.d    fs0,fa0,fs0
   14818:    228417d3            fneg.d    fa5,fs0
   1481c:    e2078bd3            fmv.x.d    s7,fa5
   14820:    bfb9                j       0x1477e
   14822:    13257453            fmul.d    fs0,fa0,fs2
   14826:    e2040bd3            fmv.x.d    s7,fs0
   1482a:    f40c9ae3            bnez    s9,0x1477e
   1482e:    b7ed                j       0x14818
   14830:    035007b7            lui     a5,0x3500
   14834:    9fb1                addw    a5,a5,a2
   14836:    1782                slli    a5,a5,0x20
   14838:    0116f8b3            and     a7,a3,a7
   1483c:    00f8edb3            or      s11,a7,a5
   14840:    f0d5                bnez    s1,0x147e4
   14842:    020dd793            srli    a5,s11,0x20
   14846:    7ff00737            lui     a4,0x7ff00
   1484a:    8ff9                and     a5,a5,a4
   1484c:    f8fd1ce3            bne     s10,a5,0x147e4
   14850:    c20417d3            fcvt.w.d    a5,fs0,rtz
   14854:    d2078553            fcvt.d.w    fa0,a5
   14858:    0aa47453            fsub.d    fs0,fs0,fa0
   1485c:    000c9563            bnez    s9,0x14866
   14860:    00cd9793            slli    a5,s11,0xc
   14864:    c3c1                beqz    a5,0x148e4
   14866:    a34417d3            flt.d    a5,fs0,fs4
   1486a:    9c079ae3            bnez    a5,0x1423e
   1486e:    000207b7            lui     a5,0x20
   14872:    d687b787            fld     fa5,-664(a5) # 0x1fd68
   14876:    a28797d3            flt.d    a5,fa5,fs0
   1487a:    d7ad                beqz    a5,0x147e4
   1487c:    b2c9                j       0x1423e
   1487e:    c8a1                beqz    s1,0x148ce
   14880:    06a007b7            lui     a5,0x6a00
   14884:    05a7e563            bltu    a5,s10,0x148ce
   14888:    000207b7            lui     a5,0x20
   1488c:    d587b787            fld     fa5,-680(a5) # 0x1fd58
   14890:    a2f407d3            fle.d    a5,fs0,fa5
   14894:    c385                beqz    a5,0x148b4
   14896:    c21417d3            fcvt.wu.d    a5,fs0,rtz
   1489a:    2781                sext.w  a5,a5
   1489c:    e391                bnez    a5,0x148a0
   1489e:    4785                li      a5,1
   148a0:    d2178453            fcvt.d.wu    fs0,a5
   148a4:    e2040bd3            fmv.x.d    s7,fs0
   148a8:    000c9663            bnez    s9,0x148b4
   148ac:    228417d3            fneg.d    fa5,fs0
   148b0:    e2078bd3            fmv.x.d    s7,fa5
   148b4:    020bd713            srli    a4,s7,0x20
   148b8:    06b007b7            lui     a5,0x6b00
   148bc:    9fb9                addw    a5,a5,a4
   148be:    41a787bb            subw    a5,a5,s10
   148c2:    1b82                slli    s7,s7,0x20
   148c4:    1782                slli    a5,a5,0x20
   148c6:    020bdb93            srli    s7,s7,0x20
   148ca:    00fbebb3            or      s7,s7,a5
   148ce:    2522                fld     fa0,8(sp)
   148d0:    44d040ef            jal     ra,0x1951c
   148d4:    f20b87d3            fmv.d.x    fa5,s7
   148d8:    2722                fld     fa4,8(sp)
   148da:    72f577c3            fmadd.d    fa5,fa0,fa5,fa4
   148de:    e2078dd3            fmv.x.d    s11,fa5
   148e2:    bfb9                j       0x14840
   148e4:    000207b7            lui     a5,0x20
   148e8:    d707b787            fld     fa5,-656(a5) # 0x1fd70
   148ec:    a2f417d3            flt.d    a5,fs0,fa5
   148f0:    b769                j       0x1487a
   148f2:    06500713            li      a4,101
   148f6:    00e78763            beq     a5,a4,0x14904
   148fa:    04500713            li      a4,69
   148fe:    4805                li      a6,1
   14900:    e4e79963            bne     a5,a4,0x13f52
   14904:    4a01                li      s4,0
   14906:    4805                li      a6,1
   14908:    db0ff06f            j       0x13eb8
   1490c:    8781b783            ld      a5,-1928(gp)
   14910:    67b4                ld      a3,72(a5)
   14912:    e689                bnez    a3,0x1491c
   14914:    0001f6b7            lui     a3,0x1f
   14918:    36868693            addi    a3,a3,872 # 0x1f368
   1491c:    b7aff06f            j       0x13c96
   14920:    86b2                mv      a3,a2
   14922:    862e                mv      a2,a1
   14924:    85aa                mv      a1,a0
   14926:    8781b503            ld      a0,-1928(gp)
   1492a:    b6cff06f            j       0x13c96
   1492e:    8781b783            ld      a5,-1928(gp)
   14932:    862e                mv      a2,a1
   14934:    67b4                ld      a3,72(a5)
   14936:    e689                bnez    a3,0x14940
   14938:    0001f6b7            lui     a3,0x1f
   1493c:    36868693            addi    a3,a3,872 # 0x1f368
   14940:    85aa                mv      a1,a0
   14942:    853e                mv      a0,a5
   14944:    b52ff06f            j       0x13c96
   14948:    1141                addi    sp,sp,-16
   1494a:    e022                sd      s0,0(sp)
   1494c:    86b2                mv      a3,a2
   1494e:    862e                mv      a2,a1
   14950:    85aa                mv      a1,a0
   14952:    8781b503            ld      a0,-1928(gp)
   14956:    e406                sd      ra,8(sp)
   14958:    b3eff0ef            jal     ra,0x13c96
   1495c:    a2a527d3            feq.d    a5,fa0,fa0
   14960:    e799                bnez    a5,0x1496e
   14962:    6402                ld      s0,0(sp)
   14964:    60a2                ld      ra,8(sp)
   14966:    4501                li      a0,0
   14968:    0141                addi    sp,sp,16
   1496a:    8aeff06f            j       0x13a18
   1496e:    22a507d3            fmv.d    fa5,fa0
   14972:    40157553            fcvt.s.d    fa0,fa0
   14976:    000207b7            lui     a5,0x20
   1497a:    d9c7a707            flw     fa4,-612(a5) # 0x1fd9c
   1497e:    20a526d3            fabs.s    fa3,fa0
   14982:    00102773            frflags    a4
   14986:    a0d717d3            flt.s    a5,fa4,fa3
   1498a:    00171073            fsflags    a4
   1498e:    c39d                beqz    a5,0x149b4
   14990:    000207b7            lui     a5,0x20
   14994:    22f7a7d3            fabs.d    fa5,fa5
   14998:    d787b707            fld     fa4,-648(a5) # 0x1fd78
   1499c:    00102773            frflags    a4
   149a0:    a2f717d3            flt.d    a5,fa4,fa5
   149a4:    00171073            fsflags    a4
   149a8:    e791                bnez    a5,0x149b4
   149aa:    8781b783            ld      a5,-1928(gp)
   149ae:    02200713            li      a4,34
   149b2:    c398                sw      a4,0(a5)
   149b4:    60a2                ld      ra,8(sp)
   149b6:    6402                ld      s0,0(sp)
   149b8:    0141                addi    sp,sp,16
   149ba:    8082                ret

   149bc:    8781b703            ld      a4,-1928(gp)
   149c0:    1141                addi    sp,sp,-16
   149c2:    e022                sd      s0,0(sp)
   149c4:    6734                ld      a3,72(a4)
   149c6:    e406                sd      ra,8(sp)
   149c8:    862e                mv      a2,a1
   149ca:    843e                mv      s0,a5
   149cc:    e689                bnez    a3,0x149d6
   149ce:    0001f6b7            lui     a3,0x1f
   149d2:    36868693            addi    a3,a3,872 # 0x1f368
   149d6:    85aa                mv      a1,a0
   149d8:    853a                mv      a0,a4
   149da:    abcff0ef            jal     ra,0x13c96
   149de:    a2a527d3            feq.d    a5,fa0,fa0
   149e2:    22a507d3            fmv.d    fa5,fa0
   149e6:    e799                bnez    a5,0x149f4
   149e8:    6402                ld      s0,0(sp)
   149ea:    60a2                ld      ra,8(sp)
   149ec:    4501                li      a0,0
   149ee:    0141                addi    sp,sp,16
   149f0:    828ff06f            j       0x13a18
   149f4:    40157553            fcvt.s.d    fa0,fa0
   149f8:    000207b7            lui     a5,0x20
   149fc:    d9c7a707            flw     fa4,-612(a5) # 0x1fd9c
   14a00:    20a526d3            fabs.s    fa3,fa0
   14a04:    00102773            frflags    a4
   14a08:    a0d717d3            flt.s    a5,fa4,fa3
   14a0c:    00171073            fsflags    a4
   14a10:    c39d                beqz    a5,0x14a36
   14a12:    000207b7            lui     a5,0x20
   14a16:    22f7a7d3            fabs.d    fa5,fa5
   14a1a:    d787b707            fld     fa4,-648(a5) # 0x1fd78
   14a1e:    00102773            frflags    a4
   14a22:    a2f717d3            flt.d    a5,fa4,fa5
   14a26:    00171073            fsflags    a4
   14a2a:    e791                bnez    a5,0x14a36
   14a2c:    8781b783            ld      a5,-1928(gp)
   14a30:    02200713            li      a4,34
   14a34:    c398                sw      a4,0(a5)
   14a36:    60a2                ld      ra,8(sp)
   14a38:    6402                ld      s0,0(sp)
   14a3a:    0141                addi    sp,sp,16
   14a3c:    8082                ret

   14a3e:    8781b783            ld      a5,-1928(gp)
   14a42:    1101                addi    sp,sp,-32
   14a44:    ec06                sd      ra,24(sp)
   14a46:    67bc                ld      a5,72(a5)
   14a48:    e789                bnez    a5,0x14a52
   14a4a:    0001f7b7            lui     a5,0x1f
   14a4e:    36878793            addi    a5,a5,872 # 0x1f368
   14a52:    870a                mv      a4,sp
   14a54:    4681                li      a3,0
   14a56:    41a000ef            jal     ra,0x14e70
   14a5a:    60e2                ld      ra,24(sp)
   14a5c:    6502                ld      a0,0(sp)
   14a5e:    65a2                ld      a1,8(sp)
   14a60:    6105                addi    sp,sp,32
   14a62:    8082                ret

   14a64:    87b2                mv      a5,a2
   14a66:    862e                mv      a2,a1
   14a68:    85aa                mv      a1,a0
   14a6a:    8781b503            ld      a0,-1928(gp)
   14a6e:    1101                addi    sp,sp,-32
   14a70:    870a                mv      a4,sp
   14a72:    4681                li      a3,0
   14a74:    ec06                sd      ra,24(sp)
   14a76:    3fa000ef            jal     ra,0x14e70
   14a7a:    60e2                ld      ra,24(sp)
   14a7c:    6502                ld      a0,0(sp)
   14a7e:    65a2                ld      a1,8(sp)
   14a80:    6105                addi    sp,sp,32
   14a82:    8082                ret

   14a84:    882a                mv      a6,a0
   14a86:    8781b503            ld      a0,-1928(gp)
   14a8a:    1101                addi    sp,sp,-32
   14a8c:    ec06                sd      ra,24(sp)
   14a8e:    653c                ld      a5,72(a0)
   14a90:    862e                mv      a2,a1
   14a92:    e789                bnez    a5,0x14a9c
   14a94:    0001f7b7            lui     a5,0x1f
   14a98:    36878793            addi    a5,a5,872 # 0x1f368
   14a9c:    870a                mv      a4,sp
   14a9e:    85c2                mv      a1,a6
   14aa0:    4681                li      a3,0
   14aa2:    3ce000ef            jal     ra,0x14e70
   14aa6:    60e2                ld      ra,24(sp)
   14aa8:    6502                ld      a0,0(sp)
   14aaa:    65a2                ld      a1,8(sp)
   14aac:    6105                addi    sp,sp,32
   14aae:    8082                ret

   14ab0:    715d                addi    sp,sp,-80
   14ab2:    f84a                sd      s2,48(sp)
   14ab4:    f44e                sd      s3,40(sp)
   14ab6:    e486                sd      ra,72(sp)
   14ab8:    e0a2                sd      s0,64(sp)
   14aba:    fc26                sd      s1,56(sp)
   14abc:    89aa                mv      s3,a0
   14abe:    892e                mv      s2,a1
   14ac0:    00190493            addi    s1,s2,1
   14ac4:    fff4c403            lbu     s0,-1(s1)
   14ac8:    853a                mv      a0,a4
   14aca:    ec36                sd      a3,24(sp)
   14acc:    e832                sd      a2,16(sp)
   14ace:    e42e                sd      a1,8(sp)
   14ad0:    e03a                sd      a4,0(sp)
   14ad2:    a54fe0ef            jal     ra,0x12d26
   14ad6:    9522                add     a0,a0,s0
   14ad8:    00154783            lbu     a5,1(a0)
   14adc:    6702                ld      a4,0(sp)
   14ade:    65a2                ld      a1,8(sp)
   14ae0:    8ba1                andi    a5,a5,8
   14ae2:    6642                ld      a2,16(sp)
   14ae4:    66e2                ld      a3,24(sp)
   14ae6:    e7d9                bnez    a5,0x14b74
   14ae8:    02d00793            li      a5,45
   14aec:    08f41663            bne     s0,a5,0x14b78
   14af0:    0004c783            lbu     a5,0(s1)
   14af4:    4305                li      t1,1
   14af6:    00290493            addi    s1,s2,2
   14afa:    cee5                beqz    a3,0x14bf2
   14afc:    4741                li      a4,16
   14afe:    02e69263            bne     a3,a4,0x14b22
   14b02:    03000713            li      a4,48
   14b06:    00e79e63            bne     a5,a4,0x14b22
   14b0a:    0004c783            lbu     a5,0(s1)
   14b0e:    05800713            li      a4,88
   14b12:    0df7f793            andi    a5,a5,223
   14b16:    0ce79963            bne     a5,a4,0x14be8
   14b1a:    0014c783            lbu     a5,1(s1)
   14b1e:    46c1                li      a3,16
   14b20:    0489                addi    s1,s1,2
   14b22:    577d                li      a4,-1
   14b24:    06031763            bnez    t1,0x14b92
   14b28:    8305                srli    a4,a4,0x1
   14b2a:    02d77e33            remu    t3,a4,a3
   14b2e:    4801                li      a6,0
   14b30:    4501                li      a0,0
   14b32:    4fa5                li      t6,9
   14b34:    4f65                li      t5,25
   14b36:    52fd                li      t0,-1
   14b38:    02d75eb3            divu    t4,a4,a3
   14b3c:    2e01                sext.w  t3,t3
   14b3e:    0007889b            sext.w  a7,a5
   14b42:    fd08839b            addiw   t2,a7,-48
   14b46:    047fe863            bltu    t6,t2,0x14b96
   14b4a:    fd07879b            addiw   a5,a5,-48
   14b4e:    06d7d263            bge     a5,a3,0x14bb2
   14b52:    00580d63            beq     a6,t0,0x14b6c
   14b56:    587d                li      a6,-1
   14b58:    00aeea63            bltu    t4,a0,0x14b6c
   14b5c:    00ae9463            bne     t4,a0,0x14b64
   14b60:    00fe4663            blt     t3,a5,0x14b6c
   14b64:    4805                li      a6,1
   14b66:    02a68533            mul     a0,a3,a0
   14b6a:    953e                add     a0,a0,a5
   14b6c:    0485                addi    s1,s1,1
   14b6e:    fff4c783            lbu     a5,-1(s1)
   14b72:    b7f1                j       0x14b3e
   14b74:    8926                mv      s2,s1
   14b76:    b7a9                j       0x14ac0
   14b78:    02b00793            li      a5,43
   14b7c:    00f40663            beq     s0,a5,0x14b88
   14b80:    0004079b            sext.w  a5,s0
   14b84:    4301                li      t1,0
   14b86:    bf95                j       0x14afa
   14b88:    0004c783            lbu     a5,0(s1)
   14b8c:    00290493            addi    s1,s2,2
   14b90:    bfd5                j       0x14b84
   14b92:    177e                slli    a4,a4,0x3f
   14b94:    bf59                j       0x14b2a
   14b96:    fbf8839b            addiw   t2,a7,-65
   14b9a:    007f6563            bltu    t5,t2,0x14ba4
   14b9e:    fc97879b            addiw   a5,a5,-55
   14ba2:    b775                j       0x14b4e
   14ba4:    f9f8889b            addiw   a7,a7,-97
   14ba8:    011f6563            bltu    t5,a7,0x14bb2
   14bac:    fa97879b            addiw   a5,a5,-87
   14bb0:    bf79                j       0x14b4e
   14bb2:    57fd                li      a5,-1
   14bb4:    00f81f63            bne     a6,a5,0x14bd2
   14bb8:    02200793            li      a5,34
   14bbc:    00f9a023            sw      a5,0(s3)
   14bc0:    853a                mv      a0,a4
   14bc2:    ee19                bnez    a2,0x14be0
   14bc4:    60a6                ld      ra,72(sp)
   14bc6:    6406                ld      s0,64(sp)
   14bc8:    74e2                ld      s1,56(sp)
   14bca:    7942                ld      s2,48(sp)
   14bcc:    79a2                ld      s3,40(sp)
   14bce:    6161                addi    sp,sp,80
   14bd0:    8082                ret

   14bd2:    00030463            beqz    t1,0x14bda
   14bd6:    40a00533            neg     a0,a0
   14bda:    d66d                beqz    a2,0x14bc4
   14bdc:    00080463            beqz    a6,0x14be4
   14be0:    fff48593            addi    a1,s1,-1
   14be4:    e20c                sd      a1,0(a2)
   14be6:    bff9                j       0x14bc4
   14be8:    03000793            li      a5,48
   14bec:    fa9d                bnez    a3,0x14b22
   14bee:    46a1                li      a3,8
   14bf0:    bf0d                j       0x14b22
   14bf2:    03000713            li      a4,48
   14bf6:    f0e78ae3            beq     a5,a4,0x14b0a
   14bfa:    46a9                li      a3,10
   14bfc:    b71d                j       0x14b22
   14bfe:    8781b783            ld      a5,-1928(gp)
   14c02:    67b8                ld      a4,72(a5)
   14c04:    e709                bnez    a4,0x14c0e
   14c06:    0001f737            lui     a4,0x1f
   14c0a:    36870713            addi    a4,a4,872 # 0x1f368
   14c0e:    ea3ff06f            j       0x14ab0
   14c12:    8736                mv      a4,a3
   14c14:    86b2                mv      a3,a2
   14c16:    862e                mv      a2,a1
   14c18:    85aa                mv      a1,a0
   14c1a:    8781b503            ld      a0,-1928(gp)
   14c1e:    e93ff06f            j       0x14ab0
   14c22:    8781b783            ld      a5,-1928(gp)
   14c26:    86b2                mv      a3,a2
   14c28:    67b8                ld      a4,72(a5)
   14c2a:    e709                bnez    a4,0x14c34
   14c2c:    0001f737            lui     a4,0x1f
   14c30:    36870713            addi    a4,a4,872 # 0x1f368
   14c34:    862e                mv      a2,a1
   14c36:    85aa                mv      a1,a0
   14c38:    853e                mv      a0,a5
   14c3a:    e77ff06f            j       0x14ab0
   14c3e:    715d                addi    sp,sp,-80
   14c40:    f84a                sd      s2,48(sp)
   14c42:    f44e                sd      s3,40(sp)
   14c44:    e486                sd      ra,72(sp)
   14c46:    e0a2                sd      s0,64(sp)
   14c48:    fc26                sd      s1,56(sp)
   14c4a:    89aa                mv      s3,a0
   14c4c:    892e                mv      s2,a1
   14c4e:    00190493            addi    s1,s2,1
   14c52:    fff4c403            lbu     s0,-1(s1)
   14c56:    853a                mv      a0,a4
   14c58:    ec36                sd      a3,24(sp)
   14c5a:    e832                sd      a2,16(sp)
   14c5c:    e42e                sd      a1,8(sp)
   14c5e:    e03a                sd      a4,0(sp)
   14c60:    8c6fe0ef            jal     ra,0x12d26
   14c64:    9522                add     a0,a0,s0
   14c66:    00154783            lbu     a5,1(a0)
   14c6a:    6702                ld      a4,0(sp)
   14c6c:    65a2                ld      a1,8(sp)
   14c6e:    8ba1                andi    a5,a5,8
   14c70:    6642                ld      a2,16(sp)
   14c72:    66e2                ld      a3,24(sp)
   14c74:    e7d9                bnez    a5,0x14d02
   14c76:    02d00793            li      a5,45
   14c7a:    08f41663            bne     s0,a5,0x14d06
   14c7e:    0004c783            lbu     a5,0(s1)
   14c82:    4305                li      t1,1
   14c84:    00290493            addi    s1,s2,2
   14c88:    cee5                beqz    a3,0x14d80
   14c8a:    4741                li      a4,16
   14c8c:    02e69263            bne     a3,a4,0x14cb0
   14c90:    03000713            li      a4,48
   14c94:    00e79e63            bne     a5,a4,0x14cb0
   14c98:    0004c783            lbu     a5,0(s1)
   14c9c:    05800713            li      a4,88
   14ca0:    0df7f793            andi    a5,a5,223
   14ca4:    0ce79963            bne     a5,a4,0x14d76
   14ca8:    0014c783            lbu     a5,1(s1)
   14cac:    46c1                li      a3,16
   14cae:    0489                addi    s1,s1,2
   14cb0:    577d                li      a4,-1
   14cb2:    06031763            bnez    t1,0x14d20
   14cb6:    8305                srli    a4,a4,0x1
   14cb8:    02d77e33            remu    t3,a4,a3
   14cbc:    4801                li      a6,0
   14cbe:    4501                li      a0,0
   14cc0:    4fa5                li      t6,9
   14cc2:    4f65                li      t5,25
   14cc4:    52fd                li      t0,-1
   14cc6:    02d75eb3            divu    t4,a4,a3
   14cca:    2e01                sext.w  t3,t3
   14ccc:    0007889b            sext.w  a7,a5
   14cd0:    fd08839b            addiw   t2,a7,-48
   14cd4:    047fe863            bltu    t6,t2,0x14d24
   14cd8:    fd07879b            addiw   a5,a5,-48
   14cdc:    06d7d263            bge     a5,a3,0x14d40
   14ce0:    00580d63            beq     a6,t0,0x14cfa
   14ce4:    587d                li      a6,-1
   14ce6:    00aeea63            bltu    t4,a0,0x14cfa
   14cea:    00ae9463            bne     t4,a0,0x14cf2
   14cee:    00fe4663            blt     t3,a5,0x14cfa
   14cf2:    4805                li      a6,1
   14cf4:    02a68533            mul     a0,a3,a0
   14cf8:    953e                add     a0,a0,a5
   14cfa:    0485                addi    s1,s1,1
   14cfc:    fff4c783            lbu     a5,-1(s1)
   14d00:    b7f1                j       0x14ccc
   14d02:    8926                mv      s2,s1
   14d04:    b7a9                j       0x14c4e
   14d06:    02b00793            li      a5,43
   14d0a:    00f40663            beq     s0,a5,0x14d16
   14d0e:    0004079b            sext.w  a5,s0
   14d12:    4301                li      t1,0
   14d14:    bf95                j       0x14c88
   14d16:    0004c783            lbu     a5,0(s1)
   14d1a:    00290493            addi    s1,s2,2
   14d1e:    bfd5                j       0x14d12
   14d20:    177e                slli    a4,a4,0x3f
   14d22:    bf59                j       0x14cb8
   14d24:    fbf8839b            addiw   t2,a7,-65
   14d28:    007f6563            bltu    t5,t2,0x14d32
   14d2c:    fc97879b            addiw   a5,a5,-55
   14d30:    b775                j       0x14cdc
   14d32:    f9f8889b            addiw   a7,a7,-97
   14d36:    011f6563            bltu    t5,a7,0x14d40
   14d3a:    fa97879b            addiw   a5,a5,-87
   14d3e:    bf79                j       0x14cdc
   14d40:    57fd                li      a5,-1
   14d42:    00f81f63            bne     a6,a5,0x14d60
   14d46:    02200793            li      a5,34
   14d4a:    00f9a023            sw      a5,0(s3)
   14d4e:    853a                mv      a0,a4
   14d50:    ee19                bnez    a2,0x14d6e
   14d52:    60a6                ld      ra,72(sp)
   14d54:    6406                ld      s0,64(sp)
   14d56:    74e2                ld      s1,56(sp)
   14d58:    7942                ld      s2,48(sp)
   14d5a:    79a2                ld      s3,40(sp)
   14d5c:    6161                addi    sp,sp,80
   14d5e:    8082                ret

   14d60:    00030463            beqz    t1,0x14d68
   14d64:    40a00533            neg     a0,a0
   14d68:    d66d                beqz    a2,0x14d52
   14d6a:    00080463            beqz    a6,0x14d72
   14d6e:    fff48593            addi    a1,s1,-1
   14d72:    e20c                sd      a1,0(a2)
   14d74:    bff9                j       0x14d52
   14d76:    03000793            li      a5,48
   14d7a:    fa9d                bnez    a3,0x14cb0
   14d7c:    46a1                li      a3,8
   14d7e:    bf0d                j       0x14cb0
   14d80:    03000713            li      a4,48
   14d84:    f0e78ae3            beq     a5,a4,0x14c98
   14d88:    46a9                li      a3,10
   14d8a:    b71d                j       0x14cb0
   14d8c:    8781b783            ld      a5,-1928(gp)
   14d90:    67b8                ld      a4,72(a5)
   14d92:    e709                bnez    a4,0x14d9c
   14d94:    0001f737            lui     a4,0x1f
   14d98:    36870713            addi    a4,a4,872 # 0x1f368
   14d9c:    ea3ff06f            j       0x14c3e
   14da0:    8736                mv      a4,a3
   14da2:    86b2                mv      a3,a2
   14da4:    862e                mv      a2,a1
   14da6:    85aa                mv      a1,a0
   14da8:    8781b503            ld      a0,-1928(gp)
   14dac:    e93ff06f            j       0x14c3e
   14db0:    8781b783            ld      a5,-1928(gp)
   14db4:    86b2                mv      a3,a2
   14db6:    67b8                ld      a4,72(a5)
   14db8:    e709                bnez    a4,0x14dc2
   14dba:    0001f737            lui     a4,0x1f
   14dbe:    36870713            addi    a4,a4,872 # 0x1f368
   14dc2:    862e                mv      a2,a1
   14dc4:    85aa                mv      a1,a0
   14dc6:    853e                mv      a0,a5
   14dc8:    e77ff06f            j       0x14c3e
   14dcc:    0076f793            andi    a5,a3,7
   14dd0:    4719                li      a4,6
   14dd2:    02f76363            bltu    a4,a5,0x14df8
   14dd6:    6775                lui     a4,0x1d
   14dd8:    078a                slli    a5,a5,0x2
   14dda:    14c70713            addi    a4,a4,332 # 0x1d14c
   14dde:    97ba                add     a5,a5,a4
   14de0:    439c                lw      a5,0(a5)
   14de2:    8782                jr      a5
   14de4:    00051423            sh      zero,8(a0)
   14de8:    00051323            sh      zero,6(a0)
   14dec:    00051223            sh      zero,4(a0)
   14df0:    00051123            sh      zero,2(a0)
   14df4:    00051023            sh      zero,0(a0)
   14df8:    8aa1                andi    a3,a3,8
   14dfa:    c699                beqz    a3,0x14e08
   14dfc:    00855783            lhu     a5,8(a0)
   14e00:    7761                lui     a4,0xffff8
   14e02:    8fd9                or      a5,a5,a4
   14e04:    00f51423            sh      a5,8(a0)
   14e08:    8082                ret

   14e0a:    00051423            sh      zero,8(a0)
   14e0e:    419c                lw      a5,0(a1)
   14e10:    00f51023            sh      a5,0(a0)
   14e14:    0107d79b            srliw   a5,a5,0x10
   14e18:    00f51123            sh      a5,2(a0)
   14e1c:    41dc                lw      a5,4(a1)
   14e1e:    00f51223            sh      a5,4(a0)
   14e22:    0107d79b            srliw   a5,a5,0x10
   14e26:    00f51323            sh      a5,6(a0)
   14e2a:    b7f9                j       0x14df8
   14e2c:    6791                lui     a5,0x4
   14e2e:    03e7879b            addiw   a5,a5,62
   14e32:    9fb1                addw    a5,a5,a2
   14e34:    00f51423            sh      a5,8(a0)
   14e38:    bfd9                j       0x14e0e
   14e3a:    77e1                lui     a5,0xffff8
   14e3c:    fff7c713            not     a4,a5
   14e40:    00e51423            sh      a4,8(a0)
   14e44:    00f51323            sh      a5,6(a0)
   14e48:    00051023            sh      zero,0(a0)
   14e4c:    00051123            sh      zero,2(a0)
   14e50:    00051223            sh      zero,4(a0)
   14e54:    b755                j       0x14df8
   14e56:    77f1                lui     a5,0xffffc
   14e58:    00f51323            sh      a5,6(a0)
   14e5c:    57fd                li      a5,-1
   14e5e:    00051023            sh      zero,0(a0)
   14e62:    00051123            sh      zero,2(a0)
   14e66:    00051223            sh      zero,4(a0)
   14e6a:    00f51423            sh      a5,8(a0)
   14e6e:    b769                j       0x14df8
   14e70:    7159                addi    sp,sp,-112
   14e72:    f0a2                sd      s0,96(sp)
   14e74:    eca6                sd      s1,88(sp)
   14e76:    e8ca                sd      s2,80(sp)
   14e78:    e4ce                sd      s3,72(sp)
   14e7a:    84ba                mv      s1,a4
   14e7c:    f486                sd      ra,104(sp)
   14e7e:    4705                li      a4,1
   14e80:    e436                sd      a3,8(sp)
   14e82:    892e                mv      s2,a1
   14e84:    842a                mv      s0,a0
   14e86:    89b2                mv      s3,a2
   14e88:    000205b7            lui     a1,0x20
   14e8c:    04e68463            beq     a3,a4,0x14ed4
   14e90:    4651                li      a2,20
   14e92:    d2058593            addi    a1,a1,-736 # 0x1fd20
   14e96:    1028                addi    a0,sp,40
   14e98:    e03e                sd      a5,0(sp)
   14e9a:    c80fe0ef            jal     ra,0x1331a
   14e9e:    66a2                ld      a3,8(sp)
   14ea0:    6782                ld      a5,0(sp)
   14ea2:    da36                sw      a3,52(sp)
   14ea4:    1034                addi    a3,sp,40
   14ea6:    883e                mv      a6,a5
   14ea8:    0878                addi    a4,sp,28
   14eaa:    101c                addi    a5,sp,32
   14eac:    864e                mv      a2,s3
   14eae:    85ca                mv      a1,s2
   14eb0:    8522                mv      a0,s0
   14eb2:    73f040ef            jal     ra,0x19df0
   14eb6:    4672                lw      a2,28(sp)
   14eb8:    842a                mv      s0,a0
   14eba:    86aa                mv      a3,a0
   14ebc:    100c                addi    a1,sp,32
   14ebe:    8526                mv      a0,s1
   14ec0:    f0dff0ef            jal     ra,0x14dcc
   14ec4:    8522                mv      a0,s0
   14ec6:    70a6                ld      ra,104(sp)
   14ec8:    7406                ld      s0,96(sp)
   14eca:    64e6                ld      s1,88(sp)
   14ecc:    6946                ld      s2,80(sp)
   14ece:    69a6                ld      s3,72(sp)
   14ed0:    6165                addi    sp,sp,112
   14ed2:    8082                ret

   14ed4:    d2058693            addi    a3,a1,-736
   14ed8:    b7f9                j       0x14ea6
   14eda:    715d                addi    sp,sp,-80
   14edc:    f84a                sd      s2,48(sp)
   14ede:    f44e                sd      s3,40(sp)
   14ee0:    e486                sd      ra,72(sp)
   14ee2:    e0a2                sd      s0,64(sp)
   14ee4:    fc26                sd      s1,56(sp)
   14ee6:    89aa                mv      s3,a0
   14ee8:    892e                mv      s2,a1
   14eea:    00190493            addi    s1,s2,1
   14eee:    fff4c403            lbu     s0,-1(s1)
   14ef2:    853a                mv      a0,a4
   14ef4:    ec36                sd      a3,24(sp)
   14ef6:    e832                sd      a2,16(sp)
   14ef8:    e42e                sd      a1,8(sp)
   14efa:    e03a                sd      a4,0(sp)
   14efc:    e2bfd0ef            jal     ra,0x12d26
   14f00:    9522                add     a0,a0,s0
   14f02:    00154783            lbu     a5,1(a0)
   14f06:    6702                ld      a4,0(sp)
   14f08:    65a2                ld      a1,8(sp)
   14f0a:    8ba1                andi    a5,a5,8
   14f0c:    6642                ld      a2,16(sp)
   14f0e:    66e2                ld      a3,24(sp)
   14f10:    e7c1                bnez    a5,0x14f98
   14f12:    02d00793            li      a5,45
   14f16:    08f41363            bne     s0,a5,0x14f9c
   14f1a:    0004c783            lbu     a5,0(s1)
   14f1e:    4305                li      t1,1
   14f20:    00290493            addi    s1,s2,2
   14f24:    c6fd                beqz    a3,0x15012
   14f26:    4741                li      a4,16
   14f28:    02e69263            bne     a3,a4,0x14f4c
   14f2c:    03000713            li      a4,48
   14f30:    00e79e63            bne     a5,a4,0x14f4c
   14f34:    0004c783            lbu     a5,0(s1)
   14f38:    05800713            li      a4,88
   14f3c:    0df7f793            andi    a5,a5,223
   14f40:    0ce79463            bne     a5,a4,0x15008
   14f44:    0014c783            lbu     a5,1(s1)
   14f48:    46c1                li      a3,16
   14f4a:    0489                addi    s1,s1,2
   14f4c:    577d                li      a4,-1
   14f4e:    02d75e33            divu    t3,a4,a3
   14f52:    4501                li      a0,0
   14f54:    4f25                li      t5,9
   14f56:    4ee5                li      t4,25
   14f58:    02d77733            remu    a4,a4,a3
   14f5c:    0007081b            sext.w  a6,a4
   14f60:    4701                li      a4,0
   14f62:    0007889b            sext.w  a7,a5
   14f66:    fd088f9b            addiw   t6,a7,-48
   14f6a:    05ff6663            bltu    t5,t6,0x14fb6
   14f6e:    fd07879b            addiw   a5,a5,-48
   14f72:    06d7d263            bge     a5,a3,0x14fd6
   14f76:    04074e63            bltz    a4,0x14fd2
   14f7a:    577d                li      a4,-1
   14f7c:    00ae6a63            bltu    t3,a0,0x14f90
   14f80:    00ae1463            bne     t3,a0,0x14f88
   14f84:    00f84663            blt     a6,a5,0x14f90
   14f88:    02a68533            mul     a0,a3,a0
   14f8c:    4705                li      a4,1
   14f8e:    953e                add     a0,a0,a5
   14f90:    0485                addi    s1,s1,1
   14f92:    fff4c783            lbu     a5,-1(s1)
   14f96:    b7f1                j       0x14f62
   14f98:    8926                mv      s2,s1
   14f9a:    bf81                j       0x14eea
   14f9c:    02b00793            li      a5,43
   14fa0:    00f40663            beq     s0,a5,0x14fac
   14fa4:    0004079b            sext.w  a5,s0
   14fa8:    4301                li      t1,0
   14faa:    bfad                j       0x14f24
   14fac:    0004c783            lbu     a5,0(s1)
   14fb0:    00290493            addi    s1,s2,2
   14fb4:    bfd5                j       0x14fa8
   14fb6:    fbf88f9b            addiw   t6,a7,-65
   14fba:    01fee563            bltu    t4,t6,0x14fc4
   14fbe:    fc97879b            addiw   a5,a5,-55
   14fc2:    bf45                j       0x14f72
   14fc4:    f9f8889b            addiw   a7,a7,-97
   14fc8:    011ee763            bltu    t4,a7,0x14fd6
   14fcc:    fa97879b            addiw   a5,a5,-87
   14fd0:    b74d                j       0x14f72
   14fd2:    577d                li      a4,-1
   14fd4:    bf75                j       0x14f90
   14fd6:    00075f63            bgez    a4,0x14ff4
   14fda:    02200793            li      a5,34
   14fde:    00f9a023            sw      a5,0(s3)
   14fe2:    557d                li      a0,-1
   14fe4:    ee11                bnez    a2,0x15000
   14fe6:    60a6                ld      ra,72(sp)
   14fe8:    6406                ld      s0,64(sp)
   14fea:    74e2                ld      s1,56(sp)
   14fec:    7942                ld      s2,48(sp)
   14fee:    79a2                ld      s3,40(sp)
   14ff0:    6161                addi    sp,sp,80
   14ff2:    8082                ret

   14ff4:    00030463            beqz    t1,0x14ffc
   14ff8:    40a00533            neg     a0,a0
   14ffc:    d66d                beqz    a2,0x14fe6
   14ffe:    c319                beqz    a4,0x15004
   15000:    fff48593            addi    a1,s1,-1
   15004:    e20c                sd      a1,0(a2)
   15006:    b7c5                j       0x14fe6
   15008:    03000793            li      a5,48
   1500c:    f2a1                bnez    a3,0x14f4c
   1500e:    46a1                li      a3,8
   15010:    bf35                j       0x14f4c
   15012:    03000713            li      a4,48
   15016:    f0e78fe3            beq     a5,a4,0x14f34
   1501a:    46a9                li      a3,10
   1501c:    bf05                j       0x14f4c
   1501e:    8781b783            ld      a5,-1928(gp)
   15022:    67b8                ld      a4,72(a5)
   15024:    e709                bnez    a4,0x1502e
   15026:    0001f737            lui     a4,0x1f
   1502a:    36870713            addi    a4,a4,872 # 0x1f368
   1502e:    eadff06f            j       0x14eda
   15032:    8736                mv      a4,a3
   15034:    86b2                mv      a3,a2
   15036:    862e                mv      a2,a1
   15038:    85aa                mv      a1,a0
   1503a:    8781b503            ld      a0,-1928(gp)
   1503e:    e9dff06f            j       0x14eda
   15042:    8781b783            ld      a5,-1928(gp)
   15046:    86b2                mv      a3,a2
   15048:    67b8                ld      a4,72(a5)
   1504a:    e709                bnez    a4,0x15054
   1504c:    0001f737            lui     a4,0x1f
   15050:    36870713            addi    a4,a4,872 # 0x1f368
   15054:    862e                mv      a2,a1
   15056:    85aa                mv      a1,a0
   15058:    853e                mv      a0,a5
   1505a:    e81ff06f            j       0x14eda
   1505e:    715d                addi    sp,sp,-80
   15060:    f84a                sd      s2,48(sp)
   15062:    f44e                sd      s3,40(sp)
   15064:    e486                sd      ra,72(sp)
   15066:    e0a2                sd      s0,64(sp)
   15068:    fc26                sd      s1,56(sp)
   1506a:    89aa                mv      s3,a0
   1506c:    892e                mv      s2,a1
   1506e:    00190493            addi    s1,s2,1
   15072:    fff4c403            lbu     s0,-1(s1)
   15076:    853a                mv      a0,a4
   15078:    ec36                sd      a3,24(sp)
   1507a:    e832                sd      a2,16(sp)
   1507c:    e42e                sd      a1,8(sp)
   1507e:    e03a                sd      a4,0(sp)
   15080:    ca7fd0ef            jal     ra,0x12d26
   15084:    9522                add     a0,a0,s0
   15086:    00154783            lbu     a5,1(a0)
   1508a:    6702                ld      a4,0(sp)
   1508c:    65a2                ld      a1,8(sp)
   1508e:    8ba1                andi    a5,a5,8
   15090:    6642                ld      a2,16(sp)
   15092:    66e2                ld      a3,24(sp)
   15094:    e7c1                bnez    a5,0x1511c
   15096:    02d00793            li      a5,45
   1509a:    08f41363            bne     s0,a5,0x15120
   1509e:    0004c783            lbu     a5,0(s1)
   150a2:    4305                li      t1,1
   150a4:    00290493            addi    s1,s2,2
   150a8:    c6fd                beqz    a3,0x15196
   150aa:    4741                li      a4,16
   150ac:    02e69263            bne     a3,a4,0x150d0
   150b0:    03000713            li      a4,48
   150b4:    00e79e63            bne     a5,a4,0x150d0
   150b8:    0004c783            lbu     a5,0(s1)
   150bc:    05800713            li      a4,88
   150c0:    0df7f793            andi    a5,a5,223
   150c4:    0ce79463            bne     a5,a4,0x1518c
   150c8:    0014c783            lbu     a5,1(s1)
   150cc:    46c1                li      a3,16
   150ce:    0489                addi    s1,s1,2
   150d0:    577d                li      a4,-1
   150d2:    02d75e33            divu    t3,a4,a3
   150d6:    4501                li      a0,0
   150d8:    4f25                li      t5,9
   150da:    4ee5                li      t4,25
   150dc:    02d77733            remu    a4,a4,a3
   150e0:    0007081b            sext.w  a6,a4
   150e4:    4701                li      a4,0
   150e6:    0007889b            sext.w  a7,a5
   150ea:    fd088f9b            addiw   t6,a7,-48
   150ee:    05ff6663            bltu    t5,t6,0x1513a
   150f2:    fd07879b            addiw   a5,a5,-48
   150f6:    06d7d263            bge     a5,a3,0x1515a
   150fa:    04074e63            bltz    a4,0x15156
   150fe:    577d                li      a4,-1
   15100:    00ae6a63            bltu    t3,a0,0x15114
   15104:    00ae1463            bne     t3,a0,0x1510c
   15108:    00f84663            blt     a6,a5,0x15114
   1510c:    02a68533            mul     a0,a3,a0
   15110:    4705                li      a4,1
   15112:    953e                add     a0,a0,a5
   15114:    0485                addi    s1,s1,1
   15116:    fff4c783            lbu     a5,-1(s1)
   1511a:    b7f1                j       0x150e6
   1511c:    8926                mv      s2,s1
   1511e:    bf81                j       0x1506e
   15120:    02b00793            li      a5,43
   15124:    00f40663            beq     s0,a5,0x15130
   15128:    0004079b            sext.w  a5,s0
   1512c:    4301                li      t1,0
   1512e:    bfad                j       0x150a8
   15130:    0004c783            lbu     a5,0(s1)
   15134:    00290493            addi    s1,s2,2
   15138:    bfd5                j       0x1512c
   1513a:    fbf88f9b            addiw   t6,a7,-65
   1513e:    01fee563            bltu    t4,t6,0x15148
   15142:    fc97879b            addiw   a5,a5,-55
   15146:    bf45                j       0x150f6
   15148:    f9f8889b            addiw   a7,a7,-97
   1514c:    011ee763            bltu    t4,a7,0x1515a
   15150:    fa97879b            addiw   a5,a5,-87
   15154:    b74d                j       0x150f6
   15156:    577d                li      a4,-1
   15158:    bf75                j       0x15114
   1515a:    00075f63            bgez    a4,0x15178
   1515e:    02200793            li      a5,34
   15162:    00f9a023            sw      a5,0(s3)
   15166:    557d                li      a0,-1
   15168:    ee11                bnez    a2,0x15184
   1516a:    60a6                ld      ra,72(sp)
   1516c:    6406                ld      s0,64(sp)
   1516e:    74e2                ld      s1,56(sp)
   15170:    7942                ld      s2,48(sp)
   15172:    79a2                ld      s3,40(sp)
   15174:    6161                addi    sp,sp,80
   15176:    8082                ret

   15178:    00030463            beqz    t1,0x15180
   1517c:    40a00533            neg     a0,a0
   15180:    d66d                beqz    a2,0x1516a
   15182:    c319                beqz    a4,0x15188
   15184:    fff48593            addi    a1,s1,-1
   15188:    e20c                sd      a1,0(a2)
   1518a:    b7c5                j       0x1516a
   1518c:    03000793            li      a5,48
   15190:    f2a1                bnez    a3,0x150d0
   15192:    46a1                li      a3,8
   15194:    bf35                j       0x150d0
   15196:    03000713            li      a4,48
   1519a:    f0e78fe3            beq     a5,a4,0x150b8
   1519e:    46a9                li      a3,10
   151a0:    bf05                j       0x150d0
   151a2:    8781b783            ld      a5,-1928(gp)
   151a6:    67b8                ld      a4,72(a5)
   151a8:    e709                bnez    a4,0x151b2
   151aa:    0001f737            lui     a4,0x1f
   151ae:    36870713            addi    a4,a4,872 # 0x1f368
   151b2:    eadff06f            j       0x1505e
   151b6:    8736                mv      a4,a3
   151b8:    86b2                mv      a3,a2
   151ba:    862e                mv      a2,a1
   151bc:    85aa                mv      a1,a0
   151be:    8781b503            ld      a0,-1928(gp)
   151c2:    e9dff06f            j       0x1505e
   151c6:    8781b783            ld      a5,-1928(gp)
   151ca:    86b2                mv      a3,a2
   151cc:    67b8                ld      a4,72(a5)
   151ce:    e709                bnez    a4,0x151d8
   151d0:    0001f737            lui     a4,0x1f
   151d4:    36870713            addi    a4,a4,872 # 0x1f368
   151d8:    862e                mv      a2,a1
   151da:    85aa                mv      a1,a0
   151dc:    853e                mv      a0,a5
   151de:    e81ff06f            j       0x1505e
   151e2:    d9010113            addi    sp,sp,-624
   151e6:    26113423            sd      ra,616(sp)
   151ea:    24913c23            sd      s1,600(sp)
   151ee:    25213823            sd      s2,592(sp)
   151f2:    25313423            sd      s3,584(sp)
   151f6:    23713423            sd      s7,552(sp)
   151fa:    89ae                mv      s3,a1
   151fc:    84b2                mv      s1,a2
   151fe:    8bb6                mv      s7,a3
   15200:    26813023            sd      s0,608(sp)
   15204:    25413023            sd      s4,576(sp)
   15208:    23513c23            sd      s5,568(sp)
   1520c:    23613823            sd      s6,560(sp)
   15210:    23813023            sd      s8,544(sp)
   15214:    21913c23            sd      s9,536(sp)
   15218:    21a13823            sd      s10,528(sp)
   1521c:    21b13423            sd      s11,520(sp)
   15220:    892a                mv      s2,a0
   15222:    a75fd0ef            jal     ra,0x12c96
   15226:    611c                ld      a5,0(a0)
   15228:    853e                mv      a0,a5
   1522a:    e4be                sd      a5,72(sp)
   1522c:    b00fb0ef            jal     ra,0x1052c
   15230:    0109d783            lhu     a5,16(s3)
   15234:    ec2a                sd      a0,24(sp)
   15236:    f982                sd      zero,240(sp)
   15238:    fd82                sd      zero,248(sp)
   1523a:    0807f793            andi    a5,a5,128
   1523e:    cb85                beqz    a5,0x1526e
   15240:    0189b783            ld      a5,24(s3)
   15244:    e78d                bnez    a5,0x1526e
   15246:    04000593            li      a1,64
   1524a:    854a                mv      a0,s2
   1524c:    b13fd0ef            jal     ra,0x12d5e
   15250:    00a9b023            sd      a0,0(s3)
   15254:    00a9bc23            sd      a0,24(s3)
   15258:    e519                bnez    a0,0x15266
   1525a:    47b1                li      a5,12
   1525c:    00f92023            sw      a5,0(s2)
   15260:    57fd                li      a5,-1
   15262:    f43e                sd      a5,40(sp)
   15264:    a375                j       0x15810
   15266:    04000793            li      a5,64
   1526a:    02f9a023            sw      a5,32(s3)
   1526e:    67f5                lui     a5,0x1d
   15270:    16878793            addi    a5,a5,360 # 0x1d168
   15274:    ed3e                sd      a5,152(sp)
   15276:    0001d7b7            lui     a5,0x1d
   1527a:    3087b783            ld      a5,776(a5) # 0x1d308
   1527e:    18010a93            addi    s5,sp,384
   15282:    e256                sd      s5,256(sp)
   15284:    f13e                sd      a5,160(sp)
   15286:    0001d7b7            lui     a5,0x1d
   1528a:    3187b783            ld      a5,792(a5) # 0x1d318
   1528e:    ea02                sd      zero,272(sp)
   15290:    10012423            sw      zero,264(sp)
   15294:    f53e                sd      a5,168(sp)
   15296:    0001d7b7            lui     a5,0x1d
   1529a:    3287b783            ld      a5,808(a5) # 0x1d328
   1529e:    4a01                li      s4,0
   152a0:    8cd6                mv      s9,s5
   152a2:    f082                sd      zero,96(sp)
   152a4:    ec82                sd      zero,88(sp)
   152a6:    e002                sd      zero,0(sp)
   152a8:    e082                sd      zero,64(sp)
   152aa:    e882                sd      zero,80(sp)
   152ac:    f402                sd      zero,40(sp)
   152ae:    e93e                sd      a5,144(sp)
   152b0:    8426                mv      s0,s1
   152b2:    02500713            li      a4,37
   152b6:    00044783            lbu     a5,0(s0)
   152ba:    c399                beqz    a5,0x152c0
   152bc:    08e79663            bne     a5,a4,0x15348
   152c0:    40940b3b            subw    s6,s0,s1
   152c4:    020b0f63            beqz    s6,0x15302
   152c8:    67d2                ld      a5,272(sp)
   152ca:    009cb023            sd      s1,0(s9)
   152ce:    016cb423            sd      s6,8(s9)
   152d2:    97da                add     a5,a5,s6
   152d4:    ea3e                sd      a5,272(sp)
   152d6:    10812783            lw      a5,264(sp)
   152da:    0cc1                addi    s9,s9,16
   152dc:    0017871b            addiw   a4,a5,1
   152e0:    10e12423            sw      a4,264(sp)
   152e4:    479d                li      a5,7
   152e6:    00e7da63            bge     a5,a4,0x152fa
   152ea:    0210                addi    a2,sp,256
   152ec:    85ce                mv      a1,s3
   152ee:    854a                mv      a0,s2
   152f0:    373050ef            jal     ra,0x1ae62
   152f4:    50051863            bnez    a0,0x15804
   152f8:    8cd6                mv      s9,s5
   152fa:    77a2                ld      a5,40(sp)
   152fc:    016787bb            addw    a5,a5,s6
   15300:    f43e                sd      a5,40(sp)
   15302:    00044783            lbu     a5,0(s0)
   15306:    e399                bnez    a5,0x1530c
   15308:    41c0106f            j       0x16724
   1530c:    00140793            addi    a5,s0,1
   15310:    0c0107a3            sb      zero,207(sp)
   15314:    5dfd                li      s11,-1
   15316:    f002                sd      zero,32(sp)
   15318:    4401                li      s0,0
   1531a:    05a00d13            li      s10,90
   1531e:    4c29                li      s8,10
   15320:    0007cb03            lbu     s6,0(a5)
   15324:    00178713            addi    a4,a5,1
   15328:    e83a                sd      a4,16(sp)
   1532a:    46a5                li      a3,9
   1532c:    02a00613            li      a2,42
   15330:    fe0b079b            addiw   a5,s6,-32
   15334:    0007871b            sext.w  a4,a5
   15338:    3ced6ae3            bltu    s10,a4,0x15f0c
   1533c:    676a                ld      a4,152(sp)
   1533e:    1782                slli    a5,a5,0x20
   15340:    83f9                srli    a5,a5,0x1e
   15342:    97ba                add     a5,a5,a4
   15344:    439c                lw      a5,0(a5)
   15346:    8782                jr      a5
   15348:    0405                addi    s0,s0,1
   1534a:    b7b5                j       0x152b6
   1534c:    854a                mv      a0,s2
   1534e:    949fd0ef            jal     ra,0x12c96
   15352:    651c                ld      a5,8(a0)
   15354:    853e                mv      a0,a5
   15356:    e8be                sd      a5,80(sp)
   15358:    9d4fb0ef            jal     ra,0x1052c
   1535c:    e0aa                sd      a0,64(sp)
   1535e:    854a                mv      a0,s2
   15360:    937fd0ef            jal     ra,0x12c96
   15364:    691c                ld      a5,16(a0)
   15366:    e03e                sd      a5,0(sp)
   15368:    6786                ld      a5,64(sp)
   1536a:    c38d                beqz    a5,0x1538c
   1536c:    6782                ld      a5,0(sp)
   1536e:    cf99                beqz    a5,0x1538c
   15370:    0007c783            lbu     a5,0(a5)
   15374:    cf81                beqz    a5,0x1538c
   15376:    40046413            ori     s0,s0,1024
   1537a:    2401                sext.w  s0,s0
   1537c:    a801                j       0x1538c
   1537e:    0cf14783            lbu     a5,207(sp)
   15382:    e789                bnez    a5,0x1538c
   15384:    02000793            li      a5,32
   15388:    0cf107a3            sb      a5,207(sp)
   1538c:    67c2                ld      a5,16(sp)
   1538e:    bf49                j       0x15320
   15390:    00146413            ori     s0,s0,1
   15394:    b7dd                j       0x1537a
   15396:    000ba783            lw      a5,0(s7)
   1539a:    0ba1                addi    s7,s7,8
   1539c:    f03e                sd      a5,32(sp)
   1539e:    fe07d7e3            bgez    a5,0x1538c
   153a2:    40f007bb            negw    a5,a5
   153a6:    f03e                sd      a5,32(sp)
   153a8:    00446413            ori     s0,s0,4
   153ac:    b7f9                j       0x1537a
   153ae:    02b00793            li      a5,43
   153b2:    bfd9                j       0x15388
   153b4:    6742                ld      a4,16(sp)
   153b6:    67c2                ld      a5,16(sp)
   153b8:    00074b03            lbu     s6,0(a4)
   153bc:    0785                addi    a5,a5,1
   153be:    02cb1e63            bne     s6,a2,0x153fa
   153c2:    000bae03            lw      t3,0(s7)
   153c6:    008b8713            addi    a4,s7,8
   153ca:    020e1693            slli    a3,t3,0x20
   153ce:    0006d363            bgez    a3,0x153d4
   153d2:    5e7d                li      t3,-1
   153d4:    000e0d9b            sext.w  s11,t3
   153d8:    8bba                mv      s7,a4
   153da:    e83e                sd      a5,16(sp)
   153dc:    bf45                j       0x1538c
   153de:    03bc0e3b            mulw    t3,s8,s11
   153e2:    0785                addi    a5,a5,1
   153e4:    fff7cb03            lbu     s6,-1(a5)
   153e8:    00ee0dbb            addw    s11,t3,a4
   153ec:    fd0b059b            addiw   a1,s6,-48
   153f0:    872e                mv      a4,a1
   153f2:    feb6f6e3            bgeu    a3,a1,0x153de
   153f6:    e83e                sd      a5,16(sp)
   153f8:    bf25                j       0x15330
   153fa:    4d81                li      s11,0
   153fc:    bfc5                j       0x153ec
   153fe:    08046413            ori     s0,s0,128
   15402:    bfa5                j       0x1537a
   15404:    67c2                ld      a5,16(sp)
   15406:    f002                sd      zero,32(sp)
   15408:    7702                ld      a4,32(sp)
   1540a:    fd0b0b1b            addiw   s6,s6,-48
   1540e:    0785                addi    a5,a5,1
   15410:    02ec073b            mulw    a4,s8,a4
   15414:    00eb073b            addw    a4,s6,a4
   15418:    fff7cb03            lbu     s6,-1(a5)
   1541c:    f03a                sd      a4,32(sp)
   1541e:    fd0b071b            addiw   a4,s6,-48
   15422:    fee6f3e3            bgeu    a3,a4,0x15408
   15426:    bfc1                j       0x153f6
   15428:    00846413            ori     s0,s0,8
   1542c:    b7b9                j       0x1537a
   1542e:    67c2                ld      a5,16(sp)
   15430:    0007c703            lbu     a4,0(a5)
   15434:    06800793            li      a5,104
   15438:    00f71863            bne     a4,a5,0x15448
   1543c:    67c2                ld      a5,16(sp)
   1543e:    20046413            ori     s0,s0,512
   15442:    0785                addi    a5,a5,1
   15444:    e83e                sd      a5,16(sp)
   15446:    bf15                j       0x1537a
   15448:    04046413            ori     s0,s0,64
   1544c:    b73d                j       0x1537a
   1544e:    67c2                ld      a5,16(sp)
   15450:    0007c703            lbu     a4,0(a5)
   15454:    06c00793            li      a5,108
   15458:    00f71863            bne     a4,a5,0x15468
   1545c:    67c2                ld      a5,16(sp)
   1545e:    0785                addi    a5,a5,1
   15460:    e83e                sd      a5,16(sp)
   15462:    02046413            ori     s0,s0,32
   15466:    bf11                j       0x1537a
   15468:    01046413            ori     s0,s0,16
   1546c:    b739                j       0x1537a
   1546e:    008b8793            addi    a5,s7,8
   15472:    f83e                sd      a5,48(sp)
   15474:    000ba783            lw      a5,0(s7)
   15478:    0c0107a3            sb      zero,207(sp)
   1547c:    10f10c23            sb      a5,280(sp)
   15480:    4b81                li      s7,0
   15482:    4d85                li      s11,1
   15484:    4701                li      a4,0
   15486:    e402                sd      zero,8(sp)
   15488:    4c01                li      s8,0
   1548a:    4d01                li      s10,0
   1548c:    0a24                addi    s1,sp,280
   1548e:    86ba                mv      a3,a4
   15490:    01b75363            bge     a4,s11,0x15496
   15494:    86ee                mv      a3,s11
   15496:    0cf14603            lbu     a2,207(sp)
   1549a:    0006879b            sext.w  a5,a3
   1549e:    fc3e                sd      a5,56(sp)
   154a0:    c601                beqz    a2,0x154a8
   154a2:    0016879b            addiw   a5,a3,1
   154a6:    fc3e                sd      a5,56(sp)
   154a8:    00247693            andi    a3,s0,2
   154ac:    0006879b            sext.w  a5,a3
   154b0:    f4be                sd      a5,104(sp)
   154b2:    c781                beqz    a5,0x154ba
   154b4:    77e2                ld      a5,56(sp)
   154b6:    2789                addiw   a5,a5,2
   154b8:    fc3e                sd      a5,56(sp)
   154ba:    08447793            andi    a5,s0,132
   154be:    f8be                sd      a5,112(sp)
   154c0:    efa9                bnez    a5,0x1551a
   154c2:    7782                ld      a5,32(sp)
   154c4:    76e2                ld      a3,56(sp)
   154c6:    40d786bb            subw    a3,a5,a3
   154ca:    04d05863            blez    a3,0x1551a
   154ce:    6875                lui     a6,0x1d
   154d0:    48c1                li      a7,16
   154d2:    2d880813            addi    a6,a6,728 # 0x1d2d8
   154d6:    4e9d                li      t4,7
   154d8:    10812583            lw      a1,264(sp)
   154dc:    010cb023            sd      a6,0(s9)
   154e0:    6652                ld      a2,272(sp)
   154e2:    0015851b            addiw   a0,a1,1
   154e6:    85aa                mv      a1,a0
   154e8:    010c8f13            addi    t5,s9,16
   154ec:    22d8c9e3            blt     a7,a3,0x15f1e
   154f0:    00dcb423            sd      a3,8(s9)
   154f4:    96b2                add     a3,a3,a2
   154f6:    ea36                sd      a3,272(sp)
   154f8:    10a12423            sw      a0,264(sp)
   154fc:    469d                li      a3,7
   154fe:    8cfa                mv      s9,t5
   15500:    00a6dd63            bge     a3,a0,0x1551a
   15504:    0210                addi    a2,sp,256
   15506:    85ce                mv      a1,s3
   15508:    854a                mv      a0,s2
   1550a:    fcba                sd      a4,120(sp)
   1550c:    157050ef            jal     ra,0x1ae62
   15510:    c119                beqz    a0,0x15516
   15512:    1d40106f            j       0x166e6
   15516:    7766                ld      a4,120(sp)
   15518:    8cd6                mv      s9,s5
   1551a:    0cf14683            lbu     a3,207(sp)
   1551e:    c2a1                beqz    a3,0x1555e
   15520:    0cf10693            addi    a3,sp,207
   15524:    00dcb023            sd      a3,0(s9)
   15528:    4685                li      a3,1
   1552a:    00dcb423            sd      a3,8(s9)
   1552e:    66d2                ld      a3,272(sp)
   15530:    0cc1                addi    s9,s9,16
   15532:    0685                addi    a3,a3,1
   15534:    ea36                sd      a3,272(sp)
   15536:    10812683            lw      a3,264(sp)
   1553a:    0016861b            addiw   a2,a3,1
   1553e:    10c12423            sw      a2,264(sp)
   15542:    469d                li      a3,7
   15544:    00c6dd63            bge     a3,a2,0x1555e
   15548:    0210                addi    a2,sp,256
   1554a:    85ce                mv      a1,s3
   1554c:    854a                mv      a0,s2
   1554e:    fcba                sd      a4,120(sp)
   15550:    113050ef            jal     ra,0x1ae62
   15554:    c119                beqz    a0,0x1555a
   15556:    1900106f            j       0x166e6
   1555a:    7766                ld      a4,120(sp)
   1555c:    8cd6                mv      s9,s5
   1555e:    77a6                ld      a5,104(sp)
   15560:    cf9d                beqz    a5,0x1559e
   15562:    0994                addi    a3,sp,208
   15564:    00dcb023            sd      a3,0(s9)
   15568:    4689                li      a3,2
   1556a:    00dcb423            sd      a3,8(s9)
   1556e:    66d2                ld      a3,272(sp)
   15570:    0cc1                addi    s9,s9,16
   15572:    0689                addi    a3,a3,2
   15574:    ea36                sd      a3,272(sp)
   15576:    10812683            lw      a3,264(sp)
   1557a:    0016861b            addiw   a2,a3,1
   1557e:    10c12423            sw      a2,264(sp)
   15582:    469d                li      a3,7
   15584:    00c6dd63            bge     a3,a2,0x1559e
   15588:    0210                addi    a2,sp,256
   1558a:    85ce                mv      a1,s3
   1558c:    854a                mv      a0,s2
   1558e:    f4ba                sd      a4,104(sp)
   15590:    0d3050ef            jal     ra,0x1ae62
   15594:    c119                beqz    a0,0x1559a
   15596:    1500106f            j       0x166e6
   1559a:    7726                ld      a4,104(sp)
   1559c:    8cd6                mv      s9,s5
   1559e:    77c6                ld      a5,112(sp)
   155a0:    08000693            li      a3,128
   155a4:    04d79e63            bne     a5,a3,0x15600
   155a8:    7782                ld      a5,32(sp)
   155aa:    76e2                ld      a3,56(sp)
   155ac:    40d786bb            subw    a3,a5,a3
   155b0:    04d05863            blez    a3,0x15600
   155b4:    6875                lui     a6,0x1d
   155b6:    48c1                li      a7,16
   155b8:    2e880813            addi    a6,a6,744 # 0x1d2e8
   155bc:    4e9d                li      t4,7
   155be:    10812583            lw      a1,264(sp)
   155c2:    010cb023            sd      a6,0(s9)
   155c6:    6652                ld      a2,272(sp)
   155c8:    0015851b            addiw   a0,a1,1
   155cc:    85aa                mv      a1,a0
   155ce:    010c8f13            addi    t5,s9,16
   155d2:    18d8c3e3            blt     a7,a3,0x15f58
   155d6:    00dcb423            sd      a3,8(s9)
   155da:    96b2                add     a3,a3,a2
   155dc:    ea36                sd      a3,272(sp)
   155de:    10a12423            sw      a0,264(sp)
   155e2:    469d                li      a3,7
   155e4:    8cfa                mv      s9,t5
   155e6:    00a6dd63            bge     a3,a0,0x15600
   155ea:    0210                addi    a2,sp,256
   155ec:    85ce                mv      a1,s3
   155ee:    854a                mv      a0,s2
   155f0:    f4ba                sd      a4,104(sp)
   155f2:    071050ef            jal     ra,0x1ae62
   155f6:    c119                beqz    a0,0x155fc
   155f8:    0ee0106f            j       0x166e6
   155fc:    7726                ld      a4,104(sp)
   155fe:    8cd6                mv      s9,s5
   15600:    41b7073b            subw    a4,a4,s11
   15604:    04e05663            blez    a4,0x15650
   15608:    6875                lui     a6,0x1d
   1560a:    48c1                li      a7,16
   1560c:    2e880813            addi    a6,a6,744 # 0x1d2e8
   15610:    4e9d                li      t4,7
   15612:    10812603            lw      a2,264(sp)
   15616:    010cb023            sd      a6,0(s9)
   1561a:    66d2                ld      a3,272(sp)
   1561c:    0016059b            addiw   a1,a2,1
   15620:    862e                mv      a2,a1
   15622:    010c8513            addi    a0,s9,16
   15626:    16e8c6e3            blt     a7,a4,0x15f92
   1562a:    00ecb423            sd      a4,8(s9)
   1562e:    9736                add     a4,a4,a3
   15630:    ea3a                sd      a4,272(sp)
   15632:    10b12423            sw      a1,264(sp)
   15636:    471d                li      a4,7
   15638:    8caa                mv      s9,a0
   1563a:    00b75b63            bge     a4,a1,0x15650
   1563e:    0210                addi    a2,sp,256
   15640:    85ce                mv      a1,s3
   15642:    854a                mv      a0,s2
   15644:    01f050ef            jal     ra,0x1ae62
   15648:    c119                beqz    a0,0x1564e
   1564a:    09c0106f            j       0x166e6
   1564e:    8cd6                mv      s9,s5
   15650:    10047693            andi    a3,s0,256
   15654:    6752                ld      a4,272(sp)
   15656:    160699e3            bnez    a3,0x15fc8
   1565a:    10812783            lw      a5,264(sp)
   1565e:    00ed8e33            add     t3,s11,a4
   15662:    009cb023            sd      s1,0(s9)
   15666:    0017871b            addiw   a4,a5,1
   1566a:    01bcb423            sd      s11,8(s9)
   1566e:    ea72                sd      t3,272(sp)
   15670:    10e12423            sw      a4,264(sp)
   15674:    479d                li      a5,7
   15676:    0cc1                addi    s9,s9,16
   15678:    22e7d4e3            bge     a5,a4,0x160a0
   1567c:    0210                addi    a2,sp,256
   1567e:    85ce                mv      a1,s3
   15680:    854a                mv      a0,s2
   15682:    7e0050ef            jal     ra,0x1ae62
   15686:    c119                beqz    a0,0x1568c
   15688:    05e0106f            j       0x166e6
   1568c:    8cd6                mv      s9,s5
   1568e:    2130006f            j       0x160a0
   15692:    01046413            ori     s0,s0,16
   15696:    2401                sext.w  s0,s0
   15698:    008b8793            addi    a5,s7,8
   1569c:    f83e                sd      a5,48(sp)
   1569e:    02047793            andi    a5,s0,32
   156a2:    cf95                beqz    a5,0x156de
   156a4:    000bbb83            ld      s7,0(s7)
   156a8:    000bc463            bltz    s7,0x156b0
   156ac:    08c0106f            j       0x16738
   156b0:    02d00793            li      a5,45
   156b4:    0cf107a3            sb      a5,207(sp)
   156b8:    41700bb3            neg     s7,s7
   156bc:    4785                li      a5,1
   156be:    577d                li      a4,-1
   156c0:    74ed8c63            beq     s11,a4,0x15e18
   156c4:    8722                mv      a4,s0
   156c6:    f7f47413            andi    s0,s0,-129
   156ca:    2401                sext.w  s0,s0
   156cc:    740b9663            bnez    s7,0x15e18
   156d0:    020d84e3            beqz    s11,0x15ef8
   156d4:    4705                li      a4,1
   156d6:    74e79463            bne     a5,a4,0x15e1e
   156da:    06a0106f            j       0x16744
   156de:    01047793            andi    a5,s0,16
   156e2:    f3e9                bnez    a5,0x156a4
   156e4:    04047793            andi    a5,s0,64
   156e8:    c781                beqz    a5,0x156f0
   156ea:    000b9b83            lh      s7,0(s7)
   156ee:    bf6d                j       0x156a8
   156f0:    20047793            andi    a5,s0,512
   156f4:    c781                beqz    a5,0x156fc
   156f6:    000b8b83            lb      s7,0(s7)
   156fa:    b77d                j       0x156a8
   156fc:    000bab83            lw      s7,0(s7)
   15700:    b765                j       0x156a8
   15702:    00847793            andi    a5,s0,8
   15706:    cfb9                beqz    a5,0x15764
   15708:    0bbd                addi    s7,s7,15
   1570a:    ff0bfb93            andi    s7,s7,-16
   1570e:    010b8793            addi    a5,s7,16
   15712:    f83e                sd      a5,48(sp)
   15714:    000bb783            ld      a5,0(s7)
   15718:    f9be                sd      a5,240(sp)
   1571a:    008bb783            ld      a5,8(s7)
   1571e:    fdbe                sd      a5,248(sp)
   15720:    1988                addi    a0,sp,240
   15722:    5f2030ef            jal     ra,0x18d14
   15726:    cdaa                sw      a0,216(sp)
   15728:    4789                li      a5,2
   1572a:    04f51c63            bne     a0,a5,0x15782
   1572e:    754e                ld      a0,240(sp)
   15730:    75ee                ld      a1,248(sp)
   15732:    4601                li      a2,0
   15734:    4681                li      a3,0
   15736:    4e4060ef            jal     ra,0x1bc1a
   1573a:    00055663            bgez    a0,0x15746
   1573e:    02d00793            li      a5,45
   15742:    0cf107a3            sb      a5,207(sp)
   15746:    04700793            li      a5,71
   1574a:    0367d763            bge     a5,s6,0x15778
   1574e:    0001d4b7            lui     s1,0x1d
   15752:    33848493            addi    s1,s1,824 # 0x1d338
   15756:    f7f47413            andi    s0,s0,-129
   1575a:    2401                sext.w  s0,s0
   1575c:    4b81                li      s7,0
   1575e:    4d8d                li      s11,3
   15760:    4701                li      a4,0
   15762:    adfd                j       0x15e60
   15764:    000bb507            fld     fa0,0(s7)
   15768:    008b8793            addi    a5,s7,8
   1576c:    f83e                sd      a5,48(sp)
   1576e:    470070ef            jal     ra,0x1cbde
   15772:    f9aa                sd      a0,240(sp)
   15774:    fdae                sd      a1,248(sp)
   15776:    b76d                j       0x15720
   15778:    0001d4b7            lui     s1,0x1d
   1577c:    33048493            addi    s1,s1,816 # 0x1d330
   15780:    bfd9                j       0x15756
   15782:    4785                li      a5,1
   15784:    02f51763            bne     a0,a5,0x157b2
   15788:    77ee                ld      a5,248(sp)
   1578a:    0007d663            bgez    a5,0x15796
   1578e:    02d00793            li      a5,45
   15792:    0cf107a3            sb      a5,207(sp)
   15796:    04700793            li      a5,71
   1579a:    0167d763            bge     a5,s6,0x157a8
   1579e:    0001d4b7            lui     s1,0x1d
   157a2:    34848493            addi    s1,s1,840 # 0x1d348
   157a6:    bf45                j       0x15756
   157a8:    0001d4b7            lui     s1,0x1d
   157ac:    34048493            addi    s1,s1,832 # 0x1d340
   157b0:    b75d                j       0x15756
   157b2:    fdfb7c13            andi    s8,s6,-33
   157b6:    04100793            li      a5,65
   157ba:    08fc1963            bne     s8,a5,0x1584c
   157be:    03000793            li      a5,48
   157c2:    0cf10823            sb      a5,208(sp)
   157c6:    06100713            li      a4,97
   157ca:    07800793            li      a5,120
   157ce:    00eb0463            beq     s6,a4,0x157d6
   157d2:    05800793            li      a5,88
   157d6:    0cf108a3            sb      a5,209(sp)
   157da:    00246413            ori     s0,s0,2
   157de:    06300793            li      a5,99
   157e2:    2401                sext.w  s0,s0
   157e4:    29b7d463            bge     a5,s11,0x15a6c
   157e8:    001d859b            addiw   a1,s11,1
   157ec:    854a                mv      a0,s2
   157ee:    d70fd0ef            jal     ra,0x12d5e
   157f2:    84aa                mv      s1,a0
   157f4:    26051f63            bnez    a0,0x15a72
   157f8:    0109d783            lhu     a5,16(s3)
   157fc:    0407e793            ori     a5,a5,64
   15800:    00f99823            sh      a5,16(s3)
   15804:    0109d783            lhu     a5,16(s3)
   15808:    0407f793            andi    a5,a5,64
   1580c:    a4079ae3            bnez    a5,0x15260
   15810:    26813083            ld      ra,616(sp)
   15814:    26013403            ld      s0,608(sp)
   15818:    7522                ld      a0,40(sp)
   1581a:    25813483            ld      s1,600(sp)
   1581e:    25013903            ld      s2,592(sp)
   15822:    24813983            ld      s3,584(sp)
   15826:    24013a03            ld      s4,576(sp)
   1582a:    23813a83            ld      s5,568(sp)
   1582e:    23013b03            ld      s6,560(sp)
   15832:    22813b83            ld      s7,552(sp)
   15836:    22013c03            ld      s8,544(sp)
   1583a:    21813c83            ld      s9,536(sp)
   1583e:    21013d03            ld      s10,528(sp)
   15842:    20813d83            ld      s11,520(sp)
   15846:    27010113            addi    sp,sp,624
   1584a:    8082                ret

   1584c:    57fd                li      a5,-1
   1584e:    22fd8463            beq     s11,a5,0x15a76
   15852:    04700793            li      a5,71
   15856:    4b81                li      s7,0
   15858:    00fc1663            bne     s8,a5,0x15864
   1585c:    000d9463            bnez    s11,0x15864
   15860:    8bee                mv      s7,s11
   15862:    4d85                li      s11,1
   15864:    10046793            ori     a5,s0,256
   15868:    7a6e                ld      s4,248(sp)
   1586a:    2781                sext.w  a5,a5
   1586c:    fc3e                sd      a5,56(sp)
   1586e:    fc82                sd      zero,120(sp)
   15870:    7ece                ld      t4,240(sp)
   15872:    000a5963            bgez    s4,0x15884
   15876:    57fd                li      a5,-1
   15878:    17fe                slli    a5,a5,0x3f
   1587a:    00fa4a33            xor     s4,s4,a5
   1587e:    02d00793            li      a5,45
   15882:    fcbe                sd      a5,120(sp)
   15884:    04100793            li      a5,65
   15888:    22fc1863            bne     s8,a5,0x15ab8
   1588c:    8576                mv      a0,t4
   1588e:    85d2                mv      a1,s4
   15890:    412070ef            jal     ra,0x1cca2
   15894:    09a8                addi    a0,sp,216
   15896:    0da040ef            jal     ra,0x19970
   1589a:    344070ef            jal     ra,0x1cbde
   1589e:    768a                ld      a3,160(sp)
   158a0:    4601                li      a2,0
   158a2:    42a060ef            jal     ra,0x1bccc
   158a6:    4601                li      a2,0
   158a8:    4681                li      a3,0
   158aa:    e12a                sd      a0,128(sp)
   158ac:    e52e                sd      a1,136(sp)
   158ae:    21e060ef            jal     ra,0x1bacc
   158b2:    e119                bnez    a0,0x158b8
   158b4:    4785                li      a5,1
   158b6:    cdbe                sw      a5,216(sp)
   158b8:    06100793            li      a5,97
   158bc:    1cfb0063            beq     s6,a5,0x15a7c
   158c0:    0001d7b7            lui     a5,0x1d
   158c4:    36878793            addi    a5,a5,872 # 0x1d368
   158c8:    e43e                sd      a5,8(sp)
   158ca:    fffd871b            addiw   a4,s11,-1
   158ce:    8d26                mv      s10,s1
   158d0:    76aa                ld      a3,168(sp)
   158d2:    650a                ld      a0,128(sp)
   158d4:    65aa                ld      a1,136(sp)
   158d6:    4601                li      a2,0
   158d8:    f93a                sd      a4,176(sp)
   158da:    3f2060ef            jal     ra,0x1bccc
   158de:    8a2e                mv      s4,a1
   158e0:    f4aa                sd      a0,104(sp)
   158e2:    20e070ef            jal     ra,0x1caf0
   158e6:    0005079b            sext.w  a5,a0
   158ea:    f8be                sd      a5,112(sp)
   158ec:    294070ef            jal     ra,0x1cb80
   158f0:    77a6                ld      a5,104(sp)
   158f2:    86ae                mv      a3,a1
   158f4:    862a                mv      a2,a0
   158f6:    85d2                mv      a1,s4
   158f8:    853e                mv      a0,a5
   158fa:    1d9060ef            jal     ra,0x1c2d2
   158fe:    67a2                ld      a5,8(sp)
   15900:    7746                ld      a4,112(sp)
   15902:    0d05                addi    s10,s10,1
   15904:    e12a                sd      a0,128(sp)
   15906:    00e786b3            add     a3,a5,a4
   1590a:    774a                ld      a4,176(sp)
   1590c:    0006c683            lbu     a3,0(a3)
   15910:    e52e                sd      a1,136(sp)
   15912:    0007079b            sext.w  a5,a4
   15916:    f4be                sd      a5,104(sp)
   15918:    fedd0fa3            sb      a3,-1(s10)
   1591c:    57fd                li      a5,-1
   1591e:    88aa                mv      a7,a0
   15920:    8a2e                mv      s4,a1
   15922:    16f70263            beq     a4,a5,0x15a86
   15926:    377d                addiw   a4,a4,-1
   15928:    4601                li      a2,0
   1592a:    4681                li      a3,0
   1592c:    f93a                sd      a4,176(sp)
   1592e:    fd2a                sd      a0,184(sp)
   15930:    19c060ef            jal     ra,0x1bacc
   15934:    774a                ld      a4,176(sp)
   15936:    78ea                ld      a7,184(sp)
   15938:    fd41                bnez    a0,0x158d0
   1593a:    66ca                ld      a3,144(sp)
   1593c:    4601                li      a2,0
   1593e:    8546                mv      a0,a7
   15940:    85d2                mv      a1,s4
   15942:    e146                sd      a7,128(sp)
   15944:    224060ef            jal     ra,0x1bb68
   15948:    02a04063            bgtz    a0,0x15968
   1594c:    688a                ld      a7,128(sp)
   1594e:    66ca                ld      a3,144(sp)
   15950:    4601                li      a2,0
   15952:    8546                mv      a0,a7
   15954:    85d2                mv      a1,s4
   15956:    176060ef            jal     ra,0x1bacc
   1595a:    14051863            bnez    a0,0x15aaa
   1595e:    77c6                ld      a5,112(sp)
   15960:    0017f713            andi    a4,a5,1
   15964:    14070363            beqz    a4,0x15aaa
   15968:    67a2                ld      a5,8(sp)
   1596a:    f5ea                sd      s10,232(sp)
   1596c:    03000593            li      a1,48
   15970:    00f7c603            lbu     a2,15(a5)
   15974:    76ae                ld      a3,232(sp)
   15976:    fff68713            addi    a4,a3,-1
   1597a:    f5ba                sd      a4,232(sp)
   1597c:    fff6c703            lbu     a4,-1(a3)
   15980:    10c70663            beq     a4,a2,0x15a8c
   15984:    03900613            li      a2,57
   15988:    10c71563            bne     a4,a2,0x15a92
   1598c:    67a2                ld      a5,8(sp)
   1598e:    00a7c703            lbu     a4,10(a5)
   15992:    fee68fa3            sb      a4,-1(a3)
   15996:    8a6a                mv      s4,s10
   15998:    04700713            li      a4,71
   1599c:    409a0a3b            subw    s4,s4,s1
   159a0:    4d6e                lw      s10,216(sp)
   159a2:    1cec1463            bne     s8,a4,0x15b6a
   159a6:    5775                li      a4,-3
   159a8:    00ed4463            blt     s10,a4,0x159b0
   159ac:    23add263            bge     s11,s10,0x15bd0
   159b0:    3b79                addiw   s6,s6,-2
   159b2:    fffd069b            addiw   a3,s10,-1
   159b6:    cdb6                sw      a3,216(sp)
   159b8:    fdfb7613            andi    a2,s6,-33
   159bc:    04100513            li      a0,65
   159c0:    0ffb7713            andi    a4,s6,255
   159c4:    4581                li      a1,0
   159c6:    00a61663            bne     a2,a0,0x159d2
   159ca:    273d                addiw   a4,a4,15
   159cc:    0ff77713            andi    a4,a4,255
   159d0:    4585                li      a1,1
   159d2:    0ee10023            sb      a4,224(sp)
   159d6:    02b00793            li      a5,43
   159da:    0006d763            bgez    a3,0x159e8
   159de:    4685                li      a3,1
   159e0:    41a686bb            subw    a3,a3,s10
   159e4:    02d00793            li      a5,45
   159e8:    0ef100a3            sb      a5,225(sp)
   159ec:    47a5                li      a5,9
   159ee:    1ad7dc63            bge     a5,a3,0x15ba6
   159f2:    0ef10713            addi    a4,sp,239
   159f6:    853a                mv      a0,a4
   159f8:    45a9                li      a1,10
   159fa:    06300813            li      a6,99
   159fe:    02b6e7bb            remw    a5,a3,a1
   15a02:    fff70613            addi    a2,a4,-1
   15a06:    0307879b            addiw   a5,a5,48
   15a0a:    fef70fa3            sb      a5,-1(a4)
   15a0e:    02b6c7bb            divw    a5,a3,a1
   15a12:    18d84063            blt     a6,a3,0x15b92
   15a16:    0307879b            addiw   a5,a5,48
   15a1a:    fef60fa3            sb      a5,-1(a2)
   15a1e:    1779                addi    a4,a4,-2
   15a20:    0e210613            addi    a2,sp,226
   15a24:    16a76a63            bltu    a4,a0,0x15b98
   15a28:    119c                addi    a5,sp,224
   15a2a:    40f607bb            subw    a5,a2,a5
   15a2e:    ecbe                sd      a5,88(sp)
   15a30:    01478dbb            addw    s11,a5,s4
   15a34:    4705                li      a4,1
   15a36:    87ee                mv      a5,s11
   15a38:    01474563            blt     a4,s4,0x15a42
   15a3c:    00147713            andi    a4,s0,1
   15a40:    c701                beqz    a4,0x15a48
   15a42:    6762                ld      a4,24(sp)
   15a44:    00e78dbb            addw    s11,a5,a4
   15a48:    bff47413            andi    s0,s0,-1025
   15a4c:    2401                sext.w  s0,s0
   15a4e:    10046793            ori     a5,s0,256
   15a52:    fc3e                sd      a5,56(sp)
   15a54:    e402                sd      zero,8(sp)
   15a56:    4c01                li      s8,0
   15a58:    4d01                li      s10,0
   15a5a:    77e6                ld      a5,120(sp)
   15a5c:    c789                beqz    a5,0x15a66
   15a5e:    02d00713            li      a4,45
   15a62:    0ce107a3            sb      a4,207(sp)
   15a66:    7462                ld      s0,56(sp)
   15a68:    4701                li      a4,0
   15a6a:    b415                j       0x1548e
   15a6c:    4b81                li      s7,0
   15a6e:    0a24                addi    s1,sp,280
   15a70:    bbd5                j       0x15864
   15a72:    8baa                mv      s7,a0
   15a74:    bbc5                j       0x15864
   15a76:    4b81                li      s7,0
   15a78:    4d99                li      s11,6
   15a7a:    b3ed                j       0x15864
   15a7c:    0001d7b7            lui     a5,0x1d
   15a80:    35078793            addi    a5,a5,848 # 0x1d350
   15a84:    b591                j       0x158c8
   15a86:    57fd                li      a5,-1
   15a88:    f4be                sd      a5,104(sp)
   15a8a:    bd45                j       0x1593a
   15a8c:    feb68fa3            sb      a1,-1(a3)
   15a90:    b5d5                j       0x15974
   15a92:    2705                addiw   a4,a4,1
   15a94:    0ff77713            andi    a4,a4,255
   15a98:    bded                j       0x15992
   15a9a:    0a05                addi    s4,s4,1
   15a9c:    feda0fa3            sb      a3,-1(s4)
   15aa0:    4147873b            subw    a4,a5,s4
   15aa4:    fe075be3            bgez    a4,0x15a9a
   15aa8:    bdc5                j       0x15998
   15aaa:    77a6                ld      a5,104(sp)
   15aac:    8a6a                mv      s4,s10
   15aae:    03000693            li      a3,48
   15ab2:    00fd07bb            addw    a5,s10,a5
   15ab6:    b7ed                j       0x15aa0
   15ab8:    04600793            li      a5,70
   15abc:    00fc0b63            beq     s8,a5,0x15ad2
   15ac0:    04500793            li      a5,69
   15ac4:    8d6e                mv      s10,s11
   15ac6:    00fc1463            bne     s8,a5,0x15ace
   15aca:    001d8d1b            addiw   s10,s11,1
   15ace:    4689                li      a3,2
   15ad0:    a019                j       0x15ad6
   15ad2:    8d6e                mv      s10,s11
   15ad4:    468d                li      a3,3
   15ad6:    09bc                addi    a5,sp,216
   15ad8:    85f6                mv      a1,t4
   15ada:    0e810893            addi    a7,sp,232
   15ade:    0dc10813            addi    a6,sp,220
   15ae2:    876a                mv      a4,s10
   15ae4:    8652                mv      a2,s4
   15ae6:    854a                mv      a0,s2
   15ae8:    e476                sd      t4,8(sp)
   15aea:    14d020ef            jal     ra,0x18436
   15aee:    04700793            li      a5,71
   15af2:    84aa                mv      s1,a0
   15af4:    6ea2                ld      t4,8(sp)
   15af6:    00fc1763            bne     s8,a5,0x15b04
   15afa:    00147793            andi    a5,s0,1
   15afe:    e399                bnez    a5,0x15b04
   15b00:    7a2e                ld      s4,232(sp)
   15b02:    bd59                j       0x15998
   15b04:    04600713            li      a4,70
   15b08:    01a487b3            add     a5,s1,s10
   15b0c:    02ec1963            bne     s8,a4,0x15b3e
   15b10:    0004c683            lbu     a3,0(s1)
   15b14:    03000713            li      a4,48
   15b18:    02e69163            bne     a3,a4,0x15b3a
   15b1c:    8576                mv      a0,t4
   15b1e:    4601                li      a2,0
   15b20:    4681                li      a3,0
   15b22:    85d2                mv      a1,s4
   15b24:    f4be                sd      a5,104(sp)
   15b26:    e476                sd      t4,8(sp)
   15b28:    7a5050ef            jal     ra,0x1bacc
   15b2c:    6ea2                ld      t4,8(sp)
   15b2e:    77a6                ld      a5,104(sp)
   15b30:    c509                beqz    a0,0x15b3a
   15b32:    4705                li      a4,1
   15b34:    41a70d3b            subw    s10,a4,s10
   15b38:    cdea                sw      s10,216(sp)
   15b3a:    476e                lw      a4,216(sp)
   15b3c:    97ba                add     a5,a5,a4
   15b3e:    4601                li      a2,0
   15b40:    4681                li      a3,0
   15b42:    8576                mv      a0,t4
   15b44:    85d2                mv      a1,s4
   15b46:    e43e                sd      a5,8(sp)
   15b48:    785050ef            jal     ra,0x1bacc
   15b4c:    67a2                ld      a5,8(sp)
   15b4e:    e111                bnez    a0,0x15b52
   15b50:    f5be                sd      a5,232(sp)
   15b52:    03000693            li      a3,48
   15b56:    a031                j       0x15b62
   15b58:    00170613            addi    a2,a4,1
   15b5c:    f5b2                sd      a2,232(sp)
   15b5e:    00d70023            sb      a3,0(a4)
   15b62:    772e                ld      a4,232(sp)
   15b64:    fef76ae3            bltu    a4,a5,0x15b58
   15b68:    bf61                j       0x15b00
   15b6a:    04600713            li      a4,70
   15b6e:    e4ec12e3            bne     s8,a4,0x159b2
   15b72:    00147713            andi    a4,s0,1
   15b76:    00ede733            or      a4,s11,a4
   15b7a:    2701                sext.w  a4,a4
   15b7c:    05a05563            blez    s10,0x15bc6
   15b80:    cf41                beqz    a4,0x15c18
   15b82:    67e2                ld      a5,24(sp)
   15b84:    01a7873b            addw    a4,a5,s10
   15b88:    01b70dbb            addw    s11,a4,s11
   15b8c:    06600b13            li      s6,102
   15b90:    a0bd                j       0x15bfe
   15b92:    8732                mv      a4,a2
   15b94:    86be                mv      a3,a5
   15b96:    b5a5                j       0x159fe
   15b98:    0705                addi    a4,a4,1
   15b9a:    fff74783            lbu     a5,-1(a4)
   15b9e:    0605                addi    a2,a2,1
   15ba0:    fef60fa3            sb      a5,-1(a2)
   15ba4:    b541                j       0x15a24
   15ba6:    0e210713            addi    a4,sp,226
   15baa:    e599                bnez    a1,0x15bb8
   15bac:    03000793            li      a5,48
   15bb0:    0ef10123            sb      a5,226(sp)
   15bb4:    0e310713            addi    a4,sp,227
   15bb8:    0306879b            addiw   a5,a3,48
   15bbc:    00170613            addi    a2,a4,1
   15bc0:    00f70023            sb      a5,0(a4)
   15bc4:    b595                j       0x15a28
   15bc6:    cb39                beqz    a4,0x15c1c
   15bc8:    67e2                ld      a5,24(sp)
   15bca:    0017871b            addiw   a4,a5,1
   15bce:    bf6d                j       0x15b88
   15bd0:    014d4c63            blt     s10,s4,0x15be8
   15bd4:    00147713            andi    a4,s0,1
   15bd8:    8dea                mv      s11,s10
   15bda:    c701                beqz    a4,0x15be2
   15bdc:    67e2                ld      a5,24(sp)
   15bde:    01a78dbb            addw    s11,a5,s10
   15be2:    06700b13            li      s6,103
   15be6:    a821                j       0x15bfe
   15be8:    67e2                ld      a5,24(sp)
   15bea:    06700b13            li      s6,103
   15bee:    01478dbb            addw    s11,a5,s4
   15bf2:    01a04663            bgtz    s10,0x15bfe
   15bf6:    41ad8e3b            subw    t3,s11,s10
   15bfa:    001e0d9b            addiw   s11,t3,1
   15bfe:    40047413            andi    s0,s0,1024
   15c02:    00040c1b            sext.w  s8,s0
   15c06:    e402                sd      zero,8(sp)
   15c08:    e40c09e3            beqz    s8,0x15a5a
   15c0c:    4c01                li      s8,0
   15c0e:    e5a056e3            blez    s10,0x15a5a
   15c12:    0ff00693            li      a3,255
   15c16:    a01d                j       0x15c3c
   15c18:    8dea                mv      s11,s10
   15c1a:    bf8d                j       0x15b8c
   15c1c:    06600b13            li      s6,102
   15c20:    4d85                li      s11,1
   15c22:    bff1                j       0x15bfe
   15c24:    2701                sext.w  a4,a4
   15c26:    03a75063            bge     a4,s10,0x15c46
   15c2a:    6782                ld      a5,0(sp)
   15c2c:    40ed0d3b            subw    s10,s10,a4
   15c30:    0017c703            lbu     a4,1(a5)
   15c34:    c315                beqz    a4,0x15c58
   15c36:    0785                addi    a5,a5,1
   15c38:    2c05                addiw   s8,s8,1
   15c3a:    e03e                sd      a5,0(sp)
   15c3c:    6782                ld      a5,0(sp)
   15c3e:    0007c703            lbu     a4,0(a5)
   15c42:    fed711e3            bne     a4,a3,0x15c24
   15c46:    67a2                ld      a5,8(sp)
   15c48:    00fc073b            addw    a4,s8,a5
   15c4c:    6786                ld      a5,64(sp)
   15c4e:    02f7073b            mulw    a4,a4,a5
   15c52:    01b70dbb            addw    s11,a4,s11
   15c56:    b511                j       0x15a5a
   15c58:    67a2                ld      a5,8(sp)
   15c5a:    2785                addiw   a5,a5,1
   15c5c:    e43e                sd      a5,8(sp)
   15c5e:    bff9                j       0x15c3c
   15c60:    008b8713            addi    a4,s7,8
   15c64:    f83a                sd      a4,48(sp)
   15c66:    02047713            andi    a4,s0,32
   15c6a:    000bb783            ld      a5,0(s7)
   15c6e:    c719                beqz    a4,0x15c7c
   15c70:    7722                ld      a4,40(sp)
   15c72:    e398                sd      a4,0(a5)
   15c74:    7bc2                ld      s7,48(sp)
   15c76:    64c2                ld      s1,16(sp)
   15c78:    e38ff06f            j       0x152b0
   15c7c:    01047713            andi    a4,s0,16
   15c80:    fb65                bnez    a4,0x15c70
   15c82:    04047713            andi    a4,s0,64
   15c86:    c709                beqz    a4,0x15c90
   15c88:    7722                ld      a4,40(sp)
   15c8a:    00e79023            sh      a4,0(a5)
   15c8e:    b7dd                j       0x15c74
   15c90:    20047413            andi    s0,s0,512
   15c94:    7722                ld      a4,40(sp)
   15c96:    c401                beqz    s0,0x15c9e
   15c98:    00e78023            sb      a4,0(a5)
   15c9c:    bfe1                j       0x15c74
   15c9e:    c398                sw      a4,0(a5)
   15ca0:    bfd1                j       0x15c74
   15ca2:    01046413            ori     s0,s0,16
   15ca6:    2401                sext.w  s0,s0
   15ca8:    008b8793            addi    a5,s7,8
   15cac:    f83e                sd      a5,48(sp)
   15cae:    02047793            andi    a5,s0,32
   15cb2:    cb91                beqz    a5,0x15cc6
   15cb4:    000bbb83            ld      s7,0(s7)
   15cb8:    bff47413            andi    s0,s0,-1025
   15cbc:    2401                sext.w  s0,s0
   15cbe:    4781                li      a5,0
   15cc0:    0c0107a3            sb      zero,207(sp)
   15cc4:    baed                j       0x156be
   15cc6:    01047793            andi    a5,s0,16
   15cca:    f7ed                bnez    a5,0x15cb4
   15ccc:    04047793            andi    a5,s0,64
   15cd0:    000bab83            lw      s7,0(s7)
   15cd4:    c789                beqz    a5,0x15cde
   15cd6:    1bc2                slli    s7,s7,0x30
   15cd8:    030bdb93            srli    s7,s7,0x30
   15cdc:    bff1                j       0x15cb8
   15cde:    20047793            andi    a5,s0,512
   15ce2:    c781                beqz    a5,0x15cea
   15ce4:    0ffbfb93            andi    s7,s7,255
   15ce8:    bfc1                j       0x15cb8
   15cea:    1b82                slli    s7,s7,0x20
   15cec:    020bdb93            srli    s7,s7,0x20
   15cf0:    b7e1                j       0x15cb8
   15cf2:    008b8793            addi    a5,s7,8
   15cf6:    f83e                sd      a5,48(sp)
   15cf8:    77e1                lui     a5,0xffff8
   15cfa:    8307c793            xori    a5,a5,-2000
   15cfe:    0cf11823            sh      a5,208(sp)
   15d02:    0001d7b7            lui     a5,0x1d
   15d06:    35078793            addi    a5,a5,848 # 0x1d350
   15d0a:    00246413            ori     s0,s0,2
   15d0e:    f0be                sd      a5,96(sp)
   15d10:    000bbb83            ld      s7,0(s7)
   15d14:    2401                sext.w  s0,s0
   15d16:    4789                li      a5,2
   15d18:    07800b13            li      s6,120
   15d1c:    b755                j       0x15cc0
   15d1e:    008b8793            addi    a5,s7,8
   15d22:    f83e                sd      a5,48(sp)
   15d24:    0c0107a3            sb      zero,207(sp)
   15d28:    57fd                li      a5,-1
   15d2a:    000bb483            ld      s1,0(s7)
   15d2e:    00fd8e63            beq     s11,a5,0x15d4a
   15d32:    866e                mv      a2,s11
   15d34:    4581                li      a1,0
   15d36:    8526                mv      a0,s1
   15d38:    dc8fd0ef            jal     ra,0x13300
   15d3c:    8baa                mv      s7,a0
   15d3e:    a20501e3            beqz    a0,0x15760
   15d42:    40950dbb            subw    s11,a0,s1
   15d46:    4b81                li      s7,0
   15d48:    bc21                j       0x15760
   15d4a:    8526                mv      a0,s1
   15d4c:    fe0fa0ef            jal     ra,0x1052c
   15d50:    00050d9b            sext.w  s11,a0
   15d54:    bfcd                j       0x15d46
   15d56:    01046413            ori     s0,s0,16
   15d5a:    2401                sext.w  s0,s0
   15d5c:    008b8793            addi    a5,s7,8
   15d60:    f83e                sd      a5,48(sp)
   15d62:    02047793            andi    a5,s0,32
   15d66:    c789                beqz    a5,0x15d70
   15d68:    000bbb83            ld      s7,0(s7)
   15d6c:    4785                li      a5,1
   15d6e:    bf89                j       0x15cc0
   15d70:    01047793            andi    a5,s0,16
   15d74:    fbf5                bnez    a5,0x15d68
   15d76:    04047793            andi    a5,s0,64
   15d7a:    000bab83            lw      s7,0(s7)
   15d7e:    c789                beqz    a5,0x15d88
   15d80:    1bc2                slli    s7,s7,0x30
   15d82:    030bdb93            srli    s7,s7,0x30
   15d86:    b7dd                j       0x15d6c
   15d88:    20047793            andi    a5,s0,512
   15d8c:    c781                beqz    a5,0x15d94
   15d8e:    0ffbfb93            andi    s7,s7,255
   15d92:    bfe9                j       0x15d6c
   15d94:    1b82                slli    s7,s7,0x20
   15d96:    020bdb93            srli    s7,s7,0x20
   15d9a:    bfc9                j       0x15d6c
   15d9c:    0001d7b7            lui     a5,0x1d
   15da0:    36878793            addi    a5,a5,872 # 0x1d368
   15da4:    f0be                sd      a5,96(sp)
   15da6:    008b8793            addi    a5,s7,8
   15daa:    f83e                sd      a5,48(sp)
   15dac:    02047793            andi    a5,s0,32
   15db0:    cb9d                beqz    a5,0x15de6
   15db2:    000bbb83            ld      s7,0(s7)
   15db6:    00147793            andi    a5,s0,1
   15dba:    cf81                beqz    a5,0x15dd2
   15dbc:    000b8b63            beqz    s7,0x15dd2
   15dc0:    03000793            li      a5,48
   15dc4:    00246413            ori     s0,s0,2
   15dc8:    0cf10823            sb      a5,208(sp)
   15dcc:    0d6108a3            sb      s6,209(sp)
   15dd0:    2401                sext.w  s0,s0
   15dd2:    bff47413            andi    s0,s0,-1025
   15dd6:    2401                sext.w  s0,s0
   15dd8:    4789                li      a5,2
   15dda:    b5dd                j       0x15cc0
   15ddc:    0001d7b7            lui     a5,0x1d
   15de0:    35078793            addi    a5,a5,848 # 0x1d350
   15de4:    b7c1                j       0x15da4
   15de6:    01047793            andi    a5,s0,16
   15dea:    f7e1                bnez    a5,0x15db2
   15dec:    04047793            andi    a5,s0,64
   15df0:    000bab83            lw      s7,0(s7)
   15df4:    c789                beqz    a5,0x15dfe
   15df6:    1bc2                slli    s7,s7,0x30
   15df8:    030bdb93            srli    s7,s7,0x30
   15dfc:    bf6d                j       0x15db6
   15dfe:    20047793            andi    a5,s0,512
   15e02:    c781                beqz    a5,0x15e0a
   15e04:    0ffbfb93            andi    s7,s7,255
   15e08:    b77d                j       0x15db6
   15e0a:    1b82                slli    s7,s7,0x20
   15e0c:    020bdb93            srli    s7,s7,0x20
   15e10:    b75d                j       0x15db6
   15e12:    8722                mv      a4,s0
   15e14:    4785                li      a5,1
   15e16:    b845                j       0x156c6
   15e18:    4705                li      a4,1
   15e1a:    12e782e3            beq     a5,a4,0x1673e
   15e1e:    4709                li      a4,2
   15e20:    0ae78d63            beq     a5,a4,0x15eda
   15e24:    1afc                addi    a5,sp,380
   15e26:    007bf713            andi    a4,s7,7
   15e2a:    03070713            addi    a4,a4,48
   15e2e:    fee78fa3            sb      a4,-1(a5)
   15e32:    003bdb93            srli    s7,s7,0x3
   15e36:    fff78493            addi    s1,a5,-1
   15e3a:    020b9863            bnez    s7,0x15e6a
   15e3e:    00147693            andi    a3,s0,1
   15e42:    ca89                beqz    a3,0x15e54
   15e44:    03000693            li      a3,48
   15e48:    00d70663            beq     a4,a3,0x15e54
   15e4c:    fed48fa3            sb      a3,-1(s1)
   15e50:    ffe78493            addi    s1,a5,-2
   15e54:    17c10e13            addi    t3,sp,380
   15e58:    876e                mv      a4,s11
   15e5a:    4b81                li      s7,0
   15e5c:    409e0dbb            subw    s11,t3,s1
   15e60:    e402                sd      zero,8(sp)
   15e62:    4c01                li      s8,0
   15e64:    4d01                li      s10,0
   15e66:    e28ff06f            j       0x1548e
   15e6a:    87a6                mv      a5,s1
   15e6c:    bf6d                j       0x15e26
   15e6e:    40047c13            andi    s8,s0,1024
   15e72:    4a01                li      s4,0
   15e74:    1afc                addi    a5,sp,380
   15e76:    46a9                li      a3,10
   15e78:    2c01                sext.w  s8,s8
   15e7a:    0ff00813            li      a6,255
   15e7e:    4d25                li      s10,9
   15e80:    02dbf733            remu    a4,s7,a3
   15e84:    fff78493            addi    s1,a5,-1
   15e88:    2a05                addiw   s4,s4,1
   15e8a:    0307071b            addiw   a4,a4,48
   15e8e:    fee78fa3            sb      a4,-1(a5)
   15e92:    020c0d63            beqz    s8,0x15ecc
   15e96:    6782                ld      a5,0(sp)
   15e98:    0007c783            lbu     a5,0(a5)
   15e9c:    02fa1863            bne     s4,a5,0x15ecc
   15ea0:    03078663            beq     a5,a6,0x15ecc
   15ea4:    037d7463            bgeu    s10,s7,0x15ecc
   15ea8:    6786                ld      a5,64(sp)
   15eaa:    65c6                ld      a1,80(sp)
   15eac:    4a01                li      s4,0
   15eae:    8c9d                sub     s1,s1,a5
   15eb0:    863e                mv      a2,a5
   15eb2:    8526                mv      a0,s1
   15eb4:    375030ef            jal     ra,0x19a28
   15eb8:    6782                ld      a5,0(sp)
   15eba:    46a9                li      a3,10
   15ebc:    0ff00813            li      a6,255
   15ec0:    0017c783            lbu     a5,1(a5)
   15ec4:    c781                beqz    a5,0x15ecc
   15ec6:    6782                ld      a5,0(sp)
   15ec8:    0785                addi    a5,a5,1
   15eca:    e03e                sd      a5,0(sp)
   15ecc:    02dbd7b3            divu    a5,s7,a3
   15ed0:    f97d72e3            bgeu    s10,s7,0x15e54
   15ed4:    8bbe                mv      s7,a5
   15ed6:    87a6                mv      a5,s1
   15ed8:    b765                j       0x15e80
   15eda:    1ae4                addi    s1,sp,380
   15edc:    7706                ld      a4,96(sp)
   15ede:    00fbf793            andi    a5,s7,15
   15ee2:    14fd                addi    s1,s1,-1
   15ee4:    97ba                add     a5,a5,a4
   15ee6:    0007c783            lbu     a5,0(a5)
   15eea:    004bdb93            srli    s7,s7,0x4
   15eee:    00f48023            sb      a5,0(s1)
   15ef2:    fe0b95e3            bnez    s7,0x15edc
   15ef6:    bfb9                j       0x15e54
   15ef8:    1ae4                addi    s1,sp,380
   15efa:    ffa9                bnez    a5,0x15e54
   15efc:    8b05                andi    a4,a4,1
   15efe:    db39                beqz    a4,0x15e54
   15f00:    03000793            li      a5,48
   15f04:    16f10da3            sb      a5,379(sp)
   15f08:    0450006f            j       0x1674c
   15f0c:    000b0ce3            beqz    s6,0x16724
   15f10:    11610c23            sb      s6,280(sp)
   15f14:    0c0107a3            sb      zero,207(sp)
   15f18:    f85e                sd      s7,48(sp)
   15f1a:    d66ff06f            j       0x15480
   15f1e:    0641                addi    a2,a2,16
   15f20:    011cb423            sd      a7,8(s9)
   15f24:    ea32                sd      a2,272(sp)
   15f26:    10b12423            sw      a1,264(sp)
   15f2a:    02aed363            bge     t4,a0,0x15f50
   15f2e:    0210                addi    a2,sp,256
   15f30:    85ce                mv      a1,s3
   15f32:    854a                mv      a0,s2
   15f34:    e13a                sd      a4,128(sp)
   15f36:    fcb6                sd      a3,120(sp)
   15f38:    72b040ef            jal     ra,0x1ae62
   15f3c:    7a051563            bnez    a0,0x166e6
   15f40:    670a                ld      a4,128(sp)
   15f42:    76e6                ld      a3,120(sp)
   15f44:    67f5                lui     a5,0x1d
   15f46:    8f56                mv      t5,s5
   15f48:    4e9d                li      t4,7
   15f4a:    2d878813            addi    a6,a5,728 # 0x1d2d8
   15f4e:    48c1                li      a7,16
   15f50:    36c1                addiw   a3,a3,-16
   15f52:    8cfa                mv      s9,t5
   15f54:    d84ff06f            j       0x154d8
   15f58:    0641                addi    a2,a2,16
   15f5a:    011cb423            sd      a7,8(s9)
   15f5e:    ea32                sd      a2,272(sp)
   15f60:    10b12423            sw      a1,264(sp)
   15f64:    02aed363            bge     t4,a0,0x15f8a
   15f68:    0210                addi    a2,sp,256
   15f6a:    85ce                mv      a1,s3
   15f6c:    854a                mv      a0,s2
   15f6e:    f8ba                sd      a4,112(sp)
   15f70:    f4b6                sd      a3,104(sp)
   15f72:    6f1040ef            jal     ra,0x1ae62
   15f76:    76051863            bnez    a0,0x166e6
   15f7a:    7746                ld      a4,112(sp)
   15f7c:    76a6                ld      a3,104(sp)
   15f7e:    67f5                lui     a5,0x1d
   15f80:    8f56                mv      t5,s5
   15f82:    4e9d                li      t4,7
   15f84:    2e878813            addi    a6,a5,744 # 0x1d2e8
   15f88:    48c1                li      a7,16
   15f8a:    36c1                addiw   a3,a3,-16
   15f8c:    8cfa                mv      s9,t5
   15f8e:    e30ff06f            j       0x155be
   15f92:    06c1                addi    a3,a3,16
   15f94:    011cb423            sd      a7,8(s9)
   15f98:    ea36                sd      a3,272(sp)
   15f9a:    10c12423            sw      a2,264(sp)
   15f9e:    02bed163            bge     t4,a1,0x15fc0
   15fa2:    0210                addi    a2,sp,256
   15fa4:    85ce                mv      a1,s3
   15fa6:    854a                mv      a0,s2
   15fa8:    f4ba                sd      a4,104(sp)
   15faa:    6b9040ef            jal     ra,0x1ae62
   15fae:    72051c63            bnez    a0,0x166e6
   15fb2:    7726                ld      a4,104(sp)
   15fb4:    67f5                lui     a5,0x1d
   15fb6:    8556                mv      a0,s5
   15fb8:    4e9d                li      t4,7
   15fba:    2e878813            addi    a6,a5,744 # 0x1d2e8
   15fbe:    48c1                li      a7,16
   15fc0:    3741                addiw   a4,a4,-16
   15fc2:    8caa                mv      s9,a0
   15fc4:    e4eff06f            j       0x15612
   15fc8:    06500693            li      a3,101
   15fcc:    5766dc63            bge     a3,s6,0x16544
   15fd0:    754e                ld      a0,240(sp)
   15fd2:    75ee                ld      a1,248(sp)
   15fd4:    4601                li      a2,0
   15fd6:    4681                li      a3,0
   15fd8:    f4ba                sd      a4,104(sp)
   15fda:    2f3050ef            jal     ra,0x1bacc
   15fde:    7726                ld      a4,104(sp)
   15fe0:    10051e63            bnez    a0,0x160fc
   15fe4:    0001d7b7            lui     a5,0x1d
   15fe8:    38078793            addi    a5,a5,896 # 0x1d380
   15fec:    00fcb023            sd      a5,0(s9)
   15ff0:    4785                li      a5,1
   15ff2:    00fcb423            sd      a5,8(s9)
   15ff6:    10812783            lw      a5,264(sp)
   15ffa:    0705                addi    a4,a4,1
   15ffc:    ea3a                sd      a4,272(sp)
   15ffe:    0017871b            addiw   a4,a5,1
   16002:    10e12423            sw      a4,264(sp)
   16006:    479d                li      a5,7
   16008:    0cc1                addi    s9,s9,16
   1600a:    00e7da63            bge     a5,a4,0x1601e
   1600e:    0210                addi    a2,sp,256
   16010:    85ce                mv      a1,s3
   16012:    854a                mv      a0,s2
   16014:    64f040ef            jal     ra,0x1ae62
   16018:    6c051763            bnez    a0,0x166e6
   1601c:    8cd6                mv      s9,s5
   1601e:    47ee                lw      a5,216(sp)
   16020:    0147c563            blt     a5,s4,0x1602a
   16024:    00147793            andi    a5,s0,1
   16028:    cfa5                beqz    a5,0x160a0
   1602a:    67a6                ld      a5,72(sp)
   1602c:    6762                ld      a4,24(sp)
   1602e:    0cc1                addi    s9,s9,16
   16030:    fefcb823            sd      a5,-16(s9)
   16034:    67e2                ld      a5,24(sp)
   16036:    fefcbc23            sd      a5,-8(s9)
   1603a:    67d2                ld      a5,272(sp)
   1603c:    97ba                add     a5,a5,a4
   1603e:    ea3e                sd      a5,272(sp)
   16040:    10812783            lw      a5,264(sp)
   16044:    0017871b            addiw   a4,a5,1
   16048:    10e12423            sw      a4,264(sp)
   1604c:    479d                li      a5,7
   1604e:    00e7da63            bge     a5,a4,0x16062
   16052:    0210                addi    a2,sp,256
   16054:    85ce                mv      a1,s3
   16056:    854a                mv      a0,s2
   16058:    60b040ef            jal     ra,0x1ae62
   1605c:    68051563            bnez    a0,0x166e6
   16060:    8cd6                mv      s9,s5
   16062:    fffa049b            addiw   s1,s4,-1
   16066:    02905d63            blez    s1,0x160a0
   1606a:    6b75                lui     s6,0x1d
   1606c:    4c41                li      s8,16
   1606e:    2e8b0b13            addi    s6,s6,744 # 0x1d2e8
   16072:    4d1d                li      s10,7
   16074:    10812703            lw      a4,264(sp)
   16078:    016cb023            sd      s6,0(s9)
   1607c:    67d2                ld      a5,272(sp)
   1607e:    0017069b            addiw   a3,a4,1
   16082:    8736                mv      a4,a3
   16084:    010c8613            addi    a2,s9,16
   16088:    049c4763            blt     s8,s1,0x160d6
   1608c:    009cb423            sd      s1,8(s9)
   16090:    94be                add     s1,s1,a5
   16092:    ea26                sd      s1,272(sp)
   16094:    10d12423            sw      a3,264(sp)
   16098:    479d                li      a5,7
   1609a:    8cb2                mv      s9,a2
   1609c:    ded7c063            blt     a5,a3,0x1567c
   160a0:    8811                andi    s0,s0,4
   160a2:    5e041d63            bnez    s0,0x1669c
   160a6:    7702                ld      a4,32(sp)
   160a8:    76e2                ld      a3,56(sp)
   160aa:    5782                lw      a5,32(sp)
   160ac:    00d75363            bge     a4,a3,0x160b2
   160b0:    57e2                lw      a5,56(sp)
   160b2:    7722                ld      a4,40(sp)
   160b4:    9fb9                addw    a5,a5,a4
   160b6:    f43e                sd      a5,40(sp)
   160b8:    67d2                ld      a5,272(sp)
   160ba:    cb81                beqz    a5,0x160ca
   160bc:    0210                addi    a2,sp,256
   160be:    85ce                mv      a1,s3
   160c0:    854a                mv      a0,s2
   160c2:    5a1040ef            jal     ra,0x1ae62
   160c6:    62051063            bnez    a0,0x166e6
   160ca:    10012423            sw      zero,264(sp)
   160ce:    640b9663            bnez    s7,0x1671a
   160d2:    8cd6                mv      s9,s5
   160d4:    b645                j       0x15c74
   160d6:    07c1                addi    a5,a5,16
   160d8:    018cb423            sd      s8,8(s9)
   160dc:    ea3e                sd      a5,272(sp)
   160de:    10e12423            sw      a4,264(sp)
   160e2:    00dd5a63            bge     s10,a3,0x160f6
   160e6:    0210                addi    a2,sp,256
   160e8:    85ce                mv      a1,s3
   160ea:    854a                mv      a0,s2
   160ec:    577040ef            jal     ra,0x1ae62
   160f0:    5e051b63            bnez    a0,0x166e6
   160f4:    8656                mv      a2,s5
   160f6:    34c1                addiw   s1,s1,-16
   160f8:    8cb2                mv      s9,a2
   160fa:    bfad                j       0x16074
   160fc:    46ee                lw      a3,216(sp)
   160fe:    12d04163            bgtz    a3,0x16220
   16102:    0001d7b7            lui     a5,0x1d
   16106:    38078793            addi    a5,a5,896 # 0x1d380
   1610a:    00fcb023            sd      a5,0(s9)
   1610e:    4785                li      a5,1
   16110:    00fcb423            sd      a5,8(s9)
   16114:    10812783            lw      a5,264(sp)
   16118:    0705                addi    a4,a4,1
   1611a:    ea3a                sd      a4,272(sp)
   1611c:    0017871b            addiw   a4,a5,1
   16120:    10e12423            sw      a4,264(sp)
   16124:    479d                li      a5,7
   16126:    0cc1                addi    s9,s9,16
   16128:    00e7da63            bge     a5,a4,0x1613c
   1612c:    0210                addi    a2,sp,256
   1612e:    85ce                mv      a1,s3
   16130:    854a                mv      a0,s2
   16132:    531040ef            jal     ra,0x1ae62
   16136:    5a051863            bnez    a0,0x166e6
   1613a:    8cd6                mv      s9,s5
   1613c:    47ee                lw      a5,216(sp)
   1613e:    00147693            andi    a3,s0,1
   16142:    6752                ld      a4,272(sp)
   16144:    00fa67b3            or      a5,s4,a5
   16148:    8fd5                or      a5,a5,a3
   1614a:    2781                sext.w  a5,a5
   1614c:    dbb1                beqz    a5,0x160a0
   1614e:    67a6                ld      a5,72(sp)
   16150:    010c8313            addi    t1,s9,16
   16154:    00fcb023            sd      a5,0(s9)
   16158:    67e2                ld      a5,24(sp)
   1615a:    00fcb423            sd      a5,8(s9)
   1615e:    97ba                add     a5,a5,a4
   16160:    ea3e                sd      a5,272(sp)
   16162:    10812783            lw      a5,264(sp)
   16166:    0017871b            addiw   a4,a5,1
   1616a:    10e12423            sw      a4,264(sp)
   1616e:    479d                li      a5,7
   16170:    00e7da63            bge     a5,a4,0x16184
   16174:    0210                addi    a2,sp,256
   16176:    85ce                mv      a1,s3
   16178:    854a                mv      a0,s2
   1617a:    4e9040ef            jal     ra,0x1ae62
   1617e:    56051463            bnez    a0,0x166e6
   16182:    8356                mv      t1,s5
   16184:    4b6e                lw      s6,216(sp)
   16186:    040b5663            bgez    s6,0x161d2
   1618a:    6c75                lui     s8,0x1d
   1618c:    41600b3b            negw    s6,s6
   16190:    879a                mv      a5,t1
   16192:    4d41                li      s10,16
   16194:    2e8c0c13            addi    s8,s8,744 # 0x1d2e8
   16198:    4c9d                li      s9,7
   1619a:    10812683            lw      a3,264(sp)
   1619e:    0187b023            sd      s8,0(a5)
   161a2:    6752                ld      a4,272(sp)
   161a4:    0016861b            addiw   a2,a3,1
   161a8:    86b2                mv      a3,a2
   161aa:    0341                addi    t1,t1,16
   161ac:    056d4763            blt     s10,s6,0x161fa
   161b0:    0167b423            sd      s6,8(a5)
   161b4:    9b3a                add     s6,s6,a4
   161b6:    ea5a                sd      s6,272(sp)
   161b8:    10c12423            sw      a2,264(sp)
   161bc:    479d                li      a5,7
   161be:    00c7da63            bge     a5,a2,0x161d2
   161c2:    0210                addi    a2,sp,256
   161c4:    85ce                mv      a1,s3
   161c6:    854a                mv      a0,s2
   161c8:    49b040ef            jal     ra,0x1ae62
   161cc:    50051d63            bnez    a0,0x166e6
   161d0:    8356                mv      t1,s5
   161d2:    67d2                ld      a5,272(sp)
   161d4:    00933023            sd      s1,0(t1)
   161d8:    01433423            sd      s4,8(t1)
   161dc:    97d2                add     a5,a5,s4
   161de:    ea3e                sd      a5,272(sp)
   161e0:    10812783            lw      a5,264(sp)
   161e4:    01030c93            addi    s9,t1,16
   161e8:    0017871b            addiw   a4,a5,1
   161ec:    10e12423            sw      a4,264(sp)
   161f0:    479d                li      a5,7
   161f2:    eae7d7e3            bge     a5,a4,0x160a0
   161f6:    c86ff06f            j       0x1567c
   161fa:    0741                addi    a4,a4,16
   161fc:    01a7b423            sd      s10,8(a5)
   16200:    ea3a                sd      a4,272(sp)
   16202:    10d12423            sw      a3,264(sp)
   16206:    00ccda63            bge     s9,a2,0x1621a
   1620a:    0210                addi    a2,sp,256
   1620c:    85ce                mv      a1,s3
   1620e:    854a                mv      a0,s2
   16210:    453040ef            jal     ra,0x1ae62
   16214:    4c051963            bnez    a0,0x166e6
   16218:    8356                mv      t1,s5
   1621a:    3b41                addiw   s6,s6,-16
   1621c:    879a                mv      a5,t1
   1621e:    bfb5                j       0x1619a
   16220:    000d0b1b            sext.w  s6,s10
   16224:    01aa5463            bge     s4,s10,0x1622c
   16228:    000a0b1b            sext.w  s6,s4
   1622c:    03605a63            blez    s6,0x16260
   16230:    975a                add     a4,a4,s6
   16232:    ea3a                sd      a4,272(sp)
   16234:    10812703            lw      a4,264(sp)
   16238:    009cb023            sd      s1,0(s9)
   1623c:    016cb423            sd      s6,8(s9)
   16240:    0017069b            addiw   a3,a4,1
   16244:    10d12423            sw      a3,264(sp)
   16248:    471d                li      a4,7
   1624a:    0cc1                addi    s9,s9,16
   1624c:    00d75a63            bge     a4,a3,0x16260
   16250:    0210                addi    a2,sp,256
   16252:    85ce                mv      a1,s3
   16254:    854a                mv      a0,s2
   16256:    40d040ef            jal     ra,0x1ae62
   1625a:    48051663            bnez    a0,0x166e6
   1625e:    8cd6                mv      s9,s5
   16260:    875a                mv      a4,s6
   16262:    000b5363            bgez    s6,0x16268
   16266:    4701                li      a4,0
   16268:    40ed0b3b            subw    s6,s10,a4
   1626c:    05605563            blez    s6,0x162b6
   16270:    66f5                lui     a3,0x1d
   16272:    4841                li      a6,16
   16274:    2e868d93            addi    s11,a3,744 # 0x1d2e8
   16278:    489d                li      a7,7
   1627a:    10812603            lw      a2,264(sp)
   1627e:    01bcb023            sd      s11,0(s9)
   16282:    6752                ld      a4,272(sp)
   16284:    0016059b            addiw   a1,a2,1
   16288:    862e                mv      a2,a1
   1628a:    010c8513            addi    a0,s9,16
   1628e:    15684263            blt     a6,s6,0x163d2
   16292:    016cb423            sd      s6,8(s9)
   16296:    9b3a                add     s6,s6,a4
   16298:    ea5a                sd      s6,272(sp)
   1629a:    10b12423            sw      a1,264(sp)
   1629e:    471d                li      a4,7
   162a0:    8caa                mv      s9,a0
   162a2:    00b75a63            bge     a4,a1,0x162b6
   162a6:    0210                addi    a2,sp,256
   162a8:    85ce                mv      a1,s3
   162aa:    854a                mv      a0,s2
   162ac:    3b7040ef            jal     ra,0x1ae62
   162b0:    42051b63            bnez    a0,0x166e6
   162b4:    8cd6                mv      s9,s5
   162b6:    40047793            andi    a5,s0,1024
   162ba:    01a48b33            add     s6,s1,s10
   162be:    c39d                beqz    a5,0x162e4
   162c0:    014487b3            add     a5,s1,s4
   162c4:    f4be                sd      a5,104(sp)
   162c6:    67f5                lui     a5,0x1d
   162c8:    2e878793            addi    a5,a5,744 # 0x1d2e8
   162cc:    4d9d                li      s11,7
   162ce:    8d3e                mv      s10,a5
   162d0:    67a2                ld      a5,8(sp)
   162d2:    120c1563            bnez    s8,0x163fc
   162d6:    12079463            bnez    a5,0x163fe
   162da:    014487b3            add     a5,s1,s4
   162de:    0167f363            bgeu    a5,s6,0x162e4
   162e2:    8b3e                mv      s6,a5
   162e4:    47ee                lw      a5,216(sp)
   162e6:    0147c563            blt     a5,s4,0x162f0
   162ea:    00147793            andi    a5,s0,1
   162ee:    cf8d                beqz    a5,0x16328
   162f0:    67a6                ld      a5,72(sp)
   162f2:    6762                ld      a4,24(sp)
   162f4:    0cc1                addi    s9,s9,16
   162f6:    fefcb823            sd      a5,-16(s9)
   162fa:    67e2                ld      a5,24(sp)
   162fc:    fefcbc23            sd      a5,-8(s9)
   16300:    67d2                ld      a5,272(sp)
   16302:    97ba                add     a5,a5,a4
   16304:    ea3e                sd      a5,272(sp)
   16306:    10812783            lw      a5,264(sp)
   1630a:    0017871b            addiw   a4,a5,1
   1630e:    10e12423            sw      a4,264(sp)
   16312:    479d                li      a5,7
   16314:    00e7da63            bge     a5,a4,0x16328
   16318:    0210                addi    a2,sp,256
   1631a:    85ce                mv      a1,s3
   1631c:    854a                mv      a0,s2
   1631e:    345040ef            jal     ra,0x1ae62
   16322:    3c051263            bnez    a0,0x166e6
   16326:    8cd6                mv      s9,s5
   16328:    4c6e                lw      s8,216(sp)
   1632a:    94d2                add     s1,s1,s4
   1632c:    416484bb            subw    s1,s1,s6
   16330:    418a07bb            subw    a5,s4,s8
   16334:    8c3e                mv      s8,a5
   16336:    00f4d463            bge     s1,a5,0x1633e
   1633a:    00048c1b            sext.w  s8,s1
   1633e:    03805b63            blez    s8,0x16374
   16342:    67d2                ld      a5,272(sp)
   16344:    016cb023            sd      s6,0(s9)
   16348:    018cb423            sd      s8,8(s9)
   1634c:    97e2                add     a5,a5,s8
   1634e:    ea3e                sd      a5,272(sp)
   16350:    10812783            lw      a5,264(sp)
   16354:    0cc1                addi    s9,s9,16
   16356:    0017871b            addiw   a4,a5,1
   1635a:    10e12423            sw      a4,264(sp)
   1635e:    479d                li      a5,7
   16360:    00e7da63            bge     a5,a4,0x16374
   16364:    0210                addi    a2,sp,256
   16366:    85ce                mv      a1,s3
   16368:    854a                mv      a0,s2
   1636a:    2f9040ef            jal     ra,0x1ae62
   1636e:    36051c63            bnez    a0,0x166e6
   16372:    8cd6                mv      s9,s5
   16374:    87e2                mv      a5,s8
   16376:    000c5363            bgez    s8,0x1637c
   1637a:    4781                li      a5,0
   1637c:    44ee                lw      s1,216(sp)
   1637e:    409a04bb            subw    s1,s4,s1
   16382:    9c9d                subw    s1,s1,a5
   16384:    d0905ee3            blez    s1,0x160a0
   16388:    6b75                lui     s6,0x1d
   1638a:    4c41                li      s8,16
   1638c:    2e8b0b13            addi    s6,s6,744 # 0x1d2e8
   16390:    4d1d                li      s10,7
   16392:    10812703            lw      a4,264(sp)
   16396:    016cb023            sd      s6,0(s9)
   1639a:    67d2                ld      a5,272(sp)
   1639c:    0017069b            addiw   a3,a4,1
   163a0:    8736                mv      a4,a3
   163a2:    010c8613            addi    a2,s9,16
   163a6:    169c4c63            blt     s8,s1,0x1651e
   163aa:    009cb423            sd      s1,8(s9)
   163ae:    94be                add     s1,s1,a5
   163b0:    ea26                sd      s1,272(sp)
   163b2:    10d12423            sw      a3,264(sp)
   163b6:    479d                li      a5,7
   163b8:    8cb2                mv      s9,a2
   163ba:    ced7d3e3            bge     a5,a3,0x160a0
   163be:    0210                addi    a2,sp,256
   163c0:    85ce                mv      a1,s3
   163c2:    854a                mv      a0,s2
   163c4:    29f040ef            jal     ra,0x1ae62
   163c8:    30051f63            bnez    a0,0x166e6
   163cc:    18010c93            addi    s9,sp,384
   163d0:    b9c1                j       0x160a0
   163d2:    0741                addi    a4,a4,16
   163d4:    010cb423            sd      a6,8(s9)
   163d8:    ea3a                sd      a4,272(sp)
   163da:    10c12423            sw      a2,264(sp)
   163de:    00b8dc63            bge     a7,a1,0x163f6
   163e2:    0210                addi    a2,sp,256
   163e4:    85ce                mv      a1,s3
   163e6:    854a                mv      a0,s2
   163e8:    27b040ef            jal     ra,0x1ae62
   163ec:    2e051d63            bnez    a0,0x166e6
   163f0:    8556                mv      a0,s5
   163f2:    489d                li      a7,7
   163f4:    4841                li      a6,16
   163f6:    3b41                addiw   s6,s6,-16
   163f8:    8caa                mv      s9,a0
   163fa:    b541                j       0x1627a
   163fc:    c7d5                beqz    a5,0x164a8
   163fe:    67a2                ld      a5,8(sp)
   16400:    37fd                addiw   a5,a5,-1
   16402:    e43e                sd      a5,8(sp)
   16404:    67c6                ld      a5,80(sp)
   16406:    6706                ld      a4,64(sp)
   16408:    0cc1                addi    s9,s9,16
   1640a:    fefcb823            sd      a5,-16(s9)
   1640e:    6786                ld      a5,64(sp)
   16410:    fefcbc23            sd      a5,-8(s9)
   16414:    67d2                ld      a5,272(sp)
   16416:    97ba                add     a5,a5,a4
   16418:    ea3e                sd      a5,272(sp)
   1641a:    10812783            lw      a5,264(sp)
   1641e:    0017871b            addiw   a4,a5,1
   16422:    10e12423            sw      a4,264(sp)
   16426:    00edda63            bge     s11,a4,0x1643a
   1642a:    0210                addi    a2,sp,256
   1642c:    85ce                mv      a1,s3
   1642e:    854a                mv      a0,s2
   16430:    233040ef            jal     ra,0x1ae62
   16434:    2a051963            bnez    a0,0x166e6
   16438:    8cd6                mv      s9,s5
   1643a:    6702                ld      a4,0(sp)
   1643c:    77a6                ld      a5,104(sp)
   1643e:    00074703            lbu     a4,0(a4)
   16442:    416787bb            subw    a5,a5,s6
   16446:    00e7d463            bge     a5,a4,0x1644e
   1644a:    0007871b            sext.w  a4,a5
   1644e:    02e05d63            blez    a4,0x16488
   16452:    67d2                ld      a5,272(sp)
   16454:    016cb023            sd      s6,0(s9)
   16458:    00ecb423            sd      a4,8(s9)
   1645c:    97ba                add     a5,a5,a4
   1645e:    ea3e                sd      a5,272(sp)
   16460:    10812783            lw      a5,264(sp)
   16464:    0cc1                addi    s9,s9,16
   16466:    0017869b            addiw   a3,a5,1
   1646a:    10d12423            sw      a3,264(sp)
   1646e:    00dddd63            bge     s11,a3,0x16488
   16472:    0210                addi    a2,sp,256
   16474:    85ce                mv      a1,s3
   16476:    854a                mv      a0,s2
   16478:    f8ba                sd      a4,112(sp)
   1647a:    1e9040ef            jal     ra,0x1ae62
   1647e:    26051463            bnez    a0,0x166e6
   16482:    7746                ld      a4,112(sp)
   16484:    18010c93            addi    s9,sp,384
   16488:    86ba                mv      a3,a4
   1648a:    00075363            bgez    a4,0x16490
   1648e:    4681                li      a3,0
   16490:    6782                ld      a5,0(sp)
   16492:    4841                li      a6,16
   16494:    0007c783            lbu     a5,0(a5)
   16498:    9f95                subw    a5,a5,a3
   1649a:    04f04363            bgtz    a5,0x164e0
   1649e:    6782                ld      a5,0(sp)
   164a0:    0007c783            lbu     a5,0(a5)
   164a4:    9b3e                add     s6,s6,a5
   164a6:    b52d                j       0x162d0
   164a8:    6782                ld      a5,0(sp)
   164aa:    3c7d                addiw   s8,s8,-1
   164ac:    17fd                addi    a5,a5,-1
   164ae:    e03e                sd      a5,0(sp)
   164b0:    bf91                j       0x16404
   164b2:    0741                addi    a4,a4,16
   164b4:    01acb023            sd      s10,0(s9)
   164b8:    010cb423            sd      a6,8(s9)
   164bc:    ea3a                sd      a4,272(sp)
   164be:    10d12423            sw      a3,264(sp)
   164c2:    00cddd63            bge     s11,a2,0x164dc
   164c6:    0210                addi    a2,sp,256
   164c8:    85ce                mv      a1,s3
   164ca:    854a                mv      a0,s2
   164cc:    f8be                sd      a5,112(sp)
   164ce:    195040ef            jal     ra,0x1ae62
   164d2:    20051a63            bnez    a0,0x166e6
   164d6:    77c6                ld      a5,112(sp)
   164d8:    030c                addi    a1,sp,384
   164da:    4841                li      a6,16
   164dc:    37c1                addiw   a5,a5,-16
   164de:    8cae                mv      s9,a1
   164e0:    10812683            lw      a3,264(sp)
   164e4:    6752                ld      a4,272(sp)
   164e6:    010c8593            addi    a1,s9,16
   164ea:    0016861b            addiw   a2,a3,1
   164ee:    86b2                mv      a3,a2
   164f0:    fcf841e3            blt     a6,a5,0x164b2
   164f4:    00fcb423            sd      a5,8(s9)
   164f8:    97ba                add     a5,a5,a4
   164fa:    01acb023            sd      s10,0(s9)
   164fe:    ea3e                sd      a5,272(sp)
   16500:    10c12423            sw      a2,264(sp)
   16504:    8cae                mv      s9,a1
   16506:    f8cddce3            bge     s11,a2,0x1649e
   1650a:    0210                addi    a2,sp,256
   1650c:    85ce                mv      a1,s3
   1650e:    854a                mv      a0,s2
   16510:    153040ef            jal     ra,0x1ae62
   16514:    1c051963            bnez    a0,0x166e6
   16518:    18010c93            addi    s9,sp,384
   1651c:    b749                j       0x1649e
   1651e:    07c1                addi    a5,a5,16
   16520:    018cb423            sd      s8,8(s9)
   16524:    ea3e                sd      a5,272(sp)
   16526:    10e12423            sw      a4,264(sp)
   1652a:    00dd5a63            bge     s10,a3,0x1653e
   1652e:    0210                addi    a2,sp,256
   16530:    85ce                mv      a1,s3
   16532:    854a                mv      a0,s2
   16534:    12f040ef            jal     ra,0x1ae62
   16538:    1a051763            bnez    a0,0x166e6
   1653c:    0310                addi    a2,sp,384
   1653e:    34c1                addiw   s1,s1,-16
   16540:    8cb2                mv      s9,a2
   16542:    bd81                j       0x16392
   16544:    10812783            lw      a5,264(sp)
   16548:    4605                li      a2,1
   1654a:    009cb023            sd      s1,0(s9)
   1654e:    0017869b            addiw   a3,a5,1
   16552:    0705                addi    a4,a4,1
   16554:    87b6                mv      a5,a3
   16556:    010c8c13            addi    s8,s9,16
   1655a:    01464663            blt     a2,s4,0x16566
   1655e:    00147593            andi    a1,s0,1
   16562:    12058663            beqz    a1,0x1668e
   16566:    4605                li      a2,1
   16568:    10f12423            sw      a5,264(sp)
   1656c:    00ccb423            sd      a2,8(s9)
   16570:    ea3a                sd      a4,272(sp)
   16572:    479d                li      a5,7
   16574:    00d7da63            bge     a5,a3,0x16588
   16578:    0210                addi    a2,sp,256
   1657a:    85ce                mv      a1,s3
   1657c:    854a                mv      a0,s2
   1657e:    0e5040ef            jal     ra,0x1ae62
   16582:    16051263            bnez    a0,0x166e6
   16586:    8c56                mv      s8,s5
   16588:    67a6                ld      a5,72(sp)
   1658a:    6762                ld      a4,24(sp)
   1658c:    0c41                addi    s8,s8,16
   1658e:    fefc3823            sd      a5,-16(s8)
   16592:    67e2                ld      a5,24(sp)
   16594:    fefc3c23            sd      a5,-8(s8)
   16598:    67d2                ld      a5,272(sp)
   1659a:    97ba                add     a5,a5,a4
   1659c:    ea3e                sd      a5,272(sp)
   1659e:    10812783            lw      a5,264(sp)
   165a2:    0017871b            addiw   a4,a5,1
   165a6:    10e12423            sw      a4,264(sp)
   165aa:    479d                li      a5,7
   165ac:    00e7da63            bge     a5,a4,0x165c0
   165b0:    0210                addi    a2,sp,256
   165b2:    85ce                mv      a1,s3
   165b4:    854a                mv      a0,s2
   165b6:    0ad040ef            jal     ra,0x1ae62
   165ba:    12051663            bnez    a0,0x166e6
   165be:    8c56                mv      s8,s5
   165c0:    754e                ld      a0,240(sp)
   165c2:    75ee                ld      a1,248(sp)
   165c4:    4601                li      a2,0
   165c6:    4681                li      a3,0
   165c8:    fffa0b1b            addiw   s6,s4,-1
   165cc:    500050ef            jal     ra,0x1bacc
   165d0:    c12d                beqz    a0,0x16632
   165d2:    10812703            lw      a4,264(sp)
   165d6:    67d2                ld      a5,272(sp)
   165d8:    0485                addi    s1,s1,1
   165da:    0017069b            addiw   a3,a4,1
   165de:    97da                add     a5,a5,s6
   165e0:    009c3023            sd      s1,0(s8)
   165e4:    016c3423            sd      s6,8(s8)
   165e8:    ea3e                sd      a5,272(sp)
   165ea:    10d12423            sw      a3,264(sp)
   165ee:    479d                li      a5,7
   165f0:    0c41                addi    s8,s8,16
   165f2:    00d7d963            bge     a5,a3,0x16604
   165f6:    0210                addi    a2,sp,256
   165f8:    85ce                mv      a1,s3
   165fa:    854a                mv      a0,s2
   165fc:    067040ef            jal     ra,0x1ae62
   16600:    e17d                bnez    a0,0x166e6
   16602:    8c56                mv      s8,s5
   16604:    119c                addi    a5,sp,224
   16606:    00fc3023            sd      a5,0(s8)
   1660a:    67e6                ld      a5,88(sp)
   1660c:    6766                ld      a4,88(sp)
   1660e:    010c0c93            addi    s9,s8,16
   16612:    00fc3423            sd      a5,8(s8)
   16616:    67d2                ld      a5,272(sp)
   16618:    97ba                add     a5,a5,a4
   1661a:    ea3e                sd      a5,272(sp)
   1661c:    10812783            lw      a5,264(sp)
   16620:    0017871b            addiw   a4,a5,1
   16624:    10e12423            sw      a4,264(sp)
   16628:    479d                li      a5,7
   1662a:    a6e7dbe3            bge     a5,a4,0x160a0
   1662e:    84eff06f            j       0x1567c
   16632:    fd6059e3            blez    s6,0x16604
   16636:    64f5                lui     s1,0x1d
   16638:    4d41                li      s10,16
   1663a:    2e848493            addi    s1,s1,744 # 0x1d2e8
   1663e:    4c9d                li      s9,7
   16640:    10812703            lw      a4,264(sp)
   16644:    009c3023            sd      s1,0(s8)
   16648:    67d2                ld      a5,272(sp)
   1664a:    0017069b            addiw   a3,a4,1
   1664e:    8736                mv      a4,a3
   16650:    010c0613            addi    a2,s8,16
   16654:    016d4b63            blt     s10,s6,0x1666a
   16658:    97da                add     a5,a5,s6
   1665a:    016c3423            sd      s6,8(s8)
   1665e:    ea3e                sd      a5,272(sp)
   16660:    10d12423            sw      a3,264(sp)
   16664:    479d                li      a5,7
   16666:    8c32                mv      s8,a2
   16668:    b769                j       0x165f2
   1666a:    07c1                addi    a5,a5,16
   1666c:    01ac3423            sd      s10,8(s8)
   16670:    ea3e                sd      a5,272(sp)
   16672:    10e12423            sw      a4,264(sp)
   16676:    00dcd963            bge     s9,a3,0x16688
   1667a:    0210                addi    a2,sp,256
   1667c:    85ce                mv      a1,s3
   1667e:    854a                mv      a0,s2
   16680:    7e2040ef            jal     ra,0x1ae62
   16684:    e12d                bnez    a0,0x166e6
   16686:    8656                mv      a2,s5
   16688:    3b41                addiw   s6,s6,-16
   1668a:    8c32                mv      s8,a2
   1668c:    bf55                j       0x16640
   1668e:    00ccb423            sd      a2,8(s9)
   16692:    ea3a                sd      a4,272(sp)
   16694:    10d12423            sw      a3,264(sp)
   16698:    479d                li      a5,7
   1669a:    bfa1                j       0x165f2
   1669c:    7782                ld      a5,32(sp)
   1669e:    7762                ld      a4,56(sp)
   166a0:    40e7843b            subw    s0,a5,a4
   166a4:    a08051e3            blez    s0,0x160a6
   166a8:    64f5                lui     s1,0x1d
   166aa:    4b41                li      s6,16
   166ac:    2d848493            addi    s1,s1,728 # 0x1d2d8
   166b0:    4c1d                li      s8,7
   166b2:    10812703            lw      a4,264(sp)
   166b6:    009cb023            sd      s1,0(s9)
   166ba:    67d2                ld      a5,272(sp)
   166bc:    0017069b            addiw   a3,a4,1
   166c0:    8736                mv      a4,a3
   166c2:    028b4a63            blt     s6,s0,0x166f6
   166c6:    008cb423            sd      s0,8(s9)
   166ca:    943e                add     s0,s0,a5
   166cc:    ea22                sd      s0,272(sp)
   166ce:    10d12423            sw      a3,264(sp)
   166d2:    479d                li      a5,7
   166d4:    9cd7d9e3            bge     a5,a3,0x160a6
   166d8:    0210                addi    a2,sp,256
   166da:    85ce                mv      a1,s3
   166dc:    854a                mv      a0,s2
   166de:    784040ef            jal     ra,0x1ae62
   166e2:    9c0502e3            beqz    a0,0x160a6
   166e6:    900b8f63            beqz    s7,0x15804
   166ea:    85de                mv      a1,s7
   166ec:    854a                mv      a0,s2
   166ee:    67a000ef            jal     ra,0x16d68
   166f2:    912ff06f            j       0x15804
   166f6:    07c1                addi    a5,a5,16
   166f8:    016cb423            sd      s6,8(s9)
   166fc:    ea3e                sd      a5,272(sp)
   166fe:    10e12423            sw      a4,264(sp)
   16702:    0cc1                addi    s9,s9,16
   16704:    00dc5963            bge     s8,a3,0x16716
   16708:    0210                addi    a2,sp,256
   1670a:    85ce                mv      a1,s3
   1670c:    854a                mv      a0,s2
   1670e:    754040ef            jal     ra,0x1ae62
   16712:    f971                bnez    a0,0x166e6
   16714:    8cd6                mv      s9,s5
   16716:    3441                addiw   s0,s0,-16
   16718:    bf69                j       0x166b2
   1671a:    85de                mv      a1,s7
   1671c:    854a                mv      a0,s2
   1671e:    64a000ef            jal     ra,0x16d68
   16722:    ba45                j       0x160d2
   16724:    67d2                ld      a5,272(sp)
   16726:    8c078f63            beqz    a5,0x15804
   1672a:    0210                addi    a2,sp,256
   1672c:    85ce                mv      a1,s3
   1672e:    854a                mv      a0,s2
   16730:    732040ef            jal     ra,0x1ae62
   16734:    8d0ff06f            j       0x15804
   16738:    57fd                li      a5,-1
   1673a:    ecfd9c63            bne     s11,a5,0x15e12
   1673e:    47a5                li      a5,9
   16740:    f377e763            bltu    a5,s7,0x15e6e
   16744:    030b8b9b            addiw   s7,s7,48
   16748:    17710da3            sb      s7,379(sp)
   1674c:    17b10493            addi    s1,sp,379
   16750:    f04ff06f            j       0x15e54
   16754:    7179                addi    sp,sp,-48
   16756:    f022                sd      s0,32(sp)
   16758:    842e                mv      s0,a1
   1675a:    6dac                ld      a1,88(a1)
   1675c:    f406                sd      ra,40(sp)
   1675e:    ec26                sd      s1,24(sp)
   16760:    e84a                sd      s2,16(sp)
   16762:    e44e                sd      s3,8(sp)
   16764:    e052                sd      s4,0(sp)
   16766:    07440793            addi    a5,s0,116
   1676a:    04f59563            bne     a1,a5,0x167b4
   1676e:    40000593            li      a1,1024
   16772:    decfc0ef            jal     ra,0x12d5e
   16776:    e911                bnez    a0,0x1678a
   16778:    557d                li      a0,-1
   1677a:    70a2                ld      ra,40(sp)
   1677c:    7402                ld      s0,32(sp)
   1677e:    64e2                ld      s1,24(sp)
   16780:    6942                ld      s2,16(sp)
   16782:    69a2                ld      s3,8(sp)
   16784:    6a02                ld      s4,0(sp)
   16786:    6145                addi    sp,sp,48
   16788:    8082                ret

   1678a:    40000793            li      a5,1024
   1678e:    d03c                sw      a5,96(s0)
   16790:    07644783            lbu     a5,118(s0)
   16794:    ec28                sd      a0,88(s0)
   16796:    3fd50513            addi    a0,a0,1021
   1679a:    00f50123            sb      a5,2(a0)
   1679e:    07544783            lbu     a5,117(s0)
   167a2:    00f500a3            sb      a5,1(a0)
   167a6:    07444783            lbu     a5,116(s0)
   167aa:    00f50023            sb      a5,0(a0)
   167ae:    e008                sd      a0,0(s0)
   167b0:    4501                li      a0,0
   167b2:    b7e1                j       0x1677a
   167b4:    06042903            lw      s2,96(s0)
   167b8:    0019161b            slliw   a2,s2,0x1
   167bc:    89b2                mv      s3,a2
   167be:    c6dfc0ef            jal     ra,0x1342a
   167c2:    84aa                mv      s1,a0
   167c4:    d955                beqz    a0,0x16778
   167c6:    01250a33            add     s4,a0,s2
   167ca:    85aa                mv      a1,a0
   167cc:    864a                mv      a2,s2
   167ce:    8552                mv      a0,s4
   167d0:    b4bfc0ef            jal     ra,0x1331a
   167d4:    01443023            sd      s4,0(s0)
   167d8:    ec24                sd      s1,88(s0)
   167da:    07342023            sw      s3,96(s0)
   167de:    bfc9                j       0x167b0
   167e0:    7179                addi    sp,sp,-48
   167e2:    f406                sd      ra,40(sp)
   167e4:    f022                sd      s0,32(sp)
   167e6:    ec26                sd      s1,24(sp)
   167e8:    e84a                sd      s2,16(sp)
   167ea:    e44e                sd      s3,8(sp)
   167ec:    57fd                li      a5,-1
   167ee:    00f59b63            bne     a1,a5,0x16804
   167f2:    54fd                li      s1,-1
   167f4:    70a2                ld      ra,40(sp)
   167f6:    7402                ld      s0,32(sp)
   167f8:    8526                mv      a0,s1
   167fa:    6942                ld      s2,16(sp)
   167fc:    64e2                ld      s1,24(sp)
   167fe:    69a2                ld      s3,8(sp)
   16800:    6145                addi    sp,sp,48
   16802:    8082                ret

   16804:    892a                mv      s2,a0
   16806:    8432                mv      s0,a2
   16808:    84ae                mv      s1,a1
   1680a:    c509                beqz    a0,0x16814
   1680c:    493c                lw      a5,80(a0)
   1680e:    e399                bnez    a5,0x16814
   16810:    ea9fb0ef            jal     ra,0x126b8
   16814:    01041783            lh      a5,16(s0)
   16818:    03279713            slli    a4,a5,0x32
   1681c:    00074d63            bltz    a4,0x16836
   16820:    6689                lui     a3,0x2
   16822:    0ac42703            lw      a4,172(s0)
   16826:    8fd5                or      a5,a5,a3
   16828:    00f41823            sh      a5,16(s0)
   1682c:    77f9                lui     a5,0xffffe
   1682e:    17fd                addi    a5,a5,-1
   16830:    8ff9                and     a5,a5,a4
   16832:    0af42623            sw      a5,172(s0)
   16836:    01041783            lh      a5,16(s0)
   1683a:    fdf7f793            andi    a5,a5,-33
   1683e:    00f41823            sh      a5,16(s0)
   16842:    17c2                slli    a5,a5,0x30
   16844:    93c1                srli    a5,a5,0x30
   16846:    0047f713            andi    a4,a5,4
   1684a:    eb15                bnez    a4,0x1687e
   1684c:    0107f713            andi    a4,a5,16
   16850:    d34d                beqz    a4,0x167f2
   16852:    8ba1                andi    a5,a5,8
   16854:    cf99                beqz    a5,0x16872
   16856:    85a2                mv      a1,s0
   16858:    854a                mv      a0,s2
   1685a:    404000ef            jal     ra,0x16c5e
   1685e:    f951                bnez    a0,0x167f2
   16860:    01045783            lhu     a5,16(s0)
   16864:    00042623            sw      zero,12(s0)
   16868:    02042423            sw      zero,40(s0)
   1686c:    9bdd                andi    a5,a5,-9
   1686e:    00f41823            sh      a5,16(s0)
   16872:    01045783            lhu     a5,16(s0)
   16876:    0047e793            ori     a5,a5,4
   1687a:    00f41823            sh      a5,16(s0)
   1687e:    6c3c                ld      a5,88(s0)
   16880:    0ff4f993            andi    s3,s1,255
   16884:    84ce                mv      s1,s3
   16886:    4418                lw      a4,8(s0)
   16888:    c785                beqz    a5,0x168b0
   1688a:    503c                lw      a5,96(s0)
   1688c:    00f75c63            bge     a4,a5,0x168a4
   16890:    601c                ld      a5,0(s0)
   16892:    fff78713            addi    a4,a5,-1 # 0xffffffffffffdfff
   16896:    e018                sd      a4,0(s0)
   16898:    ff378fa3            sb      s3,-1(a5)
   1689c:    441c                lw      a5,8(s0)
   1689e:    2785                addiw   a5,a5,1
   168a0:    c41c                sw      a5,8(s0)
   168a2:    bf89                j       0x167f4
   168a4:    85a2                mv      a1,s0
   168a6:    854a                mv      a0,s2
   168a8:    eadff0ef            jal     ra,0x16754
   168ac:    d175                beqz    a0,0x16890
   168ae:    b791                j       0x167f2
   168b0:    6c14                ld      a3,24(s0)
   168b2:    601c                ld      a5,0(s0)
   168b4:    ce81                beqz    a3,0x168cc
   168b6:    00f6fb63            bgeu    a3,a5,0x168cc
   168ba:    fff7c683            lbu     a3,-1(a5)
   168be:    01369763            bne     a3,s3,0x168cc
   168c2:    17fd                addi    a5,a5,-1
   168c4:    2705                addiw   a4,a4,1
   168c6:    e01c                sd      a5,0(s0)
   168c8:    c418                sw      a4,8(s0)
   168ca:    b72d                j       0x167f4
   168cc:    f43c                sd      a5,104(s0)
   168ce:    07440793            addi    a5,s0,116
   168d2:    ec3c                sd      a5,88(s0)
   168d4:    478d                li      a5,3
   168d6:    d03c                sw      a5,96(s0)
   168d8:    07640793            addi    a5,s0,118
   168dc:    e01c                sd      a5,0(s0)
   168de:    d838                sw      a4,112(s0)
   168e0:    07340b23            sb      s3,118(s0)
   168e4:    4785                li      a5,1
   168e6:    bf6d                j       0x168a0
   168e8:    862e                mv      a2,a1
   168ea:    85aa                mv      a1,a0
   168ec:    8781b503            ld      a0,-1928(gp)
   168f0:    ef1ff06f            j       0x167e0
   168f4:    8781b783            ld      a5,-1928(gp)
   168f8:    67bc                ld      a5,72(a5)
   168fa:    e789                bnez    a5,0x16904
   168fc:    0001f7b7            lui     a5,0x1f
   16900:    36878793            addi    a5,a5,872 # 0x1f368
   16904:    0e07b303            ld      t1,224(a5)
   16908:    8302                jr      t1
   1690a:    0006071b            sext.w  a4,a2
   1690e:    cd91                beqz    a1,0x1692a
   16910:    0ff00793            li      a5,255
   16914:    00e7f763            bgeu    a5,a4,0x16922
   16918:    08a00793            li      a5,138
   1691c:    c11c                sw      a5,0(a0)
   1691e:    557d                li      a0,-1
   16920:    8082                ret

   16922:    00c58023            sb      a2,0(a1)
   16926:    4505                li      a0,1
   16928:    8082                ret

   1692a:    4501                li      a0,0
   1692c:    8082                ret

   1692e:    1101                addi    sp,sp,-32
   16930:    e822                sd      s0,16(sp)
   16932:    e426                sd      s1,8(sp)
   16934:    84aa                mv      s1,a0
   16936:    852e                mv      a0,a1
   16938:    85b2                mv      a1,a2
   1693a:    8636                mv      a2,a3
   1693c:    ec06                sd      ra,24(sp)
   1693e:    9001ac23            sw      zero,-1768(gp)
   16942:    118050ef            jal     ra,0x1ba5a
   16946:    57fd                li      a5,-1
   16948:    00f51663            bne     a0,a5,0x16954
   1694c:    9181a783            lw      a5,-1768(gp)
   16950:    c391                beqz    a5,0x16954
   16952:    c09c                sw      a5,0(s1)
   16954:    60e2                ld      ra,24(sp)
   16956:    6442                ld      s0,16(sp)
   16958:    64a2                ld      s1,8(sp)
   1695a:    6105                addi    sp,sp,32
   1695c:    8082                ret

   1695e:    1101                addi    sp,sp,-32
   16960:    e426                sd      s1,8(sp)
   16962:    84aa                mv      s1,a0
   16964:    8781b503            ld      a0,-1928(gp)
   16968:    e822                sd      s0,16(sp)
   1696a:    ec06                sd      ra,24(sp)
   1696c:    842e                mv      s0,a1
   1696e:    c509                beqz    a0,0x16978
   16970:    493c                lw      a5,80(a0)
   16972:    e399                bnez    a5,0x16978
   16974:    d45fb0ef            jal     ra,0x126b8
   16978:    01041703            lh      a4,16(s0)
   1697c:    03071793            slli    a5,a4,0x30
   16980:    93c1                srli    a5,a5,0x30
   16982:    0087f693            andi    a3,a5,8
   16986:    eea9                bnez    a3,0x169e0
   16988:    0107f693            andi    a3,a5,16
   1698c:    ee89                bnez    a3,0x169a6
   1698e:    47a5                li      a5,9
   16990:    c09c                sw      a5,0(s1)
   16992:    04076713            ori     a4,a4,64
   16996:    00e41823            sh      a4,16(s0)
   1699a:    557d                li      a0,-1
   1699c:    60e2                ld      ra,24(sp)
   1699e:    6442                ld      s0,16(sp)
   169a0:    64a2                ld      s1,8(sp)
   169a2:    6105                addi    sp,sp,32
   169a4:    8082                ret

   169a6:    8b91                andi    a5,a5,4
   169a8:    c795                beqz    a5,0x169d4
   169aa:    6c2c                ld      a1,88(s0)
   169ac:    c991                beqz    a1,0x169c0
   169ae:    07440793            addi    a5,s0,116
   169b2:    00f58563            beq     a1,a5,0x169bc
   169b6:    8526                mv      a0,s1
   169b8:    3b0000ef            jal     ra,0x16d68
   169bc:    04043c23            sd      zero,88(s0)
   169c0:    01045783            lhu     a5,16(s0)
   169c4:    00042423            sw      zero,8(s0)
   169c8:    fdb7f793            andi    a5,a5,-37
   169cc:    00f41823            sh      a5,16(s0)
   169d0:    6c1c                ld      a5,24(s0)
   169d2:    e01c                sd      a5,0(s0)
   169d4:    01045783            lhu     a5,16(s0)
   169d8:    0087e793            ori     a5,a5,8
   169dc:    00f41823            sh      a5,16(s0)
   169e0:    6c1c                ld      a5,24(s0)
   169e2:    ef89                bnez    a5,0x169fc
   169e4:    01045783            lhu     a5,16(s0)
   169e8:    20000713            li      a4,512
   169ec:    2807f793            andi    a5,a5,640
   169f0:    00e78663            beq     a5,a4,0x169fc
   169f4:    85a2                mv      a1,s0
   169f6:    8526                mv      a0,s1
   169f8:    3e8020ef            jal     ra,0x18de0
   169fc:    01045783            lhu     a5,16(s0)
   16a00:    0017f713            andi    a4,a5,1
   16a04:    c705                beqz    a4,0x16a2c
   16a06:    501c                lw      a5,32(s0)
   16a08:    00042623            sw      zero,12(s0)
   16a0c:    40f007bb            negw    a5,a5
   16a10:    d41c                sw      a5,40(s0)
   16a12:    6c1c                ld      a5,24(s0)
   16a14:    4501                li      a0,0
   16a16:    f3d9                bnez    a5,0x1699c
   16a18:    01041783            lh      a5,16(s0)
   16a1c:    0807f713            andi    a4,a5,128
   16a20:    df35                beqz    a4,0x1699c
   16a22:    0407e793            ori     a5,a5,64
   16a26:    00f41823            sh      a5,16(s0)
   16a2a:    bf85                j       0x1699a
   16a2c:    8b89                andi    a5,a5,2
   16a2e:    4701                li      a4,0
   16a30:    e391                bnez    a5,0x16a34
   16a32:    5018                lw      a4,32(s0)
   16a34:    c458                sw      a4,12(s0)
   16a36:    bff1                j       0x16a12
   16a38:    1101                addi    sp,sp,-32
   16a3a:    e822                sd      s0,16(sp)
   16a3c:    e426                sd      s1,8(sp)
   16a3e:    84aa                mv      s1,a0
   16a40:    852e                mv      a0,a1
   16a42:    ec06                sd      ra,24(sp)
   16a44:    9001ac23            sw      zero,-1768(gp)
   16a48:    667040ef            jal     ra,0x1b8ae
   16a4c:    57fd                li      a5,-1
   16a4e:    00f51663            bne     a0,a5,0x16a5a
   16a52:    9181a783            lw      a5,-1768(gp)
   16a56:    c391                beqz    a5,0x16a5a
   16a58:    c09c                sw      a5,0(s1)
   16a5a:    60e2                ld      ra,24(sp)
   16a5c:    6442                ld      s0,16(sp)
   16a5e:    64a2                ld      s1,8(sp)
   16a60:    6105                addi    sp,sp,32
   16a62:    8082                ret

   16a64:    1101                addi    sp,sp,-32
   16a66:    ec06                sd      ra,24(sp)
   16a68:    e822                sd      s0,16(sp)
   16a6a:    e426                sd      s1,8(sp)
   16a6c:    e04a                sd      s2,0(sp)
   16a6e:    e989                bnez    a1,0x16a80
   16a70:    4901                li      s2,0
   16a72:    60e2                ld      ra,24(sp)
   16a74:    6442                ld      s0,16(sp)
   16a76:    854a                mv      a0,s2
   16a78:    64a2                ld      s1,8(sp)
   16a7a:    6902                ld      s2,0(sp)
   16a7c:    6105                addi    sp,sp,32
   16a7e:    8082                ret

   16a80:    84aa                mv      s1,a0
   16a82:    842e                mv      s0,a1
   16a84:    c509                beqz    a0,0x16a8e
   16a86:    493c                lw      a5,80(a0)
   16a88:    e399                bnez    a5,0x16a8e
   16a8a:    c2ffb0ef            jal     ra,0x126b8
   16a8e:    01041783            lh      a5,16(s0)
   16a92:    dff9                beqz    a5,0x16a70
   16a94:    85a2                mv      a1,s0
   16a96:    8526                mv      a0,s1
   16a98:    064000ef            jal     ra,0x16afc
   16a9c:    683c                ld      a5,80(s0)
   16a9e:    892a                mv      s2,a0
   16aa0:    c799                beqz    a5,0x16aae
   16aa2:    780c                ld      a1,48(s0)
   16aa4:    8526                mv      a0,s1
   16aa6:    9782                jalr    a5
   16aa8:    00055363            bgez    a0,0x16aae
   16aac:    597d                li      s2,-1
   16aae:    01045783            lhu     a5,16(s0)
   16ab2:    0807f793            andi    a5,a5,128
   16ab6:    c789                beqz    a5,0x16ac0
   16ab8:    6c0c                ld      a1,24(s0)
   16aba:    8526                mv      a0,s1
   16abc:    2ac000ef            jal     ra,0x16d68
   16ac0:    6c2c                ld      a1,88(s0)
   16ac2:    c991                beqz    a1,0x16ad6
   16ac4:    07440793            addi    a5,s0,116
   16ac8:    00f58563            beq     a1,a5,0x16ad2
   16acc:    8526                mv      a0,s1
   16ace:    29a000ef            jal     ra,0x16d68
   16ad2:    04043c23            sd      zero,88(s0)
   16ad6:    7c2c                ld      a1,120(s0)
   16ad8:    c591                beqz    a1,0x16ae4
   16ada:    8526                mv      a0,s1
   16adc:    28c000ef            jal     ra,0x16d68
   16ae0:    06043c23            sd      zero,120(s0)
   16ae4:    cc3fb0ef            jal     ra,0x127a6
   16ae8:    00041823            sh      zero,16(s0)
   16aec:    cbdfb0ef            jal     ra,0x127a8
   16af0:    b749                j       0x16a72
   16af2:    85aa                mv      a1,a0
   16af4:    8781b503            ld      a0,-1928(gp)
   16af8:    f6dff06f            j       0x16a64
   16afc:    01059783            lh      a5,16(a1)
   16b00:    7179                addi    sp,sp,-48
   16b02:    f022                sd      s0,32(sp)
   16b04:    03079713            slli    a4,a5,0x30
   16b08:    9341                srli    a4,a4,0x30
   16b0a:    ec26                sd      s1,24(sp)
   16b0c:    f406                sd      ra,40(sp)
   16b0e:    e84a                sd      s2,16(sp)
   16b10:    e44e                sd      s3,8(sp)
   16b12:    00877693            andi    a3,a4,8
   16b16:    84aa                mv      s1,a0
   16b18:    842e                mv      s0,a1
   16b1a:    10069063            bnez    a3,0x16c1a
   16b1e:    6705                lui     a4,0x1
   16b20:    80070713            addi    a4,a4,-2048 # 0x800
   16b24:    8fd9                or      a5,a5,a4
   16b26:    4598                lw      a4,8(a1)
   16b28:    00f59823            sh      a5,16(a1)
   16b2c:    00e04d63            bgtz    a4,0x16b46
   16b30:    59b8                lw      a4,112(a1)
   16b32:    00e04a63            bgtz    a4,0x16b46
   16b36:    4501                li      a0,0
   16b38:    70a2                ld      ra,40(sp)
   16b3a:    7402                ld      s0,32(sp)
   16b3c:    64e2                ld      s1,24(sp)
   16b3e:    6942                ld      s2,16(sp)
   16b40:    69a2                ld      s3,8(sp)
   16b42:    6145                addi    sp,sp,48
   16b44:    8082                ret

   16b46:    6438                ld      a4,72(s0)
   16b48:    d77d                beqz    a4,0x16b36
   16b4a:    0004a903            lw      s2,0(s1)
   16b4e:    03379693            slli    a3,a5,0x33
   16b52:    0004a023            sw      zero,0(s1)
   16b56:    0806d863            bgez    a3,0x16be6
   16b5a:    6850                ld      a2,144(s0)
   16b5c:    01045783            lhu     a5,16(s0)
   16b60:    8b91                andi    a5,a5,4
   16b62:    c799                beqz    a5,0x16b70
   16b64:    441c                lw      a5,8(s0)
   16b66:    8e1d                sub     a2,a2,a5
   16b68:    6c3c                ld      a5,88(s0)
   16b6a:    c399                beqz    a5,0x16b70
   16b6c:    583c                lw      a5,112(s0)
   16b6e:    8e1d                sub     a2,a2,a5
   16b70:    643c                ld      a5,72(s0)
   16b72:    780c                ld      a1,48(s0)
   16b74:    4681                li      a3,0
   16b76:    8526                mv      a0,s1
   16b78:    9782                jalr    a5
   16b7a:    57fd                li      a5,-1
   16b7c:    01045683            lhu     a3,16(s0)
   16b80:    00f51d63            bne     a0,a5,0x16b9a
   16b84:    409c                lw      a5,0(s1)
   16b86:    4775                li      a4,29
   16b88:    08f76363            bltu    a4,a5,0x16c0e
   16b8c:    20400737            lui     a4,0x20400
   16b90:    0705                addi    a4,a4,1
   16b92:    00f75733            srl     a4,a4,a5
   16b96:    8b05                andi    a4,a4,1
   16b98:    cb3d                beqz    a4,0x16c0e
   16b9a:    77fd                lui     a5,0xfffff
   16b9c:    7ff78793            addi    a5,a5,2047 # 0xfffffffffffff7ff
   16ba0:    6c18                ld      a4,24(s0)
   16ba2:    8ff5                and     a5,a5,a3
   16ba4:    0107979b            slliw   a5,a5,0x10
   16ba8:    4107d79b            sraiw   a5,a5,0x10
   16bac:    e018                sd      a4,0(s0)
   16bae:    00f41823            sh      a5,16(s0)
   16bb2:    00042423            sw      zero,8(s0)
   16bb6:    03379713            slli    a4,a5,0x33
   16bba:    00075863            bgez    a4,0x16bca
   16bbe:    57fd                li      a5,-1
   16bc0:    00f51463            bne     a0,a5,0x16bc8
   16bc4:    409c                lw      a5,0(s1)
   16bc6:    e391                bnez    a5,0x16bca
   16bc8:    e848                sd      a0,144(s0)
   16bca:    6c2c                ld      a1,88(s0)
   16bcc:    0124a023            sw      s2,0(s1)
   16bd0:    d1bd                beqz    a1,0x16b36
   16bd2:    07440793            addi    a5,s0,116
   16bd6:    00f58563            beq     a1,a5,0x16be0
   16bda:    8526                mv      a0,s1
   16bdc:    18c000ef            jal     ra,0x16d68
   16be0:    04043c23            sd      zero,88(s0)
   16be4:    bf89                j       0x16b36
   16be6:    780c                ld      a1,48(s0)
   16be8:    4601                li      a2,0
   16bea:    4685                li      a3,1
   16bec:    8526                mv      a0,s1
   16bee:    9702                jalr    a4
   16bf0:    57fd                li      a5,-1
   16bf2:    862a                mv      a2,a0
   16bf4:    f6f514e3            bne     a0,a5,0x16b5c
   16bf8:    409c                lw      a5,0(s1)
   16bfa:    d3ad                beqz    a5,0x16b5c
   16bfc:    4775                li      a4,29
   16bfe:    00e78563            beq     a5,a4,0x16c08
   16c02:    4759                li      a4,22
   16c04:    04e79463            bne     a5,a4,0x16c4c
   16c08:    0124a023            sw      s2,0(s1)
   16c0c:    b72d                j       0x16b36
   16c0e:    0406e793            ori     a5,a3,64
   16c12:    00f41823            sh      a5,16(s0)
   16c16:    557d                li      a0,-1
   16c18:    b705                j       0x16b38
   16c1a:    0185b983            ld      s3,24(a1)
   16c1e:    f0098ce3            beqz    s3,0x16b36
   16c22:    0005b903            ld      s2,0(a1)
   16c26:    8b0d                andi    a4,a4,3
   16c28:    0135b023            sd      s3,0(a1)
   16c2c:    4139093b            subw    s2,s2,s3
   16c30:    4781                li      a5,0
   16c32:    e311                bnez    a4,0x16c36
   16c34:    519c                lw      a5,32(a1)
   16c36:    c45c                sw      a5,12(s0)
   16c38:    ef205fe3            blez    s2,0x16b36
   16c3c:    603c                ld      a5,64(s0)
   16c3e:    780c                ld      a1,48(s0)
   16c40:    86ca                mv      a3,s2
   16c42:    864e                mv      a2,s3
   16c44:    8526                mv      a0,s1
   16c46:    9782                jalr    a5
   16c48:    00a04763            bgtz    a0,0x16c56
   16c4c:    01045783            lhu     a5,16(s0)
   16c50:    0407e793            ori     a5,a5,64
   16c54:    bf7d                j       0x16c12
   16c56:    99aa                add     s3,s3,a0
   16c58:    40a9093b            subw    s2,s2,a0
   16c5c:    bff1                j       0x16c38
   16c5e:    1101                addi    sp,sp,-32
   16c60:    e822                sd      s0,16(sp)
   16c62:    ec06                sd      ra,24(sp)
   16c64:    842a                mv      s0,a0
   16c66:    c519                beqz    a0,0x16c74
   16c68:    493c                lw      a5,80(a0)
   16c6a:    e789                bnez    a5,0x16c74
   16c6c:    e42e                sd      a1,8(sp)
   16c6e:    a4bfb0ef            jal     ra,0x126b8
   16c72:    65a2                ld      a1,8(sp)
   16c74:    01059783            lh      a5,16(a1)
   16c78:    c799                beqz    a5,0x16c86
   16c7a:    8522                mv      a0,s0
   16c7c:    6442                ld      s0,16(sp)
   16c7e:    60e2                ld      ra,24(sp)
   16c80:    6105                addi    sp,sp,32
   16c82:    e7bff06f            j       0x16afc
   16c86:    60e2                ld      ra,24(sp)
   16c88:    6442                ld      s0,16(sp)
   16c8a:    4501                li      a0,0
   16c8c:    6105                addi    sp,sp,32
   16c8e:    8082                ret

   16c90:    85aa                mv      a1,a0
   16c92:    e909                bnez    a0,0x16ca4
   16c94:    8681b503            ld      a0,-1944(gp)
   16c98:    000175b7            lui     a1,0x17
   16c9c:    c5e58593            addi    a1,a1,-930 # 0x16c5e
   16ca0:    f55fb06f            j       0x12bf4
   16ca4:    8781b503            ld      a0,-1928(gp)
   16ca8:    fb7ff06f            j       0x16c5e
   16cac:    7179                addi    sp,sp,-48
   16cae:    e84a                sd      s2,16(sp)
   16cb0:    0001f937            lui     s2,0x1f
   16cb4:    f022                sd      s0,32(sp)
   16cb6:    ec26                sd      s1,24(sp)
   16cb8:    e44e                sd      s3,8(sp)
   16cba:    842e                mv      s0,a1
   16cbc:    f406                sd      ra,40(sp)
   16cbe:    89aa                mv      s3,a0
   16cc0:    51090913            addi    s2,s2,1296 # 0x1f510
   16cc4:    f56fc0ef            jal     ra,0x1341a
   16cc8:    01093783            ld      a5,16(s2)
   16ccc:    6705                lui     a4,0x1
   16cce:    6784                ld      s1,8(a5)
   16cd0:    fdf70793            addi    a5,a4,-33 # 0xfdf
   16cd4:    40878433            sub     s0,a5,s0
   16cd8:    98f1                andi    s1,s1,-4
   16cda:    9426                add     s0,s0,s1
   16cdc:    8031                srli    s0,s0,0xc
   16cde:    147d                addi    s0,s0,-1
   16ce0:    0432                slli    s0,s0,0xc
   16ce2:    00e45d63            bge     s0,a4,0x16cfc
   16ce6:    854e                mv      a0,s3
   16ce8:    f34fc0ef            jal     ra,0x1341c
   16cec:    4501                li      a0,0
   16cee:    70a2                ld      ra,40(sp)
   16cf0:    7402                ld      s0,32(sp)
   16cf2:    64e2                ld      s1,24(sp)
   16cf4:    6942                ld      s2,16(sp)
   16cf6:    69a2                ld      s3,8(sp)
   16cf8:    6145                addi    sp,sp,48
   16cfa:    8082                ret

   16cfc:    4581                li      a1,0
   16cfe:    854e                mv      a0,s3
   16d00:    c51fc0ef            jal     ra,0x13950
   16d04:    01093783            ld      a5,16(s2)
   16d08:    97a6                add     a5,a5,s1
   16d0a:    fcf51ee3            bne     a0,a5,0x16ce6
   16d0e:    408005b3            neg     a1,s0
   16d12:    854e                mv      a0,s3
   16d14:    c3dfc0ef            jal     ra,0x13950
   16d18:    57fd                li      a5,-1
   16d1a:    02f51663            bne     a0,a5,0x16d46
   16d1e:    4581                li      a1,0
   16d20:    854e                mv      a0,s3
   16d22:    c2ffc0ef            jal     ra,0x13950
   16d26:    01093703            ld      a4,16(s2)
   16d2a:    46fd                li      a3,31
   16d2c:    40e507b3            sub     a5,a0,a4
   16d30:    faf6dbe3            bge     a3,a5,0x16ce6
   16d34:    8801b683            ld      a3,-1920(gp)
   16d38:    0017e793            ori     a5,a5,1
   16d3c:    e71c                sd      a5,8(a4)
   16d3e:    8d15                sub     a0,a0,a3
   16d40:    8ea1a823            sw      a0,-1808(gp)
   16d44:    b74d                j       0x16ce6
   16d46:    01093783            ld      a5,16(s2)
   16d4a:    8c81                sub     s1,s1,s0
   16d4c:    0014e493            ori     s1,s1,1
   16d50:    e784                sd      s1,8(a5)
   16d52:    8f01a783            lw      a5,-1808(gp)
   16d56:    854e                mv      a0,s3
   16d58:    4087843b            subw    s0,a5,s0
   16d5c:    8e81a823            sw      s0,-1808(gp)
   16d60:    ebcfc0ef            jal     ra,0x1341c
   16d64:    4505                li      a0,1
   16d66:    b761                j       0x16cee
   16d68:    1a058b63            beqz    a1,0x16f1e
   16d6c:    1101                addi    sp,sp,-32
   16d6e:    e822                sd      s0,16(sp)
   16d70:    e426                sd      s1,8(sp)
   16d72:    842a                mv      s0,a0
   16d74:    84ae                mv      s1,a1
   16d76:    ec06                sd      ra,24(sp)
   16d78:    ea2fc0ef            jal     ra,0x1341a
   16d7c:    ff84b503            ld      a0,-8(s1)
   16d80:    0001f637            lui     a2,0x1f
   16d84:    ff048693            addi    a3,s1,-16
   16d88:    ffe57793            andi    a5,a0,-2
   16d8c:    51060813            addi    a6,a2,1296 # 0x1f510
   16d90:    00f685b3            add     a1,a3,a5
   16d94:    6598                ld      a4,8(a1)
   16d96:    01083803            ld      a6,16(a6)
   16d9a:    51060613            addi    a2,a2,1296
   16d9e:    9b71                andi    a4,a4,-4
   16da0:    8905                andi    a0,a0,1
   16da2:    04b81063            bne     a6,a1,0x16de2
   16da6:    97ba                add     a5,a5,a4
   16da8:    e909                bnez    a0,0x16dba
   16daa:    ff04b703            ld      a4,-16(s1)
   16dae:    8e99                sub     a3,a3,a4
   16db0:    6a8c                ld      a1,16(a3)
   16db2:    97ba                add     a5,a5,a4
   16db4:    6e98                ld      a4,24(a3)
   16db6:    ed98                sd      a4,24(a1)
   16db8:    eb0c                sd      a1,16(a4)
   16dba:    0017e713            ori     a4,a5,1
   16dbe:    e698                sd      a4,8(a3)
   16dc0:    8881b703            ld      a4,-1912(gp)
   16dc4:    ea14                sd      a3,16(a2)
   16dc6:    00e7e763            bltu    a5,a4,0x16dd4
   16dca:    8a81b583            ld      a1,-1880(gp)
   16dce:    8522                mv      a0,s0
   16dd0:    eddff0ef            jal     ra,0x16cac
   16dd4:    8522                mv      a0,s0
   16dd6:    6442                ld      s0,16(sp)
   16dd8:    60e2                ld      ra,24(sp)
   16dda:    64a2                ld      s1,8(sp)
   16ddc:    6105                addi    sp,sp,32
   16dde:    e3efc06f            j       0x1341c
   16de2:    e598                sd      a4,8(a1)
   16de4:    4801                li      a6,0
   16de6:    e115                bnez    a0,0x16e0a
   16de8:    ff04b503            ld      a0,-16(s1)
   16dec:    0001f8b7            lui     a7,0x1f
   16df0:    52088893            addi    a7,a7,1312 # 0x1f520
   16df4:    8e89                sub     a3,a3,a0
   16df6:    97aa                add     a5,a5,a0
   16df8:    6a88                ld      a0,16(a3)
   16dfa:    07150f63            beq     a0,a7,0x16e78
   16dfe:    0186b883            ld      a7,24(a3) # 0x2018
   16e02:    01153c23            sd      a7,24(a0)
   16e06:    00a8b823            sd      a0,16(a7)
   16e0a:    00e58533            add     a0,a1,a4
   16e0e:    6508                ld      a0,8(a0)
   16e10:    8905                andi    a0,a0,1
   16e12:    e105                bnez    a0,0x16e32
   16e14:    97ba                add     a5,a5,a4
   16e16:    6998                ld      a4,16(a1)
   16e18:    06081263            bnez    a6,0x16e7c
   16e1c:    0001f537            lui     a0,0x1f
   16e20:    52050513            addi    a0,a0,1312 # 0x1f520
   16e24:    04a71c63            bne     a4,a0,0x16e7c
   16e28:    f614                sd      a3,40(a2)
   16e2a:    f214                sd      a3,32(a2)
   16e2c:    ee98                sd      a4,24(a3)
   16e2e:    ea98                sd      a4,16(a3)
   16e30:    4805                li      a6,1
   16e32:    0017e713            ori     a4,a5,1
   16e36:    e698                sd      a4,8(a3)
   16e38:    00f68733            add     a4,a3,a5
   16e3c:    e31c                sd      a5,0(a4)
   16e3e:    f8081be3            bnez    a6,0x16dd4
   16e42:    1ff00713            li      a4,511
   16e46:    02f76f63            bltu    a4,a5,0x16e84
   16e4a:    838d                srli    a5,a5,0x3
   16e4c:    2781                sext.w  a5,a5
   16e4e:    4027d59b            sraiw   a1,a5,0x2
   16e52:    4705                li      a4,1
   16e54:    00b71733            sll     a4,a4,a1
   16e58:    2785                addiw   a5,a5,1
   16e5a:    660c                ld      a1,8(a2)
   16e5c:    0017979b            slliw   a5,a5,0x1
   16e60:    078e                slli    a5,a5,0x3
   16e62:    97b2                add     a5,a5,a2
   16e64:    8f4d                or      a4,a4,a1
   16e66:    e618                sd      a4,8(a2)
   16e68:    6398                ld      a4,0(a5)
   16e6a:    ff078613            addi    a2,a5,-16
   16e6e:    ee90                sd      a2,24(a3)
   16e70:    ea98                sd      a4,16(a3)
   16e72:    e394                sd      a3,0(a5)
   16e74:    ef14                sd      a3,24(a4)
   16e76:    bfb9                j       0x16dd4
   16e78:    4805                li      a6,1
   16e7a:    bf41                j       0x16e0a
   16e7c:    6d8c                ld      a1,24(a1)
   16e7e:    ef0c                sd      a1,24(a4)
   16e80:    e998                sd      a4,16(a1)
   16e82:    bf45                j       0x16e32
   16e84:    0097d593            srli    a1,a5,0x9
   16e88:    4711                li      a4,4
   16e8a:    02b76e63            bltu    a4,a1,0x16ec6
   16e8e:    0067d713            srli    a4,a5,0x6
   16e92:    0387071b            addiw   a4,a4,56
   16e96:    0017059b            addiw   a1,a4,1
   16e9a:    0015959b            slliw   a1,a1,0x1
   16e9e:    058e                slli    a1,a1,0x3
   16ea0:    95b2                add     a1,a1,a2
   16ea2:    ff058513            addi    a0,a1,-16
   16ea6:    618c                ld      a1,0(a1)
   16ea8:    06b51563            bne     a0,a1,0x16f12
   16eac:    4785                li      a5,1
   16eae:    4027571b            sraiw   a4,a4,0x2
   16eb2:    00e79733            sll     a4,a5,a4
   16eb6:    661c                ld      a5,8(a2)
   16eb8:    8f5d                or      a4,a4,a5
   16eba:    e618                sd      a4,8(a2)
   16ebc:    ee88                sd      a0,24(a3)
   16ebe:    ea8c                sd      a1,16(a3)
   16ec0:    e914                sd      a3,16(a0)
   16ec2:    ed94                sd      a3,24(a1)
   16ec4:    bf01                j       0x16dd4
   16ec6:    4751                li      a4,20
   16ec8:    00b76563            bltu    a4,a1,0x16ed2
   16ecc:    05b5871b            addiw   a4,a1,91
   16ed0:    b7d9                j       0x16e96
   16ed2:    05400713            li      a4,84
   16ed6:    00b76763            bltu    a4,a1,0x16ee4
   16eda:    00c7d713            srli    a4,a5,0xc
   16ede:    06e7071b            addiw   a4,a4,110
   16ee2:    bf55                j       0x16e96
   16ee4:    15400713            li      a4,340
   16ee8:    00b76763            bltu    a4,a1,0x16ef6
   16eec:    00f7d713            srli    a4,a5,0xf
   16ef0:    0777071b            addiw   a4,a4,119
   16ef4:    b74d                j       0x16e96
   16ef6:    55400513            li      a0,1364
   16efa:    07e00713            li      a4,126
   16efe:    f8b56ce3            bltu    a0,a1,0x16e96
   16f02:    0127d713            srli    a4,a5,0x12
   16f06:    07c7071b            addiw   a4,a4,124
   16f0a:    b771                j       0x16e96
   16f0c:    698c                ld      a1,16(a1)
   16f0e:    00b50663            beq     a0,a1,0x16f1a
   16f12:    6598                ld      a4,8(a1)
   16f14:    9b71                andi    a4,a4,-4
   16f16:    fee7ebe3            bltu    a5,a4,0x16f0c
   16f1a:    6d88                ld      a0,24(a1)
   16f1c:    b745                j       0x16ebc
   16f1e:    8082                ret

   16f20:    4954                lw      a3,20(a0)
   16f22:    01850613            addi    a2,a0,24
   16f26:    4055d713            srai    a4,a1,0x5
   16f2a:    87b2                mv      a5,a2
   16f2c:    02d75663            bge     a4,a3,0x16f58
   16f30:    068a                slli    a3,a3,0x2
   16f32:    070a                slli    a4,a4,0x2
   16f34:    89fd                andi    a1,a1,31
   16f36:    96b2                add     a3,a3,a2
   16f38:    9732                add     a4,a4,a2
   16f3a:    c9b1                beqz    a1,0x16f8e
   16f3c:    00470813            addi    a6,a4,4
   16f40:    4318                lw      a4,0(a4)
   16f42:    02000893            li      a7,32
   16f46:    40b888bb            subw    a7,a7,a1
   16f4a:    00b7573b            srlw    a4,a4,a1
   16f4e:    00d86d63            bltu    a6,a3,0x16f68
   16f52:    c398                sw      a4,0(a5)
   16f54:    c311                beqz    a4,0x16f58
   16f56:    0791                addi    a5,a5,4
   16f58:    8f91                sub     a5,a5,a2
   16f5a:    8789                srai    a5,a5,0x2
   16f5c:    2781                sext.w  a5,a5
   16f5e:    c95c                sw      a5,20(a0)
   16f60:    e399                bnez    a5,0x16f66
   16f62:    00052c23            sw      zero,24(a0)
   16f66:    8082                ret

   16f68:    00082303            lw      t1,0(a6)
   16f6c:    0791                addi    a5,a5,4
   16f6e:    0811                addi    a6,a6,4
   16f70:    0113133b            sllw    t1,t1,a7
   16f74:    00676733            or      a4,a4,t1
   16f78:    fee7ae23            sw      a4,-4(a5)
   16f7c:    ffc82703            lw      a4,-4(a6)
   16f80:    b7e9                j       0x16f4a
   16f82:    0711                addi    a4,a4,4
   16f84:    ffc72583            lw      a1,-4(a4)
   16f88:    0791                addi    a5,a5,4
   16f8a:    feb7ae23            sw      a1,-4(a5)
   16f8e:    fed76ae3            bltu    a4,a3,0x16f82
   16f92:    b7d9                j       0x16f58
   16f94:    fd05079b            addiw   a5,a0,-48
   16f98:    0ff7f793            andi    a5,a5,255
   16f9c:    4725                li      a4,9
   16f9e:    00f76763            bltu    a4,a5,0x16fac
   16fa2:    3501                addiw   a0,a0,-32
   16fa4:    0ff57793            andi    a5,a0,255
   16fa8:    853e                mv      a0,a5
   16faa:    8082                ret

   16fac:    f9f5079b            addiw   a5,a0,-97
   16fb0:    0ff7f793            andi    a5,a5,255
   16fb4:    4695                li      a3,5
   16fb6:    00f6e563            bltu    a3,a5,0x16fc0
   16fba:    fb95051b            addiw   a0,a0,-71
   16fbe:    b7dd                j       0x16fa4
   16fc0:    fbf5071b            addiw   a4,a0,-65
   16fc4:    0ff77713            andi    a4,a4,255
   16fc8:    4781                li      a5,0
   16fca:    fce6efe3            bltu    a3,a4,0x16fa8
   16fce:    fd95051b            addiw   a0,a0,-39
   16fd2:    bfc9                j       0x16fa4
   16fd4:    7171                addi    sp,sp,-176
   16fd6:    fcd6                sd      s5,120(sp)
   16fd8:    8aaa                mv      s5,a0
   16fda:    8542                mv      a0,a6
   16fdc:    e43a                sd      a4,8(sp)
   16fde:    f506                sd      ra,168(sp)
   16fe0:    e94a                sd      s2,144(sp)
   16fe2:    e152                sd      s4,128(sp)
   16fe4:    f8da                sd      s6,112(sp)
   16fe6:    f4de                sd      s7,104(sp)
   16fe8:    8b3e                mv      s6,a5
   16fea:    e8ea                sd      s10,80(sp)
   16fec:    e4ee                sd      s11,72(sp)
   16fee:    8932                mv      s2,a2
   16ff0:    8dae                mv      s11,a1
   16ff2:    e836                sd      a3,16(sp)
   16ff4:    f122                sd      s0,160(sp)
   16ff6:    ed26                sd      s1,152(sp)
   16ff8:    e54e                sd      s3,136(sp)
   16ffa:    f0e2                sd      s8,96(sp)
   16ffc:    ece6                sd      s9,88(sp)
   16ffe:    c93fb0ef            jal     ra,0x12c90
   17002:    00053b83            ld      s7,0(a0)
   17006:    4d01                li      s10,0
   17008:    855e                mv      a0,s7
   1700a:    d22f90ef            jal     ra,0x1052c
   1700e:    00ab87b3            add     a5,s7,a0
   17012:    fff7c783            lbu     a5,-1(a5)
   17016:    8a2a                mv      s4,a0
   17018:    03000713            li      a4,48
   1701c:    ec3e                sd      a5,24(sp)
   1701e:    000db783            ld      a5,0(s11)
   17022:    0789                addi    a5,a5,2
   17024:    84be                mv      s1,a5
   17026:    0785                addi    a5,a5,1
   17028:    fff7c503            lbu     a0,-1(a5)
   1702c:    04e50663            beq     a0,a4,0x17078
   17030:    f65ff0ef            jal     ra,0x16f94
   17034:    12051963            bnez    a0,0x17166
   17038:    8652                mv      a2,s4
   1703a:    85de                mv      a1,s7
   1703c:    8526                mv      a0,s1
   1703e:    1bf020ef            jal     ra,0x199fc
   17042:    842a                mv      s0,a0
   17044:    12051663            bnez    a0,0x17170
   17048:    01448c33            add     s8,s1,s4
   1704c:    000c4503            lbu     a0,0(s8)
   17050:    4985                li      s3,1
   17052:    f43ff0ef            jal     ra,0x16f94
   17056:    c12d                beqz    a0,0x170b8
   17058:    84e2                mv      s1,s8
   1705a:    03000793            li      a5,48
   1705e:    0004c503            lbu     a0,0(s1)
   17062:    00f50d63            beq     a0,a5,0x1707c
   17066:    f2fff0ef            jal     ra,0x16f94
   1706a:    2501                sext.w  a0,a0
   1706c:    00153993            seqz    s3,a0
   17070:    8ce2                mv      s9,s8
   17072:    4d05                li      s10,1
   17074:    8c26                mv      s8,s1
   17076:    a031                j       0x17082
   17078:    2d05                addiw   s10,s10,1
   1707a:    b76d                j       0x17024
   1707c:    0485                addi    s1,s1,1
   1707e:    b7c5                j       0x1705e
   17080:    0c05                addi    s8,s8,1
   17082:    000c4503            lbu     a0,0(s8)
   17086:    f0fff0ef            jal     ra,0x16f94
   1708a:    f97d                bnez    a0,0x17080
   1708c:    8652                mv      a2,s4
   1708e:    85de                mv      a1,s7
   17090:    8562                mv      a0,s8
   17092:    16b020ef            jal     ra,0x199fc
   17096:    e911                bnez    a0,0x170aa
   17098:    000c9c63            bnez    s9,0x170b0
   1709c:    9c52                add     s8,s8,s4
   1709e:    8ce2                mv      s9,s8
   170a0:    000c4503            lbu     a0,0(s8)
   170a4:    ef1ff0ef            jal     ra,0x16f94
   170a8:    e171                bnez    a0,0x1716c
   170aa:    4401                li      s0,0
   170ac:    000c8663            beqz    s9,0x170b8
   170b0:    418c843b            subw    s0,s9,s8
   170b4:    0024141b            slliw   s0,s0,0x2
   170b8:    000c4783            lbu     a5,0(s8)
   170bc:    05000713            li      a4,80
   170c0:    00e78763            beq     a5,a4,0x170ce
   170c4:    07000613            li      a2,112
   170c8:    8ce2                mv      s9,s8
   170ca:    06c79663            bne     a5,a2,0x17136
   170ce:    001c4783            lbu     a5,1(s8)
   170d2:    02b00713            li      a4,43
   170d6:    0ae78163            beq     a5,a4,0x17178
   170da:    02d00713            li      a4,45
   170de:    0ae78163            beq     a5,a4,0x17180
   170e2:    001c0c93            addi    s9,s8,1
   170e6:    4601                li      a2,0
   170e8:    000cc503            lbu     a0,0(s9)
   170ec:    f032                sd      a2,32(sp)
   170ee:    ea7ff0ef            jal     ra,0x16f94
   170f2:    fff5079b            addiw   a5,a0,-1
   170f6:    0ff7f793            andi    a5,a5,255
   170fa:    45e1                li      a1,24
   170fc:    08f5ea63            bltu    a1,a5,0x17190
   17100:    7602                ld      a2,32(sp)
   17102:    ff05079b            addiw   a5,a0,-16
   17106:    48a9                li      a7,10
   17108:    0c85                addi    s9,s9,1
   1710a:    000cc503            lbu     a0,0(s9)
   1710e:    f846                sd      a7,48(sp)
   17110:    f43e                sd      a5,40(sp)
   17112:    f032                sd      a2,32(sp)
   17114:    e81ff0ef            jal     ra,0x16f94
   17118:    0005081b            sext.w  a6,a0
   1711c:    357d                addiw   a0,a0,-1
   1711e:    0ff57513            andi    a0,a0,255
   17122:    45e1                li      a1,24
   17124:    7602                ld      a2,32(sp)
   17126:    77a2                ld      a5,40(sp)
   17128:    78c2                ld      a7,48(sp)
   1712a:    04a5fd63            bgeu    a1,a0,0x17184
   1712e:    c219                beqz    a2,0x17134
   17130:    40f007bb            negw    a5,a5
   17134:    9c3d                addw    s0,s0,a5
   17136:    019db023            sd      s9,0(s11)
   1713a:    04098d63            beqz    s3,0x17194
   1713e:    4481                li      s1,0
   17140:    000d1363            bnez    s10,0x17146
   17144:    4499                li      s1,6
   17146:    70aa                ld      ra,168(sp)
   17148:    740a                ld      s0,160(sp)
   1714a:    8526                mv      a0,s1
   1714c:    694a                ld      s2,144(sp)
   1714e:    64ea                ld      s1,152(sp)
   17150:    69aa                ld      s3,136(sp)
   17152:    6a0a                ld      s4,128(sp)
   17154:    7ae6                ld      s5,120(sp)
   17156:    7b46                ld      s6,112(sp)
   17158:    7ba6                ld      s7,104(sp)
   1715a:    7c06                ld      s8,96(sp)
   1715c:    6ce6                ld      s9,88(sp)
   1715e:    6d46                ld      s10,80(sp)
   17160:    6da6                ld      s11,72(sp)
   17162:    614d                addi    sp,sp,176
   17164:    8082                ret

   17166:    4981                li      s3,0
   17168:    4c81                li      s9,0
   1716a:    b729                j       0x17074
   1716c:    0c05                addi    s8,s8,1
   1716e:    bf0d                j       0x170a0
   17170:    8c26                mv      s8,s1
   17172:    4401                li      s0,0
   17174:    4985                li      s3,1
   17176:    b789                j       0x170b8
   17178:    4601                li      a2,0
   1717a:    002c0c93            addi    s9,s8,2
   1717e:    b7ad                j       0x170e8
   17180:    4605                li      a2,1
   17182:    bfe5                j       0x1717a
   17184:    02f887bb            mulw    a5,a7,a5
   17188:    010787bb            addw    a5,a5,a6
   1718c:    37c1                addiw   a5,a5,-16
   1718e:    bfad                j       0x17108
   17190:    8ce2                mv      s9,s8
   17192:    b755                j       0x17136
   17194:    409c07b3            sub     a5,s8,s1
   17198:    37fd                addiw   a5,a5,-1
   1719a:    4581                li      a1,0
   1719c:    471d                li      a4,7
   1719e:    0af74d63            blt     a4,a5,0x17258
   171a2:    8556                mv      a0,s5
   171a4:    4df010ef            jal     ra,0x18e82
   171a8:    4605                li      a2,1
   171aa:    01850993            addi    s3,a0,24
   171ae:    414607b3            sub     a5,a2,s4
   171b2:    8caa                mv      s9,a0
   171b4:    8d4e                mv      s10,s3
   171b6:    4881                li      a7,0
   171b8:    4d81                li      s11,0
   171ba:    f43e                sd      a5,40(sp)
   171bc:    0b84e163            bltu    s1,s8,0x1725e
   171c0:    004d0513            addi    a0,s10,4
   171c4:    41350533            sub     a0,a0,s3
   171c8:    8509                srai    a0,a0,0x2
   171ca:    2501                sext.w  a0,a0
   171cc:    01bd2023            sw      s11,0(s10)
   171d0:    00acaa23            sw      a0,20(s9)
   171d4:    0055149b            slliw   s1,a0,0x5
   171d8:    856e                mv      a0,s11
   171da:    66d010ef            jal     ra,0x19046
   171de:    00092b83            lw      s7,0(s2)
   171e2:    40a4873b            subw    a4,s1,a0
   171e6:    0eebd063            bge     s7,a4,0x172c6
   171ea:    41770d3b            subw    s10,a4,s7
   171ee:    85ea                mv      a1,s10
   171f0:    8566                mv      a0,s9
   171f2:    63e020ef            jal     ra,0x19830
   171f6:    00050a1b            sext.w  s4,a0
   171fa:    84ea                mv      s1,s10
   171fc:    020a0b63            beqz    s4,0x17232
   17200:    fffd061b            addiw   a2,s10,-1
   17204:    4056571b            sraiw   a4,a2,0x5
   17208:    070a                slli    a4,a4,0x2
   1720a:    974e                add     a4,a4,s3
   1720c:    4318                lw      a4,0(a4)
   1720e:    4685                li      a3,1
   17210:    00c696bb            sllw    a3,a3,a2
   17214:    8f75                and     a4,a4,a3
   17216:    2701                sext.w  a4,a4
   17218:    4a05                li      s4,1
   1721a:    cf01                beqz    a4,0x17232
   1721c:    00ca5a63            bge     s4,a2,0x17230
   17220:    ffed059b            addiw   a1,s10,-2
   17224:    8566                mv      a0,s9
   17226:    60a020ef            jal     ra,0x19830
   1722a:    2501                sext.w  a0,a0
   1722c:    4a0d                li      s4,3
   1722e:    e111                bnez    a0,0x17232
   17230:    4a09                li      s4,2
   17232:    85ea                mv      a1,s10
   17234:    8566                mv      a0,s9
   17236:    cebff0ef            jal     ra,0x16f20
   1723a:    9c25                addw    s0,s0,s1
   1723c:    00892703            lw      a4,8(s2)
   17240:    0a875263            bge     a4,s0,0x172e4
   17244:    85e6                mv      a1,s9
   17246:    8556                mv      a0,s5
   17248:    49f010ef            jal     ra,0x18ee6
   1724c:    67a2                ld      a5,8(sp)
   1724e:    0a300493            li      s1,163
   17252:    0007b023            sd      zero,0(a5)
   17256:    bdc5                j       0x17146
   17258:    2585                addiw   a1,a1,1
   1725a:    8785                srai    a5,a5,0x1
   1725c:    b789                j       0x1719e
   1725e:    fffc0793            addi    a5,s8,-1
   17262:    f03e                sd      a5,32(sp)
   17264:    fffc4603            lbu     a2,-1(s8)
   17268:    67e2                ld      a5,24(sp)
   1726a:    02f60b63            beq     a2,a5,0x172a0
   1726e:    02000793            li      a5,32
   17272:    00f89763            bne     a7,a5,0x17280
   17276:    01bd2023            sw      s11,0(s10)
   1727a:    4881                li      a7,0
   1727c:    0d11                addi    s10,s10,4
   1727e:    4d81                li      s11,0
   17280:    fffc4503            lbu     a0,-1(s8)
   17284:    f846                sd      a7,48(sp)
   17286:    d0fff0ef            jal     ra,0x16f94
   1728a:    78c2                ld      a7,48(sp)
   1728c:    893d                andi    a0,a0,15
   1728e:    7302                ld      t1,32(sp)
   17290:    0115153b            sllw    a0,a0,a7
   17294:    00ade833            or      a6,s11,a0
   17298:    00080d9b            sext.w  s11,a6
   1729c:    2891                addiw   a7,a7,4
   1729e:    a015                j       0x172c2
   172a0:    7722                ld      a4,40(sp)
   172a2:    fffc0793            addi    a5,s8,-1
   172a6:    00e78333            add     t1,a5,a4
   172aa:    fc9362e3            bltu    t1,s1,0x1726e
   172ae:    851a                mv      a0,t1
   172b0:    8652                mv      a2,s4
   172b2:    85de                mv      a1,s7
   172b4:    fc46                sd      a7,56(sp)
   172b6:    f81a                sd      t1,48(sp)
   172b8:    744020ef            jal     ra,0x199fc
   172bc:    7342                ld      t1,48(sp)
   172be:    78e2                ld      a7,56(sp)
   172c0:    f55d                bnez    a0,0x1726e
   172c2:    8c1a                mv      s8,t1
   172c4:    bde5                j       0x171bc
   172c6:    4a01                li      s4,0
   172c8:    f7775ae3            bge     a4,s7,0x1723c
   172cc:    40eb863b            subw    a2,s7,a4
   172d0:    85e6                mv      a1,s9
   172d2:    8556                mv      a0,s5
   172d4:    84b2                mv      s1,a2
   172d6:    03a020ef            jal     ra,0x19310
   172da:    8caa                mv      s9,a0
   172dc:    9c05                subw    s0,s0,s1
   172de:    01850993            addi    s3,a0,24
   172e2:    bfa9                j       0x1723c
   172e4:    00492703            lw      a4,4(s2)
   172e8:    0ee45c63            bge     s0,a4,0x173e0
   172ec:    40870d3b            subw    s10,a4,s0
   172f0:    846a                mv      s0,s10
   172f2:    077d4763            blt     s10,s7,0x17360
   172f6:    00c92703            lw      a4,12(s2)
   172fa:    4689                li      a3,2
   172fc:    04d70c63            beq     a4,a3,0x17354
   17300:    468d                li      a3,3
   17302:    04d70c63            beq     a4,a3,0x1735a
   17306:    4685                li      a3,1
   17308:    02d71c63            bne     a4,a3,0x17340
   1730c:    03ab9a63            bne     s7,s10,0x17340
   17310:    02eb9163            bne     s7,a4,0x17332
   17314:    00492703            lw      a4,4(s2)
   17318:    67c2                ld      a5,16(sp)
   1731a:    06200493            li      s1,98
   1731e:    c398                sw      a4,0(a5)
   17320:    4705                li      a4,1
   17322:    67a2                ld      a5,8(sp)
   17324:    00ecaa23            sw      a4,20(s9)
   17328:    00e9a023            sw      a4,0(s3)
   1732c:    0197b023            sd      s9,0(a5)
   17330:    bd19                j       0x17146
   17332:    fffb859b            addiw   a1,s7,-1
   17336:    8566                mv      a0,s9
   17338:    4f8020ef            jal     ra,0x19830
   1733c:    2501                sext.w  a0,a0
   1733e:    f979                bnez    a0,0x17314
   17340:    85e6                mv      a1,s9
   17342:    8556                mv      a0,s5
   17344:    3a3010ef            jal     ra,0x18ee6
   17348:    67a2                ld      a5,8(sp)
   1734a:    05000493            li      s1,80
   1734e:    0007b023            sd      zero,0(a5)
   17352:    bbd5                j       0x17146
   17354:    fe0b16e3            bnez    s6,0x17340
   17358:    bf75                j       0x17314
   1735a:    fa0b1de3            bnez    s6,0x17314
   1735e:    b7cd                j       0x17340
   17360:    fffd0d9b            addiw   s11,s10,-1
   17364:    84ee                mv      s1,s11
   17366:    060a1b63            bnez    s4,0x173dc
   1736a:    000d8863            beqz    s11,0x1737a
   1736e:    85ee                mv      a1,s11
   17370:    8566                mv      a0,s9
   17372:    4be020ef            jal     ra,0x19830
   17376:    00050a1b            sext.w  s4,a0
   1737a:    4054d49b            sraiw   s1,s1,0x5
   1737e:    048a                slli    s1,s1,0x2
   17380:    4705                li      a4,1
   17382:    94ce                add     s1,s1,s3
   17384:    01b715bb            sllw    a1,a4,s11
   17388:    4098                lw      a4,0(s1)
   1738a:    8f6d                and     a4,a4,a1
   1738c:    2701                sext.w  a4,a4
   1738e:    c319                beqz    a4,0x17394
   17390:    002a6a13            ori     s4,s4,2
   17394:    85ea                mv      a1,s10
   17396:    8566                mv      a0,s9
   17398:    408b8bbb            subw    s7,s7,s0
   1739c:    b85ff0ef            jal     ra,0x16f20
   173a0:    00492403            lw      s0,4(s2)
   173a4:    4489                li      s1,2
   173a6:    080a0d63            beqz    s4,0x17440
   173aa:    00c92703            lw      a4,12(s2)
   173ae:    4689                li      a3,2
   173b0:    02d70a63            beq     a4,a3,0x173e4
   173b4:    468d                li      a3,3
   173b6:    02d70a63            beq     a4,a3,0x173ea
   173ba:    4685                li      a3,1
   173bc:    00d71d63            bne     a4,a3,0x173d6
   173c0:    002a7713            andi    a4,s4,2
   173c4:    cb09                beqz    a4,0x173d6
   173c6:    0009a703            lw      a4,0(s3)
   173ca:    00ea6a33            or      s4,s4,a4
   173ce:    001a7a13            andi    s4,s4,1
   173d2:    000a1e63            bnez    s4,0x173ee
   173d6:    0104e493            ori     s1,s1,16
   173da:    a09d                j       0x17440
   173dc:    4a05                li      s4,1
   173de:    bf71                j       0x1737a
   173e0:    4485                li      s1,1
   173e2:    b7d1                j       0x173a6
   173e4:    4705                li      a4,1
   173e6:    41670b3b            subw    s6,a4,s6
   173ea:    fe0b06e3            beqz    s6,0x173d6
   173ee:    014caa03            lw      s4,20(s9)
   173f2:    018c8713            addi    a4,s9,24
   173f6:    55fd                li      a1,-1
   173f8:    002a1993            slli    s3,s4,0x2
   173fc:    01370633            add     a2,a4,s3
   17400:    4314                lw      a3,0(a4)
   17402:    04b68563            beq     a3,a1,0x1744c
   17406:    2685                addiw   a3,a3,1
   17408:    c314                sw      a3,0(a4)
   1740a:    4689                li      a3,2
   1740c:    018c8713            addi    a4,s9,24
   17410:    08d49a63            bne     s1,a3,0x174a4
   17414:    00092683            lw      a3,0(s2)
   17418:    36fd                addiw   a3,a3,-1
   1741a:    03769163            bne     a3,s7,0x1743c
   1741e:    405bd693            srai    a3,s7,0x5
   17422:    068a                slli    a3,a3,0x2
   17424:    9736                add     a4,a4,a3
   17426:    4685                li      a3,1
   17428:    017696bb            sllw    a3,a3,s7
   1742c:    00072b83            lw      s7,0(a4)
   17430:    00dbfbb3            and     s7,s7,a3
   17434:    2b81                sext.w  s7,s7
   17436:    000b8363            beqz    s7,0x1743c
   1743a:    4485                li      s1,1
   1743c:    0204e493            ori     s1,s1,32
   17440:    67a2                ld      a5,8(sp)
   17442:    0197b023            sd      s9,0(a5)
   17446:    67c2                ld      a5,16(sp)
   17448:    c380                sw      s0,0(a5)
   1744a:    b9f5                j       0x17146
   1744c:    0711                addi    a4,a4,4
   1744e:    fe072e23            sw      zero,-4(a4)
   17452:    fac767e3            bltu    a4,a2,0x17400
   17456:    014ca683            lw      a3,20(s9)
   1745a:    00cca703            lw      a4,12(s9)
   1745e:    02e6c763            blt     a3,a4,0x1748c
   17462:    008ca583            lw      a1,8(s9)
   17466:    8556                mv      a0,s5
   17468:    2585                addiw   a1,a1,1
   1746a:    219010ef            jal     ra,0x18e82
   1746e:    014ca603            lw      a2,20(s9)
   17472:    010c8593            addi    a1,s9,16
   17476:    8b2a                mv      s6,a0
   17478:    0609                addi    a2,a2,2
   1747a:    060a                slli    a2,a2,0x2
   1747c:    0541                addi    a0,a0,16
   1747e:    e9dfb0ef            jal     ra,0x1331a
   17482:    85e6                mv      a1,s9
   17484:    8556                mv      a0,s5
   17486:    261010ef            jal     ra,0x18ee6
   1748a:    8cda                mv      s9,s6
   1748c:    014ca703            lw      a4,20(s9)
   17490:    0017069b            addiw   a3,a4,1
   17494:    0711                addi    a4,a4,4
   17496:    070a                slli    a4,a4,0x2
   17498:    00dcaa23            sw      a3,20(s9)
   1749c:    9766                add     a4,a4,s9
   1749e:    4685                li      a3,1
   174a0:    c714                sw      a3,8(a4)
   174a2:    b7a5                j       0x1740a
   174a4:    014ca683            lw      a3,20(s9)
   174a8:    00da5c63            bge     s4,a3,0x174c0
   174ac:    4585                li      a1,1
   174ae:    8566                mv      a0,s9
   174b0:    a71ff0ef            jal     ra,0x16f20
   174b4:    00892703            lw      a4,8(s2)
   174b8:    2405                addiw   s0,s0,1
   174ba:    f88750e3            bge     a4,s0,0x1743a
   174be:    b359                j       0x17244
   174c0:    01fbfb93            andi    s7,s7,31
   174c4:    4485                li      s1,1
   174c6:    f60b8be3            beqz    s7,0x1743c
   174ca:    974e                add     a4,a4,s3
   174cc:    ffc72503            lw      a0,-4(a4)
   174d0:    377010ef            jal     ra,0x19046
   174d4:    02000713            li      a4,32
   174d8:    41770bbb            subw    s7,a4,s7
   174dc:    fd7548e3            blt     a0,s7,0x174ac
   174e0:    bfb1                j       0x1743c
   174e2:    47a1                li      a5,8
   174e4:    40c7863b            subw    a2,a5,a2
   174e8:    0026169b            slliw   a3,a2,0x2
   174ec:    02000793            li      a5,32
   174f0:    40d7863b            subw    a2,a5,a3
   174f4:    415c                lw      a5,4(a0)
   174f6:    4118                lw      a4,0(a0)
   174f8:    0511                addi    a0,a0,4
   174fa:    00c7983b            sllw    a6,a5,a2
   174fe:    01076733            or      a4,a4,a6
   17502:    00d7d7bb            srlw    a5,a5,a3
   17506:    fee52e23            sw      a4,-4(a0)
   1750a:    c11c                sw      a5,0(a0)
   1750c:    feb564e3            bltu    a0,a1,0x174f4
   17510:    8082                ret

   17512:    6118                ld      a4,0(a0)
   17514:    4865                li      a6,25
   17516:    0585                addi    a1,a1,1
   17518:    fff5c603            lbu     a2,-1(a1)
   1751c:    0705                addi    a4,a4,1
   1751e:    e601                bnez    a2,0x17526
   17520:    e118                sd      a4,0(a0)
   17522:    4505                li      a0,1
   17524:    8082                ret

   17526:    00074783            lbu     a5,0(a4)
   1752a:    0007869b            sext.w  a3,a5
   1752e:    fbf7879b            addiw   a5,a5,-65
   17532:    0ff7f793            andi    a5,a5,255
   17536:    00f86463            bltu    a6,a5,0x1753e
   1753a:    02068693            addi    a3,a3,32
   1753e:    fcc68ce3            beq     a3,a2,0x17516
   17542:    4501                li      a0,0
   17544:    8082                ret

   17546:    7175                addi    sp,sp,-144
   17548:    f0d2                sd      s4,96(sp)
   1754a:    0005aa03            lw      s4,0(a1)
   1754e:    fca6                sd      s1,120(sp)
   17550:    f4ce                sd      s3,104(sp)
   17552:    405a5493            srai    s1,s4,0x5
   17556:    e8da                sd      s6,80(sp)
   17558:    048a                slli    s1,s1,0x2
   1755a:    e506                sd      ra,136(sp)
   1755c:    e122                sd      s0,128(sp)
   1755e:    f8ca                sd      s2,112(sp)
   17560:    ecd6                sd      s5,88(sp)
   17562:    e4de                sd      s7,72(sp)
   17564:    e0e2                sd      s8,64(sp)
   17566:    fc66                sd      s9,56(sp)
   17568:    f86a                sd      s10,48(sp)
   1756a:    f46e                sd      s11,40(sp)
   1756c:    01fa7a13            andi    s4,s4,31
   17570:    8b2a                mv      s6,a0
   17572:    89b2                mv      s3,a2
   17574:    94b2                add     s1,s1,a2
   17576:    000a0363            beqz    s4,0x1757c
   1757a:    0491                addi    s1,s1,4
   1757c:    000b3783            ld      a5,0(s6)
   17580:    ffc48913            addi    s2,s1,-4
   17584:    fe04ae23            sw      zero,-4(s1)
   17588:    8dca                mv      s11,s2
   1758a:    844a                mv      s0,s2
   1758c:    4601                li      a2,0
   1758e:    4a81                li      s5,0
   17590:    4b81                li      s7,0
   17592:    4c21                li      s8,8
   17594:    02000c93            li      s9,32
   17598:    4d1d                li      s10,7
   1759a:    0017c503            lbu     a0,1(a5)
   1759e:    00178713            addi    a4,a5,1
   175a2:    e03a                sd      a4,0(sp)
   175a4:    0005069b            sext.w  a3,a0
   175a8:    caa9                beqz    a3,0x175fa
   175aa:    e832                sd      a2,16(sp)
   175ac:    ec36                sd      a3,24(sp)
   175ae:    e43e                sd      a5,8(sp)
   175b0:    9e5ff0ef            jal     ra,0x16f94
   175b4:    6642                ld      a2,16(sp)
   175b6:    e559                bnez    a0,0x17644
   175b8:    66e2                ld      a3,24(sp)
   175ba:    67a2                ld      a5,8(sp)
   175bc:    02dce863            bltu    s9,a3,0x175ec
   175c0:    037ad463            bge     s5,s7,0x175e8
   175c4:    01b47863            bgeu    s0,s11,0x175d4
   175c8:    00cd4663            blt     s10,a2,0x175d4
   175cc:    85ee                mv      a1,s11
   175ce:    8522                mv      a0,s0
   175d0:    f13ff0ef            jal     ra,0x174e2
   175d4:    4621                li      a2,8
   175d6:    0089f963            bgeu    s3,s0,0x175e8
   175da:    ffc40d93            addi    s11,s0,-4
   175de:    fe042e23            sw      zero,-4(s0)
   175e2:    8ade                mv      s5,s7
   175e4:    846e                mv      s0,s11
   175e6:    4601                li      a2,0
   175e8:    6782                ld      a5,0(sp)
   175ea:    bf45                j       0x1759a
   175ec:    02900593            li      a1,41
   175f0:    08b69d63            bne     a3,a1,0x1768a
   175f4:    0789                addi    a5,a5,2
   175f6:    00fb3023            sd      a5,0(s6)
   175fa:    080b8863            beqz    s7,0x1768a
   175fe:    01b47963            bgeu    s0,s11,0x17610
   17602:    479d                li      a5,7
   17604:    00c7c663            blt     a5,a2,0x17610
   17608:    85ee                mv      a1,s11
   1760a:    8522                mv      a0,s0
   1760c:    ed7ff0ef            jal     ra,0x174e2
   17610:    0489fb63            bgeu    s3,s0,0x17666
   17614:    87ce                mv      a5,s3
   17616:    0411                addi    s0,s0,4
   17618:    ffc42703            lw      a4,-4(s0)
   1761c:    0791                addi    a5,a5,4
   1761e:    fee7ae23            sw      a4,-4(a5)
   17622:    fe897ae3            bgeu    s2,s0,0x17616
   17626:    0791                addi    a5,a5,4
   17628:    fe07ae23            sw      zero,-4(a5)
   1762c:    fef97de3            bgeu    s2,a5,0x17626
   17630:    00092783            lw      a5,0(s2)
   17634:    e791                bnez    a5,0x17640
   17636:    05391863            bne     s2,s3,0x17686
   1763a:    4785                li      a5,1
   1763c:    00f92023            sw      a5,0(s2)
   17640:    4515                li      a0,5
   17642:    a0a9                j       0x1768c
   17644:    2605                addiw   a2,a2,1
   17646:    2b85                addiw   s7,s7,1
   17648:    00cc5863            bge     s8,a2,0x17658
   1764c:    f889fee3            bgeu    s3,s0,0x175e8
   17650:    fe042e23            sw      zero,-4(s0)
   17654:    4605                li      a2,1
   17656:    1471                addi    s0,s0,-4
   17658:    401c                lw      a5,0(s0)
   1765a:    893d                andi    a0,a0,15
   1765c:    0047979b            slliw   a5,a5,0x4
   17660:    8fc9                or      a5,a5,a0
   17662:    c01c                sw      a5,0(s0)
   17664:    b751                j       0x175e8
   17666:    fc0a05e3            beqz    s4,0x17630
   1766a:    02000793            li      a5,32
   1766e:    414787bb            subw    a5,a5,s4
   17672:    5a7d                li      s4,-1
   17674:    00fa5a3b            srlw    s4,s4,a5
   17678:    ffc4a783            lw      a5,-4(s1)
   1767c:    00fa7a33            and     s4,s4,a5
   17680:    ff44ae23            sw      s4,-4(s1)
   17684:    b775                j       0x17630
   17686:    1971                addi    s2,s2,-4
   17688:    b765                j       0x17630
   1768a:    4511                li      a0,4
   1768c:    60aa                ld      ra,136(sp)
   1768e:    640a                ld      s0,128(sp)
   17690:    74e6                ld      s1,120(sp)
   17692:    7946                ld      s2,112(sp)
   17694:    79a6                ld      s3,104(sp)
   17696:    7a06                ld      s4,96(sp)
   17698:    6ae6                ld      s5,88(sp)
   1769a:    6b46                ld      s6,80(sp)
   1769c:    6ba6                ld      s7,72(sp)
   1769e:    6c06                ld      s8,64(sp)
   176a0:    7ce2                ld      s9,56(sp)
   176a2:    7d42                ld      s10,48(sp)
   176a4:    7da2                ld      s11,40(sp)
   176a6:    6149                addi    sp,sp,144
   176a8:    8082                ret

   176aa:    01450793            addi    a5,a0,20
   176ae:    0509                addi    a0,a0,2
   176b0:    fe051f23            sh      zero,-2(a0)
   176b4:    fef51de3            bne     a0,a5,0x176ae
   176b8:    8082                ret

   176ba:    4781                li      a5,0
   176bc:    4751                li      a4,20
   176be:    00f506b3            add     a3,a0,a5
   176c2:    0006d603            lhu     a2,0(a3)
   176c6:    00f586b3            add     a3,a1,a5
   176ca:    0789                addi    a5,a5,2
   176cc:    00c69023            sh      a2,0(a3)
   176d0:    fee797e3            bne     a5,a4,0x176be
   176d4:    8082                ret

   176d6:    01a50793            addi    a5,a0,26
   176da:    0509                addi    a0,a0,2
   176dc:    fe051f23            sh      zero,-2(a0)
   176e0:    fef51de3            bne     a0,a5,0x176da
   176e4:    8082                ret

   176e6:    4781                li      a5,0
   176e8:    4761                li      a4,24
   176ea:    00f506b3            add     a3,a0,a5
   176ee:    0006d603            lhu     a2,0(a3)
   176f2:    00f586b3            add     a3,a1,a5
   176f6:    0789                addi    a5,a5,2
   176f8:    00c69023            sh      a2,0(a3)
   176fc:    fee797e3            bne     a5,a4,0x176ea
   17700:    00059c23            sh      zero,24(a1)
   17704:    8082                ret

   17706:    4791                li      a5,4
   17708:    4669                li      a2,26
   1770a:    00f506b3            add     a3,a0,a5
   1770e:    00f58733            add     a4,a1,a5
   17712:    0006d683            lhu     a3,0(a3)
   17716:    00075703            lhu     a4,0(a4)
   1771a:    00e68763            beq     a3,a4,0x17728
   1771e:    4505                li      a0,1
   17720:    00d76863            bltu    a4,a3,0x17730
   17724:    557d                li      a0,-1
   17726:    8082                ret

   17728:    0789                addi    a5,a5,2
   1772a:    fec790e3            bne     a5,a2,0x1770a
   1772e:    4501                li      a0,0
   17730:    8082                ret

   17732:    00450693            addi    a3,a0,4
   17736:    4781                li      a5,0
   17738:    0569                addi    a0,a0,26
   1773a:    7661                lui     a2,0xffff8
   1773c:    0006d703            lhu     a4,0(a3)
   17740:    00177593            andi    a1,a4,1
   17744:    c199                beqz    a1,0x1774a
   17746:    0017e793            ori     a5,a5,1
   1774a:    0027f593            andi    a1,a5,2
   1774e:    8305                srli    a4,a4,0x1
   17750:    e999                bnez    a1,0x17766
   17752:    0017979b            slliw   a5,a5,0x1
   17756:    00e69023            sh      a4,0(a3)
   1775a:    17c2                slli    a5,a5,0x30
   1775c:    0689                addi    a3,a3,2
   1775e:    93c1                srli    a5,a5,0x30
   17760:    fcd51ee3            bne     a0,a3,0x1773c
   17764:    8082                ret

   17766:    8f51                or      a4,a4,a2
   17768:    b7ed                j       0x17752
   1776a:    01650693            addi    a3,a0,22
   1776e:    4701                li      a4,0
   17770:    0026d783            lhu     a5,2(a3)
   17774:    0107961b            slliw   a2,a5,0x10
   17778:    4106561b            sraiw   a2,a2,0x10
   1777c:    02061593            slli    a1,a2,0x20
   17780:    0005d463            bgez    a1,0x17788
   17784:    00176713            ori     a4,a4,1
   17788:    0017979b            slliw   a5,a5,0x1
   1778c:    17c2                slli    a5,a5,0x30
   1778e:    00277613            andi    a2,a4,2
   17792:    93c1                srli    a5,a5,0x30
   17794:    ea19                bnez    a2,0x177aa
   17796:    0017171b            slliw   a4,a4,0x1
   1779a:    00f69123            sh      a5,2(a3)
   1779e:    1742                slli    a4,a4,0x30
   177a0:    16f9                addi    a3,a3,-2
   177a2:    9341                srli    a4,a4,0x30
   177a4:    fcd516e3            bne     a0,a3,0x17770
   177a8:    8082                ret

   177aa:    0017e793            ori     a5,a5,1
   177ae:    b7e5                j       0x17796
   177b0:    00450793            addi    a5,a0,4
   177b4:    4701                li      a4,0
   177b6:    0569                addi    a0,a0,26
   177b8:    0007d683            lhu     a3,0(a5)
   177bc:    0789                addi    a5,a5,2
   177be:    0086d61b            srliw   a2,a3,0x8
   177c2:    8f51                or      a4,a4,a2
   177c4:    fee79f23            sh      a4,-2(a5)
   177c8:    0086971b            slliw   a4,a3,0x8
   177cc:    1742                slli    a4,a4,0x30
   177ce:    9341                srli    a4,a4,0x30
   177d0:    fef514e3            bne     a0,a5,0x177b8
   177d4:    8082                ret

   177d6:    01650793            addi    a5,a0,22
   177da:    4701                li      a4,0
   177dc:    0027d683            lhu     a3,2(a5)
   177e0:    17f9                addi    a5,a5,-2
   177e2:    00869613            slli    a2,a3,0x8
   177e6:    8f51                or      a4,a4,a2
   177e8:    00e79223            sh      a4,4(a5)
   177ec:    0086d713            srli    a4,a3,0x8
   177f0:    fef516e3            bne     a0,a5,0x177dc
   177f4:    8082                ret

   177f6:    00450793            addi    a5,a0,4
   177fa:    01850713            addi    a4,a0,24
   177fe:    0789                addi    a5,a5,2
   17800:    0007d683            lhu     a3,0(a5)
   17804:    fed79f23            sh      a3,-2(a5)
   17808:    fef71be3            bne     a4,a5,0x177fe
   1780c:    00051c23            sh      zero,24(a0)
   17810:    8082                ret

   17812:    01850793            addi    a5,a0,24
   17816:    00450713            addi    a4,a0,4
   1781a:    17f9                addi    a5,a5,-2
   1781c:    0007d683            lhu     a3,0(a5)
   17820:    00d79123            sh      a3,2(a5)
   17824:    fef71be3            bne     a4,a5,0x1781a
   17828:    00051223            sh      zero,4(a0)
   1782c:    8082                ret

   1782e:    05e1                addi    a1,a1,24
   17830:    01650713            addi    a4,a0,22
   17834:    4681                li      a3,0
   17836:    0005d783            lhu     a5,0(a1)
   1783a:    1779                addi    a4,a4,-2
   1783c:    15f9                addi    a1,a1,-2
   1783e:    97b6                add     a5,a5,a3
   17840:    00475683            lhu     a3,4(a4)
   17844:    97b6                add     a5,a5,a3
   17846:    00f59123            sh      a5,2(a1)
   1784a:    83c1                srli    a5,a5,0x10
   1784c:    0017f693            andi    a3,a5,1
   17850:    fee513e3            bne     a0,a4,0x17836
   17854:    8082                ret

   17856:    05e1                addi    a1,a1,24
   17858:    01650713            addi    a4,a0,22
   1785c:    4681                li      a3,0
   1785e:    0005d783            lhu     a5,0(a1)
   17862:    1779                addi    a4,a4,-2
   17864:    15f9                addi    a1,a1,-2
   17866:    8f95                sub     a5,a5,a3
   17868:    00475683            lhu     a3,4(a4)
   1786c:    8f95                sub     a5,a5,a3
   1786e:    00f59123            sh      a5,2(a1)
   17872:    83c1                srli    a5,a5,0x10
   17874:    0017f693            andi    a3,a5,1
   17878:    fee513e3            bne     a0,a4,0x1785e
   1787c:    8082                ret

   1787e:    1101                addi    sp,sp,-32
   17880:    6341                lui     t1,0x10
   17882:    01858893            addi    a7,a1,24
   17886:    00011b23            sh      zero,22(sp)
   1788a:    00011c23            sh      zero,24(sp)
   1788e:    0591                addi    a1,a1,4
   17890:    0834                addi    a3,sp,24
   17892:    137d                addi    t1,t1,-1
   17894:    0008d703            lhu     a4,0(a7)
   17898:    16f9                addi    a3,a3,-2
   1789a:    18f9                addi    a7,a7,-2
   1789c:    e705                bnez    a4,0x178c4
   1789e:    fe069f23            sh      zero,-2(a3)
   178a2:    ff1599e3            bne     a1,a7,0x17894
   178a6:    4791                li      a5,4
   178a8:    4769                li      a4,26
   178aa:    00f105b3            add     a1,sp,a5
   178ae:    0005d583            lhu     a1,0(a1)
   178b2:    00f606b3            add     a3,a2,a5
   178b6:    0789                addi    a5,a5,2
   178b8:    00b69023            sh      a1,0(a3)
   178bc:    fee797e3            bne     a5,a4,0x178aa
   178c0:    6105                addi    sp,sp,32
   178c2:    8082                ret

   178c4:    02a70733            mul     a4,a4,a0
   178c8:    0026d803            lhu     a6,2(a3)
   178cc:    006777b3            and     a5,a4,t1
   178d0:    97c2                add     a5,a5,a6
   178d2:    0107d813            srli    a6,a5,0x10
   178d6:    00f69123            sh      a5,2(a3)
   178da:    01075793            srli    a5,a4,0x10
   178de:    0006d703            lhu     a4,0(a3)
   178e2:    97ba                add     a5,a5,a4
   178e4:    97c2                add     a5,a5,a6
   178e6:    00f69023            sh      a5,0(a3)
   178ea:    83c1                srli    a5,a5,0x10
   178ec:    fef69f23            sh      a5,-2(a3)
   178f0:    bf4d                j       0x178a2
   178f2:    01255783            lhu     a5,18(a0)
   178f6:    fff7c793            not     a5,a5
   178fa:    03179713            slli    a4,a5,0x31
   178fe:    eb09                bnez    a4,0x17910
   17900:    01250793            addi    a5,a0,18
   17904:    0509                addi    a0,a0,2
   17906:    ffe55703            lhu     a4,-2(a0)
   1790a:    e709                bnez    a4,0x17914
   1790c:    fea79ce3            bne     a5,a0,0x17904
   17910:    4501                li      a0,0
   17912:    8082                ret

   17914:    4505                li      a0,1
   17916:    8082                ret

   17918:    1141                addi    sp,sp,-16
   1791a:    e022                sd      s0,0(sp)
   1791c:    e406                sd      ra,8(sp)
   1791e:    842a                mv      s0,a0
   17920:    fd3ff0ef            jal     ra,0x178f2
   17924:    e909                bnez    a0,0x17936
   17926:    01241503            lh      a0,18(s0)
   1792a:    01f5551b            srliw   a0,a0,0x1f
   1792e:    60a2                ld      ra,8(sp)
   17930:    6402                ld      s0,0(sp)
   17932:    0141                addi    sp,sp,16
   17934:    8082                ret

   17936:    4501                li      a0,0
   17938:    bfdd                j       0x1792e
   1793a:    01251783            lh      a5,18(a0)
   1793e:    1101                addi    sp,sp,-32
   17940:    ec06                sd      ra,24(sp)
   17942:    e822                sd      s0,16(sp)
   17944:    e426                sd      s1,8(sp)
   17946:    e04a                sd      s2,0(sp)
   17948:    0407d963            bgez    a5,0x1799a
   1794c:    57fd                li      a5,-1
   1794e:    00f59023            sh      a5,0(a1)
   17952:    01255703            lhu     a4,18(a0)
   17956:    67a1                lui     a5,0x8
   17958:    17fd                addi    a5,a5,-1
   1795a:    8f7d                and     a4,a4,a5
   1795c:    00e59123            sh      a4,2(a1)
   17960:    01050913            addi    s2,a0,16
   17964:    04f71863            bne     a4,a5,0x179b4
   17968:    842e                mv      s0,a1
   1796a:    84aa                mv      s1,a0
   1796c:    f87ff0ef            jal     ra,0x178f2
   17970:    c905                beqz    a0,0x179a0
   17972:    00640793            addi    a5,s0,6
   17976:    00041223            sh      zero,4(s0)
   1797a:    ffc48513            addi    a0,s1,-4
   1797e:    1979                addi    s2,s2,-2
   17980:    00295703            lhu     a4,2(s2)
   17984:    0789                addi    a5,a5,2
   17986:    fee79f23            sh      a4,-2(a5) # 0x7ffe
   1798a:    fea91ae3            bne     s2,a0,0x1797e
   1798e:    60e2                ld      ra,24(sp)
   17990:    6442                ld      s0,16(sp)
   17992:    64a2                ld      s1,8(sp)
   17994:    6902                ld      s2,0(sp)
   17996:    6105                addi    sp,sp,32
   17998:    8082                ret

   1799a:    00059023            sh      zero,0(a1)
   1799e:    bf55                j       0x17952
   179a0:    00440793            addi    a5,s0,4
   179a4:    01a40593            addi    a1,s0,26
   179a8:    0789                addi    a5,a5,2
   179aa:    fe079f23            sh      zero,-2(a5)
   179ae:    feb79de3            bne     a5,a1,0x179a8
   179b2:    bff1                j       0x1798e
   179b4:    00658793            addi    a5,a1,6
   179b8:    00059223            sh      zero,4(a1)
   179bc:    1579                addi    a0,a0,-2
   179be:    1979                addi    s2,s2,-2
   179c0:    00295703            lhu     a4,2(s2)
   179c4:    0789                addi    a5,a5,2
   179c6:    fee79f23            sh      a4,-2(a5)
   179ca:    fea91ae3            bne     s2,a0,0x179be
   179ce:    00059c23            sh      zero,24(a1)
   179d2:    bf75                j       0x1798e
   179d4:    711d                addi    sp,sp,-96
   179d6:    e4a6                sd      s1,72(sp)
   179d8:    e0ca                sd      s2,64(sp)
   179da:    ec86                sd      ra,88(sp)
   179dc:    e8a2                sd      s0,80(sp)
   179de:    892a                mv      s2,a0
   179e0:    84ae                mv      s1,a1
   179e2:    f11ff0ef            jal     ra,0x178f2
   179e6:    e559                bnez    a0,0x17a74
   179e8:    8526                mv      a0,s1
   179ea:    f09ff0ef            jal     ra,0x178f2
   179ee:    842a                mv      s0,a0
   179f0:    e151                bnez    a0,0x17a74
   179f2:    858a                mv      a1,sp
   179f4:    854a                mv      a0,s2
   179f6:    f45ff0ef            jal     ra,0x1793a
   179fa:    100c                addi    a1,sp,32
   179fc:    8526                mv      a0,s1
   179fe:    f3dff0ef            jal     ra,0x1793a
   17a02:    00015703            lhu     a4,0(sp)
   17a06:    02015783            lhu     a5,32(sp)
   17a0a:    02e78c63            beq     a5,a4,0x17a42
   17a0e:    4789                li      a5,2
   17a10:    46e1                li      a3,24
   17a12:    00f10633            add     a2,sp,a5
   17a16:    00065603            lhu     a2,0(a2) # 0xffffffffffff8000
   17a1a:    e205                bnez    a2,0x17a3a
   17a1c:    1010                addi    a2,sp,32
   17a1e:    963e                add     a2,a2,a5
   17a20:    00065603            lhu     a2,0(a2)
   17a24:    ea19                bnez    a2,0x17a3a
   17a26:    0789                addi    a5,a5,2
   17a28:    fed795e3            bne     a5,a3,0x17a12
   17a2c:    8522                mv      a0,s0
   17a2e:    60e6                ld      ra,88(sp)
   17a30:    6446                ld      s0,80(sp)
   17a32:    64a6                ld      s1,72(sp)
   17a34:    6906                ld      s2,64(sp)
   17a36:    6125                addi    sp,sp,96
   17a38:    8082                ret

   17a3a:    4405                li      s0,1
   17a3c:    db65                beqz    a4,0x17a2c
   17a3e:    547d                li      s0,-1
   17a40:    b7f5                j       0x17a2c
   17a42:    4685                li      a3,1
   17a44:    c311                beqz    a4,0x17a48
   17a46:    56fd                li      a3,-1
   17a48:    4781                li      a5,0
   17a4a:    45e1                li      a1,24
   17a4c:    00f10733            add     a4,sp,a5
   17a50:    00075603            lhu     a2,0(a4)
   17a54:    1018                addi    a4,sp,32
   17a56:    973e                add     a4,a4,a5
   17a58:    00075703            lhu     a4,0(a4)
   17a5c:    00e60863            beq     a2,a4,0x17a6c
   17a60:    8436                mv      s0,a3
   17a62:    fcc765e3            bltu    a4,a2,0x17a2c
   17a66:    40d0043b            negw    s0,a3
   17a6a:    b7c9                j       0x17a2c
   17a6c:    0789                addi    a5,a5,2
   17a6e:    fcb79fe3            bne     a5,a1,0x17a4c
   17a72:    bf6d                j       0x17a2c
   17a74:    5479                li      s0,-2
   17a76:    bf5d                j       0x17a2c
   17a78:    01255783            lhu     a5,18(a0)
   17a7c:    fff7c793            not     a5,a5
   17a80:    03179713            slli    a4,a5,0x31
   17a84:    eb11                bnez    a4,0x17a98
   17a86:    1141                addi    sp,sp,-16
   17a88:    e406                sd      ra,8(sp)
   17a8a:    e69ff0ef            jal     ra,0x178f2
   17a8e:    60a2                ld      ra,8(sp)
   17a90:    00153513            seqz    a0,a0
   17a94:    0141                addi    sp,sp,16
   17a96:    8082                ret

   17a98:    4501                li      a0,0
   17a9a:    8082                ret

   17a9c:    01250713            addi    a4,a0,18
   17aa0:    87aa                mv      a5,a0
   17aa2:    0789                addi    a5,a5,2
   17aa4:    fe079f23            sh      zero,-2(a5)
   17aa8:    fee79de3            bne     a5,a4,0x17aa2
   17aac:    01255783            lhu     a5,18(a0)
   17ab0:    6721                lui     a4,0x8
   17ab2:    177d                addi    a4,a4,-1
   17ab4:    8fd9                or      a5,a5,a4
   17ab6:    00f51923            sh      a5,18(a0)
   17aba:    8082                ret

   17abc:    7139                addi    sp,sp,-64
   17abe:    f822                sd      s0,48(sp)
   17ac0:    ec4e                sd      s3,24(sp)
   17ac2:    fc06                sd      ra,56(sp)
   17ac4:    f426                sd      s1,40(sp)
   17ac6:    f04a                sd      s2,32(sp)
   17ac8:    e852                sd      s4,16(sp)
   17aca:    e456                sd      s5,8(sp)
   17acc:    89aa                mv      s3,a0
   17ace:    842e                mv      s0,a1
   17ad0:    0a05d963            bgez    a1,0x17b82
   17ad4:    40b00a3b            negw    s4,a1
   17ad8:    8952                mv      s2,s4
   17ada:    4481                li      s1,0
   17adc:    4abd                li      s5,15
   17ade:    034ac763            blt     s5,s4,0x17b0c
   17ae2:    0049591b            srliw   s2,s2,0x4
   17ae6:    55c1                li      a1,-16
   17ae8:    02b905bb            mulw    a1,s2,a1
   17aec:    4a1d                li      s4,7
   17aee:    4085893b            subw    s2,a1,s0
   17af2:    844a                mv      s0,s2
   17af4:    032a4463            blt     s4,s2,0x17b1c
   17af8:    0034559b            srliw   a1,s0,0x3
   17afc:    57e1                li      a5,-8
   17afe:    02f585bb            mulw    a1,a1,a5
   17b02:    9c2d                addw    s0,s0,a1
   17b04:    e405                bnez    s0,0x17b2c
   17b06:    00903533            snez    a0,s1
   17b0a:    a09d                j       0x17b70
   17b0c:    0189d783            lhu     a5,24(s3)
   17b10:    854e                mv      a0,s3
   17b12:    3a41                addiw   s4,s4,-16
   17b14:    8cdd                or      s1,s1,a5
   17b16:    cfdff0ef            jal     ra,0x17812
   17b1a:    b7d1                j       0x17ade
   17b1c:    0189c783            lbu     a5,24(s3)
   17b20:    854e                mv      a0,s3
   17b22:    3961                addiw   s2,s2,-8
   17b24:    8cdd                or      s1,s1,a5
   17b26:    c8bff0ef            jal     ra,0x177b0
   17b2a:    b7e9                j       0x17af4
   17b2c:    0189d783            lhu     a5,24(s3)
   17b30:    854e                mv      a0,s3
   17b32:    347d                addiw   s0,s0,-1
   17b34:    8b85                andi    a5,a5,1
   17b36:    8cdd                or      s1,s1,a5
   17b38:    bfbff0ef            jal     ra,0x17732
   17b3c:    b7e1                j       0x17b04
   17b3e:    854e                mv      a0,s3
   17b40:    cb7ff0ef            jal     ra,0x177f6
   17b44:    34c1                addiw   s1,s1,-16
   17b46:    fe994ce3            blt     s2,s1,0x17b3e
   17b4a:    0044559b            srliw   a1,s0,0x4
   17b4e:    57c1                li      a5,-16
   17b50:    02f585bb            mulw    a1,a1,a5
   17b54:    491d                li      s2,7
   17b56:    00b404bb            addw    s1,s0,a1
   17b5a:    8426                mv      s0,s1
   17b5c:    02994663            blt     s2,s1,0x17b88
   17b60:    0034559b            srliw   a1,s0,0x3
   17b64:    57e1                li      a5,-8
   17b66:    02f585bb            mulw    a1,a1,a5
   17b6a:    9c2d                addw    s0,s0,a1
   17b6c:    e01d                bnez    s0,0x17b92
   17b6e:    4501                li      a0,0
   17b70:    70e2                ld      ra,56(sp)
   17b72:    7442                ld      s0,48(sp)
   17b74:    74a2                ld      s1,40(sp)
   17b76:    7902                ld      s2,32(sp)
   17b78:    69e2                ld      s3,24(sp)
   17b7a:    6a42                ld      s4,16(sp)
   17b7c:    6aa2                ld      s5,8(sp)
   17b7e:    6121                addi    sp,sp,64
   17b80:    8082                ret

   17b82:    84ae                mv      s1,a1
   17b84:    493d                li      s2,15
   17b86:    b7c1                j       0x17b46
   17b88:    854e                mv      a0,s3
   17b8a:    c4dff0ef            jal     ra,0x177d6
   17b8e:    34e1                addiw   s1,s1,-8
   17b90:    b7f1                j       0x17b5c
   17b92:    854e                mv      a0,s3
   17b94:    bd7ff0ef            jal     ra,0x1776a
   17b98:    347d                addiw   s0,s0,-1
   17b9a:    bfc9                j       0x17b6c
   17b9c:    00455783            lhu     a5,4(a0)
   17ba0:    1101                addi    sp,sp,-32
   17ba2:    e426                sd      s1,8(sp)
   17ba4:    ec06                sd      ra,24(sp)
   17ba6:    e822                sd      s0,16(sp)
   17ba8:    e04a                sd      s2,0(sp)
   17baa:    84aa                mv      s1,a0
   17bac:    cb99                beqz    a5,0x17bc2
   17bae:    f007f793            andi    a5,a5,-256
   17bb2:    4401                li      s0,0
   17bb4:    c781                beqz    a5,0x17bbc
   17bb6:    bfbff0ef            jal     ra,0x177b0
   17bba:    5461                li      s0,-8
   17bbc:    f6f00913            li      s2,-145
   17bc0:    a0ad                j       0x17c2a
   17bc2:    00651783            lh      a5,6(a0)
   17bc6:    4401                li      s0,0
   17bc8:    0a000913            li      s2,160
   17bcc:    0007df63            bgez    a5,0x17bea
   17bd0:    8522                mv      a0,s0
   17bd2:    60e2                ld      ra,24(sp)
   17bd4:    6442                ld      s0,16(sp)
   17bd6:    64a2                ld      s1,8(sp)
   17bd8:    6902                ld      s2,0(sp)
   17bda:    6105                addi    sp,sp,32
   17bdc:    8082                ret

   17bde:    8526                mv      a0,s1
   17be0:    2441                addiw   s0,s0,16
   17be2:    c15ff0ef            jal     ra,0x177f6
   17be6:    ff2405e3            beq     s0,s2,0x17bd0
   17bea:    0064d783            lhu     a5,6(s1)
   17bee:    dbe5                beqz    a5,0x17bde
   17bf0:    0064d783            lhu     a5,6(s1)
   17bf4:    f007f793            andi    a5,a5,-256
   17bf8:    cf91                beqz    a5,0x17c14
   17bfa:    0a000913            li      s2,160
   17bfe:    00649783            lh      a5,6(s1)
   17c02:    fc07c7e3            bltz    a5,0x17bd0
   17c06:    8526                mv      a0,s1
   17c08:    2405                addiw   s0,s0,1
   17c0a:    b61ff0ef            jal     ra,0x1776a
   17c0e:    fe8958e3            bge     s2,s0,0x17bfe
   17c12:    bf7d                j       0x17bd0
   17c14:    8526                mv      a0,s1
   17c16:    bc1ff0ef            jal     ra,0x177d6
   17c1a:    2421                addiw   s0,s0,8
   17c1c:    bfd1                j       0x17bf0
   17c1e:    8526                mv      a0,s1
   17c20:    347d                addiw   s0,s0,-1
   17c22:    b11ff0ef            jal     ra,0x17732
   17c26:    fb2405e3            beq     s0,s2,0x17bd0
   17c2a:    0044d783            lhu     a5,4(s1)
   17c2e:    fbe5                bnez    a5,0x17c1e
   17c30:    b745                j       0x17bd0
   17c32:    01050713            addi    a4,a0,16
   17c36:    87aa                mv      a5,a0
   17c38:    0789                addi    a5,a5,2
   17c3a:    fe079f23            sh      zero,-2(a5)
   17c3e:    fee79de3            bne     a5,a4,0x17c38
   17c42:    7fffc7b7            lui     a5,0x7fffc
   17c46:    c91c                sw      a5,16(a0)
   17c48:    8082                ret

   17c4a:    872a                mv      a4,a0
   17c4c:    00075683            lhu     a3,0(a4) # 0x8000
   17c50:    852e                mv      a0,a1
   17c52:    00275783            lhu     a5,2(a4)
   17c56:    c299                beqz    a3,0x17c5c
   17c58:    76e1                lui     a3,0xffff8
   17c5a:    8fd5                or      a5,a5,a3
   17c5c:    00f51923            sh      a5,18(a0)
   17c60:    00275603            lhu     a2,2(a4)
   17c64:    66a1                lui     a3,0x8
   17c66:    16fd                addi    a3,a3,-1
   17c68:    00670793            addi    a5,a4,6
   17c6c:    00d61b63            bne     a2,a3,0x17c82
   17c70:    0769                addi    a4,a4,26
   17c72:    0007d683            lhu     a3,0(a5) # 0x7fffc000
   17c76:    e28d                bnez    a3,0x17c98
   17c78:    0789                addi    a5,a5,2
   17c7a:    fee79ce3            bne     a5,a4,0x17c72
   17c7e:    e1fff06f            j       0x17a9c
   17c82:    0541                addi    a0,a0,16
   17c84:    0761                addi    a4,a4,24
   17c86:    0789                addi    a5,a5,2
   17c88:    ffe7d683            lhu     a3,-2(a5)
   17c8c:    1579                addi    a0,a0,-2
   17c8e:    00d51123            sh      a3,2(a0)
   17c92:    fee79ae3            bne     a5,a4,0x17c86
   17c96:    8082                ret

   17c98:    f9bff06f            j       0x17c32
   17c9c:    7139                addi    sp,sp,-64
   17c9e:    f426                sd      s1,40(sp)
   17ca0:    84aa                mv      s1,a0
   17ca2:    850a                mv      a0,sp
   17ca4:    f822                sd      s0,48(sp)
   17ca6:    fc06                sd      ra,56(sp)
   17ca8:    842e                mv      s0,a1
   17caa:    a2dff0ef            jal     ra,0x176d6
   17cae:    00e4d703            lhu     a4,14(s1)
   17cb2:    0107179b            slliw   a5,a4,0x10
   17cb6:    4107d79b            sraiw   a5,a5,0x10
   17cba:    02079693            slli    a3,a5,0x20
   17cbe:    0206c763            bltz    a3,0x17cec
   17cc2:    00011023            sh      zero,0(sp)
   17cc6:    66a1                lui     a3,0x8
   17cc8:    16fd                addi    a3,a3,-1
   17cca:    8f75                and     a4,a4,a3
   17ccc:    00e48793            addi    a5,s1,14
   17cd0:    04d71a63            bne     a4,a3,0x17d24
   17cd4:    8726                mv      a4,s1
   17cd6:    00075683            lhu     a3,0(a4)
   17cda:    ce89                beqz    a3,0x17cf4
   17cdc:    8522                mv      a0,s0
   17cde:    f55ff0ef            jal     ra,0x17c32
   17ce2:    70e2                ld      ra,56(sp)
   17ce4:    7442                ld      s0,48(sp)
   17ce6:    74a2                ld      s1,40(sp)
   17ce8:    6121                addi    sp,sp,64
   17cea:    8082                ret

   17cec:    57fd                li      a5,-1
   17cee:    00f11023            sh      a5,0(sp)
   17cf2:    bfd1                j       0x17cc6
   17cf4:    0709                addi    a4,a4,2
   17cf6:    fee790e3            bne     a5,a4,0x17cd6
   17cfa:    8522                mv      a0,s0
   17cfc:    9afff0ef            jal     ra,0x176aa
   17d00:    8522                mv      a0,s0
   17d02:    d9bff0ef            jal     ra,0x17a9c
   17d06:    00e49783            lh      a5,14(s1)
   17d0a:    fc07dce3            bgez    a5,0x17ce2
   17d0e:    8522                mv      a0,s0
   17d10:    be3ff0ef            jal     ra,0x178f2
   17d14:    f579                bnez    a0,0x17ce2
   17d16:    01245783            lhu     a5,18(s0)
   17d1a:    7761                lui     a4,0xffff8
   17d1c:    8fb9                xor     a5,a5,a4
   17d1e:    00f41923            sh      a5,18(s0)
   17d22:    b7c1                j       0x17ce2
   17d24:    00e11123            sh      a4,2(sp)
   17d28:    868a                mv      a3,sp
   17d2a:    17f9                addi    a5,a5,-2
   17d2c:    0007d603            lhu     a2,0(a5)
   17d30:    0689                addi    a3,a3,2
   17d32:    00c69223            sh      a2,4(a3) # 0x8004
   17d36:    fef49ae3            bne     s1,a5,0x17d2a
   17d3a:    eb01                bnez    a4,0x17d4a
   17d3c:    00011223            sh      zero,4(sp)
   17d40:    85a2                mv      a1,s0
   17d42:    850a                mv      a0,sp
   17d44:    f07ff0ef            jal     ra,0x17c4a
   17d48:    bf69                j       0x17ce2
   17d4a:    4785                li      a5,1
   17d4c:    55fd                li      a1,-1
   17d4e:    850a                mv      a0,sp
   17d50:    00f11223            sh      a5,4(sp)
   17d54:    d69ff0ef            jal     ra,0x17abc
   17d58:    b7e5                j       0x17d40
   17d5a:    7139                addi    sp,sp,-64
   17d5c:    f822                sd      s0,48(sp)
   17d5e:    f426                sd      s1,40(sp)
   17d60:    f04a                sd      s2,32(sp)
   17d62:    ec4e                sd      s3,24(sp)
   17d64:    e852                sd      s4,16(sp)
   17d66:    e456                sd      s5,8(sp)
   17d68:    8936                mv      s2,a3
   17d6a:    843e                mv      s0,a5
   17d6c:    fc06                sd      ra,56(sp)
   17d6e:    84aa                mv      s1,a0
   17d70:    89ae                mv      s3,a1
   17d72:    8a32                mv      s4,a2
   17d74:    8aba                mv      s5,a4
   17d76:    e27ff0ef            jal     ra,0x17b9c
   17d7a:    09000793            li      a5,144
   17d7e:    40a90933            sub     s2,s2,a0
   17d82:    02a7d763            bge     a5,a0,0x17db0
   17d86:    67a1                lui     a5,0x8
   17d88:    17f9                addi    a5,a5,-2
   17d8a:    0527c063            blt     a5,s2,0x17dca
   17d8e:    00248793            addi    a5,s1,2
   17d92:    04e9                addi    s1,s1,26
   17d94:    0789                addi    a5,a5,2
   17d96:    fe079f23            sh      zero,-2(a5) # 0x7ffe
   17d9a:    fe979de3            bne     a5,s1,0x17d94
   17d9e:    70e2                ld      ra,56(sp)
   17da0:    7442                ld      s0,48(sp)
   17da2:    74a2                ld      s1,40(sp)
   17da4:    7902                ld      s2,32(sp)
   17da6:    69e2                ld      s3,24(sp)
   17da8:    6a42                ld      s4,16(sp)
   17daa:    6aa2                ld      s5,8(sp)
   17dac:    6121                addi    sp,sp,64
   17dae:    8082                ret

   17db0:    00095d63            bgez    s2,0x17dca
   17db4:    f7000793            li      a5,-144
   17db8:    12f94963            blt     s2,a5,0x17eea
   17dbc:    0009059b            sext.w  a1,s2
   17dc0:    8526                mv      a0,s1
   17dc2:    cfbff0ef            jal     ra,0x17abc
   17dc6:    12051b63            bnez    a0,0x17efc
   17dca:    0e0a8c63            beqz    s5,0x17ec2
   17dce:    4058                lw      a4,4(s0)
   17dd0:    401c                lw      a5,0(s0)
   17dd2:    04f70863            beq     a4,a5,0x17e22
   17dd6:    01a40513            addi    a0,s0,26
   17dda:    8fdff0ef            jal     ra,0x176d6
   17dde:    405c                lw      a5,4(s0)
   17de0:    03800713            li      a4,56
   17de4:    14e78c63            beq     a5,a4,0x17f3c
   17de8:    10f74c63            blt     a4,a5,0x17f00
   17dec:    4761                li      a4,24
   17dee:    16e78d63            beq     a5,a4,0x17f68
   17df2:    03500713            li      a4,53
   17df6:    16e78063            beq     a5,a4,0x17f56
   17dfa:    80010737            lui     a4,0x80010
   17dfe:    377d                addiw   a4,a4,-1
   17e00:    c858                sw      a4,20(s0)
   17e02:    4705                li      a4,1
   17e04:    00e41c23            sh      a4,24(s0)
   17e08:    472d                li      a4,11
   17e0a:    1702                slli    a4,a4,0x20
   17e0c:    0731                addi    a4,a4,12
   17e0e:    e418                sd      a4,8(s0)
   17e10:    4458                lw      a4,12(s0)
   17e12:    01845683            lhu     a3,24(s0)
   17e16:    0721                addi    a4,a4,8
   17e18:    0706                slli    a4,a4,0x1
   17e1a:    9722                add     a4,a4,s0
   17e1c:    00d71523            sh      a3,10(a4) # 0xffffffff8001000a
   17e20:    c01c                sw      a5,0(s0)
   17e22:    01204f63            bgtz    s2,0x17e40
   17e26:    4058                lw      a4,4(s0)
   17e28:    09000793            li      a5,144
   17e2c:    00f70a63            beq     a4,a5,0x17e40
   17e30:    0184d783            lhu     a5,24(s1)
   17e34:    8526                mv      a0,s1
   17e36:    8b85                andi    a5,a5,1
   17e38:    00f9e9b3            or      s3,s3,a5
   17e3c:    8f7ff0ef            jal     ra,0x17732
   17e40:    441c                lw      a5,8(s0)
   17e42:    01445603            lhu     a2,20(s0)
   17e46:    404c                lw      a1,4(s0)
   17e48:    00179693            slli    a3,a5,0x1
   17e4c:    96a6                add     a3,a3,s1
   17e4e:    0006d703            lhu     a4,0(a3)
   17e52:    8f71                and     a4,a4,a2
   17e54:    08f00613            li      a2,143
   17e58:    00b64863            blt     a2,a1,0x17e68
   17e5c:    2785                addiw   a5,a5,1
   17e5e:    45b1                li      a1,12
   17e60:    0007861b            sext.w  a2,a5
   17e64:    10c5df63            bge     a1,a2,0x17f82
   17e68:    01445783            lhu     a5,20(s0)
   17e6c:    0006d603            lhu     a2,0(a3)
   17e70:    fff7c793            not     a5,a5
   17e74:    8ff1                and     a5,a5,a2
   17e76:    00f69023            sh      a5,0(a3)
   17e7a:    01645783            lhu     a5,22(s0)
   17e7e:    00e7f6b3            and     a3,a5,a4
   17e82:    ce99                beqz    a3,0x17ea0
   17e84:    10e79d63            bne     a5,a4,0x17f9e
   17e88:    10099963            bnez    s3,0x17f9a
   17e8c:    445c                lw      a5,12(s0)
   17e8e:    01845703            lhu     a4,24(s0)
   17e92:    0786                slli    a5,a5,0x1
   17e94:    97a6                add     a5,a5,s1
   17e96:    0007d783            lhu     a5,0(a5)
   17e9a:    8ff9                and     a5,a5,a4
   17e9c:    10079163            bnez    a5,0x17f9e
   17ea0:    01204a63            bgtz    s2,0x17eb4
   17ea4:    4058                lw      a4,4(s0)
   17ea6:    09000793            li      a5,144
   17eaa:    00f70563            beq     a4,a5,0x17eb4
   17eae:    8526                mv      a0,s1
   17eb0:    8bbff0ef            jal     ra,0x1776a
   17eb4:    0044d783            lhu     a5,4(s1)
   17eb8:    c789                beqz    a5,0x17ec2
   17eba:    8526                mv      a0,s1
   17ebc:    877ff0ef            jal     ra,0x17732
   17ec0:    0905                addi    s2,s2,1
   17ec2:    67a1                lui     a5,0x8
   17ec4:    00049c23            sh      zero,24(s1)
   17ec8:    17f9                addi    a5,a5,-2
   17eca:    0f27d063            bge     a5,s2,0x17faa
   17ece:    77e1                lui     a5,0xffff8
   17ed0:    fff7c793            not     a5,a5
   17ed4:    00f49123            sh      a5,2(s1)
   17ed8:    00448793            addi    a5,s1,4
   17edc:    04e1                addi    s1,s1,24
   17ede:    00079023            sh      zero,0(a5) # 0xffffffffffff8000
   17ee2:    0789                addi    a5,a5,2
   17ee4:    fef49de3            bne     s1,a5,0x17ede
   17ee8:    bd5d                j       0x17d9e
   17eea:    00248793            addi    a5,s1,2
   17eee:    04e9                addi    s1,s1,26
   17ef0:    0789                addi    a5,a5,2
   17ef2:    fe079f23            sh      zero,-2(a5)
   17ef6:    fe979de3            bne     a5,s1,0x17ef0
   17efa:    b555                j       0x17d9e
   17efc:    4985                li      s3,1
   17efe:    b5f1                j       0x17dca
   17f00:    04000713            li      a4,64
   17f04:    02e78163            beq     a5,a4,0x17f26
   17f08:    07100713            li      a4,113
   17f0c:    eee797e3            bne     a5,a4,0x17dfa
   17f10:    40008737            lui     a4,0x40008
   17f14:    377d                addiw   a4,a4,-1
   17f16:    c858                sw      a4,20(s0)
   17f18:    7761                lui     a4,0xffff8
   17f1a:    00e41c23            sh      a4,24(s0)
   17f1e:    4729                li      a4,10
   17f20:    1702                slli    a4,a4,0x20
   17f22:    0729                addi    a4,a4,10
   17f24:    b5ed                j       0x17e0e
   17f26:    80010737            lui     a4,0x80010
   17f2a:    377d                addiw   a4,a4,-1
   17f2c:    c858                sw      a4,20(s0)
   17f2e:    4705                li      a4,1
   17f30:    00e41c23            sh      a4,24(s0)
   17f34:    470d                li      a4,3
   17f36:    1706                slli    a4,a4,0x21
   17f38:    071d                addi    a4,a4,7
   17f3a:    bdd1                j       0x17e0e
   17f3c:    00800737            lui     a4,0x800
   17f40:    0ff7071b            addiw   a4,a4,255
   17f44:    c858                sw      a4,20(s0)
   17f46:    10000713            li      a4,256
   17f4a:    00e41c23            sh      a4,24(s0)
   17f4e:    4719                li      a4,6
   17f50:    1702                slli    a4,a4,0x20
   17f52:    0719                addi    a4,a4,6
   17f54:    bd6d                j       0x17e0e
   17f56:    04000737            lui     a4,0x4000
   17f5a:    7ff7071b            addiw   a4,a4,2047
   17f5e:    c858                sw      a4,20(s0)
   17f60:    6705                lui     a4,0x1
   17f62:    8007071b            addiw   a4,a4,-2048
   17f66:    b7d5                j       0x17f4a
   17f68:    00800737            lui     a4,0x800
   17f6c:    0ff7071b            addiw   a4,a4,255
   17f70:    c858                sw      a4,20(s0)
   17f72:    10000713            li      a4,256
   17f76:    00e41c23            sh      a4,24(s0)
   17f7a:    4711                li      a4,4
   17f7c:    1702                slli    a4,a4,0x20
   17f7e:    0711                addi    a4,a4,4
   17f80:    b579                j       0x17e0e
   17f82:    00179613            slli    a2,a5,0x1
   17f86:    9626                add     a2,a2,s1
   17f88:    00065503            lhu     a0,0(a2)
   17f8c:    c119                beqz    a0,0x17f92
   17f8e:    00176713            ori     a4,a4,1
   17f92:    00061023            sh      zero,0(a2)
   17f96:    0785                addi    a5,a5,1
   17f98:    b5e1                j       0x17e60
   17f9a:    f00a13e3            bnez    s4,0x17ea0
   17f9e:    85a6                mv      a1,s1
   17fa0:    01a40513            addi    a0,s0,26
   17fa4:    88bff0ef            jal     ra,0x1782e
   17fa8:    bde5                j       0x17ea0
   17faa:    00095563            bgez    s2,0x17fb4
   17fae:    00049123            sh      zero,2(s1)
   17fb2:    b3f5                j       0x17d9e
   17fb4:    01249123            sh      s2,2(s1)
   17fb8:    b3dd                j       0x17d9e
   17fba:    7139                addi    sp,sp,-64
   17fbc:    e852                sd      s4,16(sp)
   17fbe:    00255a03            lhu     s4,2(a0)
   17fc2:    f822                sd      s0,48(sp)
   17fc4:    842e                mv      s0,a1
   17fc6:    fc06                sd      ra,56(sp)
   17fc8:    f426                sd      s1,40(sp)
   17fca:    f04a                sd      s2,32(sp)
   17fcc:    e456                sd      s5,8(sp)
   17fce:    e05a                sd      s6,0(sp)
   17fd0:    8932                mv      s2,a2
   17fd2:    03460b13            addi    s6,a2,52
   17fd6:    ec4e                sd      s3,24(sp)
   17fd8:    8aaa                mv      s5,a0
   17fda:    bc3ff0ef            jal     ra,0x17b9c
   17fde:    00245483            lhu     s1,2(s0)
   17fe2:    40aa0a33            sub     s4,s4,a0
   17fe6:    8522                mv      a0,s0
   17fe8:    bb5ff0ef            jal     ra,0x17b9c
   17fec:    8c89                sub     s1,s1,a0
   17fee:    855a                mv      a0,s6
   17ff0:    ee6ff0ef            jal     ra,0x176d6
   17ff4:    0344d363            bge     s1,s4,0x1801a
   17ff8:    8522                mv      a0,s0
   17ffa:    7442                ld      s0,48(sp)
   17ffc:    70e2                ld      ra,56(sp)
   17ffe:    69e2                ld      s3,24(sp)
   18000:    6a42                ld      s4,16(sp)
   18002:    6aa2                ld      s5,8(sp)
   18004:    6b02                ld      s6,0(sp)
   18006:    87ca                mv      a5,s2
   18008:    86a6                mv      a3,s1
   1800a:    7902                ld      s2,32(sp)
   1800c:    74a2                ld      s1,40(sp)
   1800e:    4701                li      a4,0
   18010:    4601                li      a2,0
   18012:    4581                li      a1,0
   18014:    6121                addi    sp,sp,64
   18016:    d45ff06f            j       0x17d5a
   1801a:    85a2                mv      a1,s0
   1801c:    8556                mv      a0,s5
   1801e:    ee8ff0ef            jal     ra,0x17706
   18022:    4981                li      s3,0
   18024:    00a04763            bgtz    a0,0x18032
   18028:    85a2                mv      a1,s0
   1802a:    8556                mv      a0,s5
   1802c:    82bff0ef            jal     ra,0x17856
   18030:    4985                li      s3,1
   18032:    855a                mv      a0,s6
   18034:    f36ff0ef            jal     ra,0x1776a
   18038:    04c95783            lhu     a5,76(s2)
   1803c:    8522                mv      a0,s0
   1803e:    14fd                addi    s1,s1,-1
   18040:    00f9e9b3            or      s3,s3,a5
   18044:    05391623            sh      s3,76(s2)
   18048:    f22ff0ef            jal     ra,0x1776a
   1804c:    b765                j       0x17ff4
   1804e:    7171                addi    sp,sp,-176
   18050:    f122                sd      s0,160(sp)
   18052:    ed26                sd      s1,152(sp)
   18054:    e54e                sd      s3,136(sp)
   18056:    e152                sd      s4,128(sp)
   18058:    f506                sd      ra,168(sp)
   1805a:    e94a                sd      s2,144(sp)
   1805c:    fcd6                sd      s5,120(sp)
   1805e:    f8da                sd      s6,112(sp)
   18060:    f4de                sd      s7,104(sp)
   18062:    f0e2                sd      s8,96(sp)
   18064:    84aa                mv      s1,a0
   18066:    842e                mv      s0,a1
   18068:    89b2                mv      s3,a2
   1806a:    8a36                mv      s4,a3
   1806c:    887ff0ef            jal     ra,0x178f2
   18070:    c10d                beqz    a0,0x18092
   18072:    85ce                mv      a1,s3
   18074:    8526                mv      a0,s1
   18076:    e44ff0ef            jal     ra,0x176ba
   1807a:    70aa                ld      ra,168(sp)
   1807c:    740a                ld      s0,160(sp)
   1807e:    64ea                ld      s1,152(sp)
   18080:    694a                ld      s2,144(sp)
   18082:    69aa                ld      s3,136(sp)
   18084:    6a0a                ld      s4,128(sp)
   18086:    7ae6                ld      s5,120(sp)
   18088:    7b46                ld      s6,112(sp)
   1808a:    7ba6                ld      s7,104(sp)
   1808c:    7c06                ld      s8,96(sp)
   1808e:    614d                addi    sp,sp,176
   18090:    8082                ret

   18092:    8522                mv      a0,s0
   18094:    85fff0ef            jal     ra,0x178f2
   18098:    c501                beqz    a0,0x180a0
   1809a:    85ce                mv      a1,s3
   1809c:    8522                mv      a0,s0
   1809e:    bfe1                j       0x18076
   180a0:    8526                mv      a0,s1
   180a2:    9d7ff0ef            jal     ra,0x17a78
   180a6:    e521                bnez    a0,0x180ee
   180a8:    8522                mv      a0,s0
   180aa:    9cfff0ef            jal     ra,0x17a78
   180ae:    c901                beqz    a0,0x180be
   180b0:    65f5                lui     a1,0x1d
   180b2:    49058593            addi    a1,a1,1168 # 0x1d490
   180b6:    8526                mv      a0,s1
   180b8:    91dff0ef            jal     ra,0x179d4
   180bc:    c121                beqz    a0,0x180fc
   180be:    8526                mv      a0,s1
   180c0:    9b9ff0ef            jal     ra,0x17a78
   180c4:    e509                bnez    a0,0x180ce
   180c6:    8522                mv      a0,s0
   180c8:    9b1ff0ef            jal     ra,0x17a78
   180cc:    cd1d                beqz    a0,0x1810a
   180ce:    8526                mv      a0,s1
   180d0:    849ff0ef            jal     ra,0x17918
   180d4:    84aa                mv      s1,a0
   180d6:    8522                mv      a0,s0
   180d8:    841ff0ef            jal     ra,0x17918
   180dc:    02a48463            beq     s1,a0,0x18104
   180e0:    77e1                lui     a5,0xffff8
   180e2:    00f99923            sh      a5,18(s3)
   180e6:    854e                mv      a0,s3
   180e8:    9b5ff0ef            jal     ra,0x17a9c
   180ec:    b779                j       0x1807a
   180ee:    65f5                lui     a1,0x1d
   180f0:    49058593            addi    a1,a1,1168 # 0x1d490
   180f4:    8522                mv      a0,s0
   180f6:    8dfff0ef            jal     ra,0x179d4
   180fa:    f55d                bnez    a0,0x180a8
   180fc:    854e                mv      a0,s3
   180fe:    b35ff0ef            jal     ra,0x17c32
   18102:    bfa5                j       0x1807a
   18104:    00099923            sh      zero,18(s3)
   18108:    bff9                j       0x180e6
   1810a:    8526                mv      a0,s1
   1810c:    858a                mv      a1,sp
   1810e:    82dff0ef            jal     ra,0x1793a
   18112:    8522                mv      a0,s0
   18114:    100c                addi    a1,sp,32
   18116:    825ff0ef            jal     ra,0x1793a
   1811a:    00215403            lhu     s0,2(sp)
   1811e:    02215483            lhu     s1,34(sp)
   18122:    c84d                beqz    s0,0x181d4
   18124:    02215783            lhu     a5,34(sp)
   18128:    8b26                mv      s6,s1
   1812a:    cfcd                beqz    a5,0x181e4
   1812c:    5782                lw      a5,32(sp)
   1812e:    034a0913            addi    s2,s4,52
   18132:    04ea0b93            addi    s7,s4,78
   18136:    02fa2a23            sw      a5,52(s4)
   1813a:    038a0793            addi    a5,s4,56
   1813e:    00079023            sh      zero,0(a5) # 0xffffffffffff8000
   18142:    0789                addi    a5,a5,2
   18144:    ff779de3            bne     a5,s7,0x1813e
   18148:    848a                mv      s1,sp
   1814a:    fec10c13            addi    s8,sp,-20
   1814e:    4a81                li      s5,0
   18150:    0184d503            lhu     a0,24(s1)
   18154:    c909                beqz    a0,0x18166
   18156:    100c                addi    a1,sp,32
   18158:    0090                addi    a2,sp,64
   1815a:    f24ff0ef            jal     ra,0x1787e
   1815e:    85ca                mv      a1,s2
   18160:    0088                addi    a0,sp,64
   18162:    eccff0ef            jal     ra,0x1782e
   18166:    04ca5783            lhu     a5,76(s4)
   1816a:    854a                mv      a0,s2
   1816c:    14f9                addi    s1,s1,-2
   1816e:    00faeab3            or      s5,s5,a5
   18172:    ea0ff0ef            jal     ra,0x17812
   18176:    fc9c1de3            bne     s8,s1,0x18150
   1817a:    85ca                mv      a1,s2
   1817c:    101c                addi    a5,sp,32
   1817e:    0005d703            lhu     a4,0(a1)
   18182:    0589                addi    a1,a1,2
   18184:    0789                addi    a5,a5,2
   18186:    fee79f23            sh      a4,-2(a5)
   1818a:    ff759ae3            bne     a1,s7,0x1817e
   1818e:    76f1                lui     a3,0xffffc
   18190:    945a                add     s0,s0,s6
   18192:    0689                addi    a3,a3,2
   18194:    87d2                mv      a5,s4
   18196:    04000713            li      a4,64
   1819a:    96a2                add     a3,a3,s0
   1819c:    4601                li      a2,0
   1819e:    85d6                mv      a1,s5
   181a0:    1008                addi    a0,sp,32
   181a2:    bb9ff0ef            jal     ra,0x17d5a
   181a6:    00015703            lhu     a4,0(sp)
   181aa:    02015783            lhu     a5,32(sp)
   181ae:    04f71963            bne     a4,a5,0x18200
   181b2:    02011023            sh      zero,32(sp)
   181b6:    85ce                mv      a1,s3
   181b8:    1008                addi    a0,sp,32
   181ba:    a91ff0ef            jal     ra,0x17c4a
   181be:    bd75                j       0x1807a
   181c0:    0789                addi    a5,a5,2
   181c2:    0027d683            lhu     a3,2(a5)
   181c6:    ca89                beqz    a3,0x181d8
   181c8:    850a                mv      a0,sp
   181ca:    9d3ff0ef            jal     ra,0x17b9c
   181ce:    40a00433            neg     s0,a0
   181d2:    bf89                j       0x18124
   181d4:    878a                mv      a5,sp
   181d6:    0858                addi    a4,sp,20
   181d8:    fee794e3            bne     a5,a4,0x181c0
   181dc:    854e                mv      a0,s3
   181de:    cccff0ef            jal     ra,0x176aa
   181e2:    bd61                j       0x1807a
   181e4:    101c                addi    a5,sp,32
   181e6:    1858                addi    a4,sp,52
   181e8:    fee78ae3            beq     a5,a4,0x181dc
   181ec:    0789                addi    a5,a5,2
   181ee:    0027d683            lhu     a3,2(a5)
   181f2:    dafd                beqz    a3,0x181e8
   181f4:    1008                addi    a0,sp,32
   181f6:    9a7ff0ef            jal     ra,0x17b9c
   181fa:    40a48b33            sub     s6,s1,a0
   181fe:    b73d                j       0x1812c
   18200:    57fd                li      a5,-1
   18202:    02f11023            sh      a5,32(sp)
   18206:    bf45                j       0x181b6
   18208:    7131                addi    sp,sp,-192
   1820a:    f922                sd      s0,176(sp)
   1820c:    f526                sd      s1,168(sp)
   1820e:    f14a                sd      s2,160(sp)
   18210:    e556                sd      s5,136(sp)
   18212:    fd06                sd      ra,184(sp)
   18214:    ed4e                sd      s3,152(sp)
   18216:    e952                sd      s4,144(sp)
   18218:    e15a                sd      s6,128(sp)
   1821a:    fcde                sd      s7,120(sp)
   1821c:    f8e2                sd      s8,112(sp)
   1821e:    f4e6                sd      s9,104(sp)
   18220:    84aa                mv      s1,a0
   18222:    842e                mv      s0,a1
   18224:    8932                mv      s2,a2
   18226:    8ab6                mv      s5,a3
   18228:    ecaff0ef            jal     ra,0x178f2
   1822c:    c115                beqz    a0,0x18250
   1822e:    85ca                mv      a1,s2
   18230:    8526                mv      a0,s1
   18232:    c88ff0ef            jal     ra,0x176ba
   18236:    70ea                ld      ra,184(sp)
   18238:    744a                ld      s0,176(sp)
   1823a:    74aa                ld      s1,168(sp)
   1823c:    790a                ld      s2,160(sp)
   1823e:    69ea                ld      s3,152(sp)
   18240:    6a4a                ld      s4,144(sp)
   18242:    6aaa                ld      s5,136(sp)
   18244:    6b0a                ld      s6,128(sp)
   18246:    7be6                ld      s7,120(sp)
   18248:    7c46                ld      s8,112(sp)
   1824a:    7ca6                ld      s9,104(sp)
   1824c:    6129                addi    sp,sp,192
   1824e:    8082                ret

   18250:    8522                mv      a0,s0
   18252:    ea0ff0ef            jal     ra,0x178f2
   18256:    c501                beqz    a0,0x1825e
   18258:    85ca                mv      a1,s2
   1825a:    8522                mv      a0,s0
   1825c:    bfd9                j       0x18232
   1825e:    69f5                lui     s3,0x1d
   18260:    49098593            addi    a1,s3,1168 # 0x1d490
   18264:    8526                mv      a0,s1
   18266:    f6eff0ef            jal     ra,0x179d4
   1826a:    c91d                beqz    a0,0x182a0
   1826c:    8526                mv      a0,s1
   1826e:    80bff0ef            jal     ra,0x17a78
   18272:    89aa                mv      s3,a0
   18274:    8522                mv      a0,s0
   18276:    803ff0ef            jal     ra,0x17a78
   1827a:    02099d63            bnez    s3,0x182b4
   1827e:    c121                beqz    a0,0x182be
   18280:    8526                mv      a0,s1
   18282:    e96ff0ef            jal     ra,0x17918
   18286:    84aa                mv      s1,a0
   18288:    8522                mv      a0,s0
   1828a:    e8eff0ef            jal     ra,0x17918
   1828e:    18a48563            beq     s1,a0,0x18418
   18292:    77e1                lui     a5,0xffff8
   18294:    00f91923            sh      a5,18(s2)
   18298:    854a                mv      a0,s2
   1829a:    803ff0ef            jal     ra,0x17a9c
   1829e:    bf61                j       0x18236
   182a0:    49098593            addi    a1,s3,1168
   182a4:    8522                mv      a0,s0
   182a6:    f2eff0ef            jal     ra,0x179d4
   182aa:    f169                bnez    a0,0x1826c
   182ac:    854a                mv      a0,s2
   182ae:    985ff0ef            jal     ra,0x17c32
   182b2:    b751                j       0x18236
   182b4:    fd65                bnez    a0,0x182ac
   182b6:    854a                mv      a0,s2
   182b8:    bf2ff0ef            jal     ra,0x176aa
   182bc:    bfad                j       0x18236
   182be:    8526                mv      a0,s1
   182c0:    858a                mv      a1,sp
   182c2:    e78ff0ef            jal     ra,0x1793a
   182c6:    8522                mv      a0,s0
   182c8:    100c                addi    a1,sp,32
   182ca:    e70ff0ef            jal     ra,0x1793a
   182ce:    02215483            lhu     s1,34(sp)
   182d2:    00215403            lhu     s0,2(sp)
   182d6:    0e048f63            beqz    s1,0x183d4
   182da:    00215783            lhu     a5,2(sp)
   182de:    8ba2                mv      s7,s0
   182e0:    12078263            beqz    a5,0x18404
   182e4:    5702                lw      a4,32(sp)
   182e6:    038a8793            addi    a5,s5,56
   182ea:    04ea8b13            addi    s6,s5,78
   182ee:    02eaaa23            sw      a4,52(s5)
   182f2:    89be                mv      s3,a5
   182f4:    0789                addi    a5,a5,2
   182f6:    fe079f23            sh      zero,-2(a5) # 0xffffffffffff7ffe
   182fa:    ff679de3            bne     a5,s6,0x182f4
   182fe:    1008                addi    a0,sp,32
   18300:    c32ff0ef            jal     ra,0x17732
   18304:    00615c03            lhu     s8,6(sp)
   18308:    6a41                lui     s4,0x10
   1830a:    1a7d                addi    s4,s4,-1
   1830c:    034c0cb3            mul     s9,s8,s4
   18310:    02415783            lhu     a5,36(sp)
   18314:    02615403            lhu     s0,38(sp)
   18318:    07c2                slli    a5,a5,0x10
   1831a:    97a2                add     a5,a5,s0
   1831c:    8452                mv      s0,s4
   1831e:    00fce663            bltu    s9,a5,0x1832a
   18322:    0387d433            divu    s0,a5,s8
   18326:    1442                slli    s0,s0,0x30
   18328:    9041                srli    s0,s0,0x30
   1832a:    858a                mv      a1,sp
   1832c:    8522                mv      a0,s0
   1832e:    0090                addi    a2,sp,64
   18330:    d4eff0ef            jal     ra,0x1787e
   18334:    100c                addi    a1,sp,32
   18336:    0088                addi    a0,sp,64
   18338:    bceff0ef            jal     ra,0x17706
   1833c:    00a05f63            blez    a0,0x1835a
   18340:    008c                addi    a1,sp,64
   18342:    850a                mv      a0,sp
   18344:    d12ff0ef            jal     ra,0x17856
   18348:    100c                addi    a1,sp,32
   1834a:    0088                addi    a0,sp,64
   1834c:    bbaff0ef            jal     ra,0x17706
   18350:    0ca04763            bgtz    a0,0x1841e
   18354:    347d                addiw   s0,s0,-1
   18356:    1442                slli    s0,s0,0x30
   18358:    9041                srli    s0,s0,0x30
   1835a:    100c                addi    a1,sp,32
   1835c:    0088                addi    a0,sp,64
   1835e:    cf8ff0ef            jal     ra,0x17856
   18362:    1008                addi    a0,sp,32
   18364:    00899023            sh      s0,0(s3)
   18368:    0989                addi    s3,s3,2
   1836a:    c8cff0ef            jal     ra,0x177f6
   1836e:    fb3b11e3            bne     s6,s3,0x18310
   18372:    1018                addi    a4,sp,32
   18374:    03610693            addi    a3,sp,54
   18378:    87ba                mv      a5,a4
   1837a:    4581                li      a1,0
   1837c:    0047d603            lhu     a2,4(a5)
   18380:    0789                addi    a5,a5,2
   18382:    8dd1                or      a1,a1,a2
   18384:    fef69ce3            bne     a3,a5,0x1837c
   18388:    2581                sext.w  a1,a1
   1838a:    00b035b3            snez    a1,a1
   1838e:    034a8793            addi    a5,s5,52
   18392:    0007d683            lhu     a3,0(a5)
   18396:    0789                addi    a5,a5,2
   18398:    0709                addi    a4,a4,2
   1839a:    fed71f23            sh      a3,-2(a4) # 0x7ffffe
   1839e:    fefb1ae3            bne     s6,a5,0x18392
   183a2:    6691                lui     a3,0x4
   183a4:    417484b3            sub     s1,s1,s7
   183a8:    16fd                addi    a3,a3,-1
   183aa:    87d6                mv      a5,s5
   183ac:    04000713            li      a4,64
   183b0:    96a6                add     a3,a3,s1
   183b2:    4601                li      a2,0
   183b4:    1008                addi    a0,sp,32
   183b6:    9a5ff0ef            jal     ra,0x17d5a
   183ba:    00015703            lhu     a4,0(sp)
   183be:    02015783            lhu     a5,32(sp)
   183c2:    06f71663            bne     a4,a5,0x1842e
   183c6:    02011023            sh      zero,32(sp)
   183ca:    85ca                mv      a1,s2
   183cc:    1008                addi    a0,sp,32
   183ce:    87dff0ef            jal     ra,0x17c4a
   183d2:    b595                j       0x18236
   183d4:    101c                addi    a5,sp,32
   183d6:    1858                addi    a4,sp,52
   183d8:    ece78fe3            beq     a5,a4,0x182b6
   183dc:    0789                addi    a5,a5,2
   183de:    0027d683            lhu     a3,2(a5)
   183e2:    dafd                beqz    a3,0x183d8
   183e4:    1008                addi    a0,sp,32
   183e6:    fb6ff0ef            jal     ra,0x17b9c
   183ea:    40a004b3            neg     s1,a0
   183ee:    b5f5                j       0x182da
   183f0:    0789                addi    a5,a5,2
   183f2:    0027d683            lhu     a3,2(a5)
   183f6:    ca89                beqz    a3,0x18408
   183f8:    850a                mv      a0,sp
   183fa:    fa2ff0ef            jal     ra,0x17b9c
   183fe:    40a40bb3            sub     s7,s0,a0
   18402:    b5cd                j       0x182e4
   18404:    878a                mv      a5,sp
   18406:    0858                addi    a4,sp,20
   18408:    fee794e3            bne     a5,a4,0x183f0
   1840c:    00015703            lhu     a4,0(sp)
   18410:    02015783            lhu     a5,32(sp)
   18414:    e6f71fe3            bne     a4,a5,0x18292
   18418:    00091923            sh      zero,18(s2)
   1841c:    bdb5                j       0x18298
   1841e:    3479                addiw   s0,s0,-2
   18420:    1442                slli    s0,s0,0x30
   18422:    008c                addi    a1,sp,64
   18424:    850a                mv      a0,sp
   18426:    9041                srli    s0,s0,0x30
   18428:    c2eff0ef            jal     ra,0x17856
   1842c:    b73d                j       0x1835a
   1842e:    57fd                li      a5,-1
   18430:    02f11023            sh      a5,32(sp)
   18434:    bf59                j       0x183ca
   18436:    db010113            addi    sp,sp,-592
   1843a:    21813023            sd      s8,512(sp)
   1843e:    8c3e                mv      s8,a5
   18440:    09100793            li      a5,145
   18444:    e0ae                sd      a1,64(sp)
   18446:    1782                slli    a5,a5,0x20
   18448:    712c                ld      a1,96(a0)
   1844a:    17fd                addi    a5,a5,-1
   1844c:    24813023            sd      s0,576(sp)
   18450:    23413023            sd      s4,544(sp)
   18454:    21613823            sd      s6,528(sp)
   18458:    21713423            sd      s7,520(sp)
   1845c:    24113423            sd      ra,584(sp)
   18460:    22913c23            sd      s1,568(sp)
   18464:    23213823            sd      s2,560(sp)
   18468:    23313423            sd      s3,552(sp)
   1846c:    21513c23            sd      s5,536(sp)
   18470:    ffe6                sd      s9,504(sp)
   18472:    fbea                sd      s10,496(sp)
   18474:    f7ee                sd      s11,488(sp)
   18476:    f046                sd      a7,32(sp)
   18478:    e4b2                sd      a2,72(sp)
   1847a:    eb3e                sd      a5,400(sp)
   1847c:    8a2a                mv      s4,a0
   1847e:    8b36                mv      s6,a3
   18480:    8bba                mv      s7,a4
   18482:    8442                mv      s0,a6
   18484:    c999                beqz    a1,0x1849a
   18486:    5538                lw      a4,104(a0)
   18488:    4785                li      a5,1
   1848a:    00e797bb            sllw    a5,a5,a4
   1848e:    c598                sw      a4,8(a1)
   18490:    c5dc                sw      a5,12(a1)
   18492:    255000ef            jal     ra,0x18ee6
   18496:    060a3023            sd      zero,96(s4) # 0x10060
   1849a:    0088                addi    a0,sp,64
   1849c:    188c                addi    a1,sp,112
   1849e:    ffeff0ef            jal     ra,0x17c9c
   184a2:    1888                addi    a0,sp,112
   184a4:    c74ff0ef            jal     ra,0x17918
   184a8:    cd4d                beqz    a0,0x18562
   184aa:    4785                li      a5,1
   184ac:    c01c                sw      a5,0(s0)
   184ae:    478d                li      a5,3
   184b0:    0afb0c63            beq     s6,a5,0x18568
   184b4:    49d1                li      s3,20
   184b6:    000b0c63            beqz    s6,0x184ce
   184ba:    fffb879b            addiw   a5,s7,-1
   184be:    02a00713            li      a4,42
   184c2:    0007899b            sext.w  s3,a5
   184c6:    00f75463            bge     a4,a5,0x184ce
   184ca:    02a00993            li      s3,42
   184ce:    19412783            lw      a5,404(sp)
   184d2:    1888                addi    a0,sp,112
   184d4:    f43e                sd      a5,40(sp)
   184d6:    c1cff0ef            jal     ra,0x178f2
   184da:    842a                mv      s0,a0
   184dc:    c941                beqz    a0,0x1856c
   184de:    0001d5b7            lui     a1,0x1d
   184e2:    6f858593            addi    a1,a1,1784 # 0x1d6f8
   184e6:    0a88                addi    a0,sp,336
   184e8:    6409                lui     s0,0x2
   184ea:    d74fb0ef            jal     ra,0x13a5e
   184ee:    70f40413            addi    s0,s0,1807 # 0x270f
   184f2:    77a2                ld      a5,40(sp)
   184f4:    1888                addi    a0,sp,112
   184f6:    1a812023            sw      s0,416(sp)
   184fa:    18f12a23            sw      a5,404(sp)
   184fe:    d7aff0ef            jal     ra,0x17a78
   18502:    15010913            addi    s2,sp,336
   18506:    e511                bnez    a0,0x18512
   18508:    1888                addi    a0,sp,112
   1850a:    be8ff0ef            jal     ra,0x178f2
   1850e:    6e050463            beqz    a0,0x18bf6
   18512:    6789                lui     a5,0x2
   18514:    70f7879b            addiw   a5,a5,1807
   18518:    00fc2023            sw      a5,0(s8)
   1851c:    87ca                mv      a5,s2
   1851e:    02000613            li      a2,32
   18522:    02d00693            li      a3,45
   18526:    0007c703            lbu     a4,0(a5) # 0x2000
   1852a:    70c70b63            beq     a4,a2,0x18c40
   1852e:    70d70963            beq     a4,a3,0x18c40
   18532:    84ca                mv      s1,s2
   18534:    0785                addi    a5,a5,1
   18536:    fff7c703            lbu     a4,-1(a5)
   1853a:    00148693            addi    a3,s1,1
   1853e:    fee68fa3            sb      a4,-1(a3) # 0x3fff
   18542:    70071263            bnez    a4,0x18c46
   18546:    4709                li      a4,2
   18548:    4785                li      a5,1
   1854a:    00eb0863            beq     s6,a4,0x1855a
   1854e:    0009879b            sext.w  a5,s3
   18552:    0089d463            bge     s3,s0,0x1855a
   18556:    0004079b            sext.w  a5,s0
   1855a:    03000693            li      a3,48
   1855e:    6f40006f            j       0x18c52
   18562:    00042023            sw      zero,0(s0)
   18566:    b7a1                j       0x184ae
   18568:    87de                mv      a5,s7
   1856a:    bf91                j       0x184be
   1856c:    09000793            li      a5,144
   18570:    090c                addi    a1,sp,144
   18572:    1888                addi    a0,sp,112
   18574:    18f12a23            sw      a5,404(sp)
   18578:    942ff0ef            jal     ra,0x176ba
   1857c:    0a215783            lhu     a5,162(sp)
   18580:    e402                sd      zero,8(sp)
   18582:    0107971b            slliw   a4,a5,0x10
   18586:    4107571b            sraiw   a4,a4,0x10
   1858a:    02071693            slli    a3,a4,0x20
   1858e:    0006d963            bgez    a3,0x185a0
   18592:    17c6                slli    a5,a5,0x31
   18594:    93c5                srli    a5,a5,0x31
   18596:    0af11123            sh      a5,162(sp)
   1859a:    67c1                lui     a5,0x10
   1859c:    17fd                addi    a5,a5,-1
   1859e:    e43e                sd      a5,8(sp)
   185a0:    64f5                lui     s1,0x1d
   185a2:    49048513            addi    a0,s1,1168 # 0x1d490
   185a6:    190c                addi    a1,sp,176
   185a8:    12050513            addi    a0,a0,288
   185ac:    90eff0ef            jal     ra,0x176ba
   185b0:    0a215703            lhu     a4,162(sp)
   185b4:    ec26                sd      s1,24(sp)
   185b6:    6975                lui     s2,0x1d
   185b8:    49048493            addi    s1,s1,1168
   185bc:    5b090913            addi    s2,s2,1456 # 0x1d5b0
   185c0:    72071d63            bnez    a4,0x18cfa
   185c4:    091c                addi    a5,sp,144
   185c6:    0a210713            addi    a4,sp,162
   185ca:    0007d683            lhu     a3,0(a5) # 0x10000
   185ce:    eae1                bnez    a3,0x1869e
   185d0:    0789                addi    a5,a5,2
   185d2:    fef71ce3            bne     a4,a5,0x185ca
   185d6:    198c                addi    a1,sp,240
   185d8:    1908                addi    a0,sp,176
   185da:    b60ff0ef            jal     ra,0x1793a
   185de:    190c                addi    a1,sp,176
   185e0:    1988                addi    a0,sp,240
   185e2:    904ff0ef            jal     ra,0x176e6
   185e6:    198c                addi    a1,sp,240
   185e8:    0908                addi    a0,sp,144
   185ea:    b50ff0ef            jal     ra,0x1793a
   185ee:    090c                addi    a1,sp,144
   185f0:    1988                addi    a0,sp,240
   185f2:    8f4ff0ef            jal     ra,0x176e6
   185f6:    0b10                addi    a2,sp,400
   185f8:    090c                addi    a1,sp,144
   185fa:    1908                addi    a0,sp,176
   185fc:    9bfff0ef            jal     ra,0x17fba
   18600:    1dc15483            lhu     s1,476(sp)
   18604:    e889                bnez    s1,0x18616
   18606:    67e2                ld      a5,24(sp)
   18608:    0908                addi    a0,sp,144
   1860a:    49078593            addi    a1,a5,1168
   1860e:    bc6ff0ef            jal     ra,0x179d4
   18612:    4a051663            bnez    a0,0x18abe
   18616:    67a2                ld      a5,8(sp)
   18618:    4c078d63            beqz    a5,0x18af2
   1861c:    02d00793            li      a5,45
   18620:    14f10823            sb      a5,336(sp)
   18624:    478d                li      a5,3
   18626:    894e                mv      s2,s3
   18628:    00fb1b63            bne     s6,a5,0x1863e
   1862c:    0089873b            addw    a4,s3,s0
   18630:    02a00793            li      a5,42
   18634:    893a                mv      s2,a4
   18636:    00e7d463            bge     a5,a4,0x1863e
   1863a:    02a00913            li      s2,42
   1863e:    47a9                li      a5,10
   18640:    4af49c63            bne     s1,a5,0x18af8
   18644:    03100793            li      a5,49
   18648:    14f108a3            sb      a5,337(sp)
   1864c:    02e00793            li      a5,46
   18650:    14f10923            sb      a5,338(sp)
   18654:    15310a93            addi    s5,sp,339
   18658:    01205963            blez    s2,0x1866a
   1865c:    03000793            li      a5,48
   18660:    14f109a3            sb      a5,339(sp)
   18664:    397d                addiw   s2,s2,-1
   18666:    15410a93            addi    s5,sp,340
   1866a:    2405                addiw   s0,s0,1
   1866c:    4a095063            bgez    s2,0x18b0c
   18670:    0001d5b7            lui     a1,0x1d
   18674:    8622                mv      a2,s0
   18676:    72858593            addi    a1,a1,1832 # 0x1d728
   1867a:    8556                mv      a0,s5
   1867c:    be2fb0ef            jal     ra,0x13a5e
   18680:    bd8d                j       0x184f2
   18682:    0001d5b7            lui     a1,0x1d
   18686:    71058593            addi    a1,a1,1808 # 0x1d710
   1868a:    bdb1                j       0x184e6
   1868c:    0a011783            lh      a5,160(sp)
   18690:    0007c763            bltz    a5,0x1869e
   18694:    0001d5b7            lui     a1,0x1d
   18698:    72058593            addi    a1,a1,1824 # 0x1d720
   1869c:    b5a9                j       0x184e6
   1869e:    090c                addi    a1,sp,144
   186a0:    854a                mv      a0,s2
   186a2:    b32ff0ef            jal     ra,0x179d4
   186a6:    d905                beqz    a0,0x185d6
   186a8:    30055063            bgez    a0,0x189a8
   186ac:    098c                addi    a1,sp,208
   186ae:    0908                addi    a0,sp,144
   186b0:    80aff0ef            jal     ra,0x176ba
   186b4:    6791                lui     a5,0x4
   186b6:    08e7879b            addiw   a5,a5,142
   186ba:    0ef11123            sh      a5,226(sp)
   186be:    47c1                li      a5,16
   186c0:    e83e                sd      a5,16(sp)
   186c2:    67a1                lui     a5,0x8
   186c4:    17fd                addi    a5,a5,-1
   186c6:    f83e                sd      a5,48(sp)
   186c8:    77f1                lui     a5,0xffffc
   186ca:    2789                addiw   a5,a5,2
   186cc:    0b848c93            addi    s9,s1,184
   186d0:    de3e                sw      a5,60(sp)
   186d2:    0b14                addi    a3,sp,400
   186d4:    1910                addi    a2,sp,176
   186d6:    098c                addi    a1,sp,208
   186d8:    8566                mv      a0,s9
   186da:    b2fff0ef            jal     ra,0x18208
   186de:    08ac                addi    a1,sp,88
   186e0:    1908                addi    a0,sp,176
   186e2:    fd9fe0ef            jal     ra,0x176ba
   186e6:    77c2                ld      a5,48(sp)
   186e8:    06a15a83            lhu     s5,106(sp)
   186ec:    00fafdb3            and     s11,s5,a5
   186f0:    57f2                lw      a5,60(sp)
   186f2:    00fd87bb            addw    a5,s11,a5
   186f6:    8dbe                mv      s11,a5
   186f8:    04f04163            bgtz    a5,0x1873a
   186fc:    1988                addi    a0,sp,240
   186fe:    fadfe0ef            jal     ra,0x176aa
   18702:    010a9a9b            slliw   s5,s5,0x10
   18706:    410ada9b            sraiw   s5,s5,0x10
   1870a:    020a9793            slli    a5,s5,0x20
   1870e:    0a07df63            bgez    a5,0x187cc
   18712:    4781                li      a5,0
   18714:    08b8                addi    a4,sp,88
   18716:    973e                add     a4,a4,a5
   18718:    00075683            lhu     a3,0(a4)
   1871c:    1998                addi    a4,sp,240
   1871e:    973e                add     a4,a4,a5
   18720:    00075703            lhu     a4,0(a4)
   18724:    26e68d63            beq     a3,a4,0x1899e
   18728:    854a                mv      a0,s2
   1872a:    9c8ff0ef            jal     ra,0x178f2
   1872e:    c12d                beqz    a0,0x18790
   18730:    198c                addi    a1,sp,240
   18732:    854a                mv      a0,s2
   18734:    f87fe0ef            jal     ra,0x176ba
   18738:    a851                j       0x187cc
   1873a:    09000793            li      a5,144
   1873e:    41b78d3b            subw    s10,a5,s11
   18742:    198c                addi    a1,sp,240
   18744:    08a8                addi    a0,sp,88
   18746:    8dea                mv      s11,s10
   18748:    f73fe0ef            jal     ra,0x176ba
   1874c:    09a05063            blez    s10,0x187cc
   18750:    199c                addi    a5,sp,240
   18752:    876a                mv      a4,s10
   18754:    46bd                li      a3,15
   18756:    02e6c863            blt     a3,a4,0x18786
   1875a:    004dd69b            srliw   a3,s11,0x4
   1875e:    02069713            slli    a4,a3,0x20
   18762:    199c                addi    a5,sp,240
   18764:    837d                srli    a4,a4,0x1f
   18766:    973e                add     a4,a4,a5
   18768:    57c1                li      a5,-16
   1876a:    02d787bb            mulw    a5,a5,a3
   1876e:    00075683            lhu     a3,0(a4)
   18772:    01b787bb            addw    a5,a5,s11
   18776:    0786                slli    a5,a5,0x1
   18778:    97a6                add     a5,a5,s1
   1877a:    1387d783            lhu     a5,312(a5) # 0xffffffffffffc138
   1877e:    8ff5                and     a5,a5,a3
   18780:    00f71023            sh      a5,0(a4)
   18784:    bfbd                j       0x18702
   18786:    00079023            sh      zero,0(a5)
   1878a:    3741                addiw   a4,a4,-16
   1878c:    0789                addi    a5,a5,2
   1878e:    b7e1                j       0x18756
   18790:    1988                addi    a0,sp,240
   18792:    960ff0ef            jal     ra,0x178f2
   18796:    c501                beqz    a0,0x1879e
   18798:    198c                addi    a1,sp,240
   1879a:    852e                mv      a0,a1
   1879c:    bf61                j       0x18734
   1879e:    854a                mv      a0,s2
   187a0:    ad8ff0ef            jal     ra,0x17a78
   187a4:    8aaa                mv      s5,a0
   187a6:    1988                addi    a0,sp,240
   187a8:    ad0ff0ef            jal     ra,0x17a78
   187ac:    8d2a                mv      s10,a0
   187ae:    0e0a8363            beqz    s5,0x18894
   187b2:    c171                beqz    a0,0x18876
   187b4:    854a                mv      a0,s2
   187b6:    962ff0ef            jal     ra,0x17918
   187ba:    8aaa                mv      s5,a0
   187bc:    1988                addi    a0,sp,240
   187be:    95aff0ef            jal     ra,0x17918
   187c2:    0aaa9a63            bne     s5,a0,0x18876
   187c6:    1988                addi    a0,sp,240
   187c8:    c6aff0ef            jal     ra,0x17c32
   187cc:    4781                li      a5,0
   187ce:    1918                addi    a4,sp,176
   187d0:    973e                add     a4,a4,a5
   187d2:    00075683            lhu     a3,0(a4)
   187d6:    1998                addi    a4,sp,240
   187d8:    973e                add     a4,a4,a5
   187da:    00075703            lhu     a4,0(a4)
   187de:    00e69c63            bne     a3,a4,0x187f6
   187e2:    0789                addi    a5,a5,2
   187e4:    4749                li      a4,18
   187e6:    fee794e3            bne     a5,a4,0x187ce
   187ea:    098c                addi    a1,sp,208
   187ec:    1908                addi    a0,sp,176
   187ee:    ecdfe0ef            jal     ra,0x176ba
   187f2:    67c2                ld      a5,16(sp)
   187f4:    9c3d                addw    s0,s0,a5
   187f6:    67c2                ld      a5,16(sp)
   187f8:    0cd1                addi    s9,s9,20
   187fa:    01848d13            addi    s10,s1,24
   187fe:    8385                srli    a5,a5,0x1
   18800:    e83e                sd      a5,16(sp)
   18802:    11c48793            addi    a5,s1,284
   18806:    ecfc96e3            bne     s9,a5,0x186d2
   1880a:    0e215783            lhu     a5,226(sp)
   1880e:    0a215703            lhu     a4,162(sp)
   18812:    090c                addi    a1,sp,144
   18814:    0988                addi    a0,sp,208
   18816:    9fb9                addw    a5,a5,a4
   18818:    7771                lui     a4,0xffffc
   1881a:    f727071b            addiw   a4,a4,-142
   1881e:    9fb9                addw    a5,a5,a4
   18820:    0ef11123            sh      a5,226(sp)
   18824:    e97fe0ef            jal     ra,0x176ba
   18828:    190c                addi    a1,sp,176
   1882a:    854a                mv      a0,s2
   1882c:    e8ffe0ef            jal     ra,0x176ba
   18830:    6a85                lui     s5,0x1
   18832:    10848493            addi    s1,s1,264
   18836:    098c                addi    a1,sp,208
   18838:    8526                mv      a0,s1
   1883a:    99aff0ef            jal     ra,0x179d4
   1883e:    d8a04ce3            bgtz    a0,0x185d6
   18842:    098c                addi    a1,sp,208
   18844:    856a                mv      a0,s10
   18846:    98eff0ef            jal     ra,0x179d4
   1884a:    02a04063            bgtz    a0,0x1886a
   1884e:    0990                addi    a2,sp,208
   18850:    85b2                mv      a1,a2
   18852:    0b14                addi    a3,sp,400
   18854:    856a                mv      a0,s10
   18856:    9b3ff0ef            jal     ra,0x18208
   1885a:    1910                addi    a2,sp,176
   1885c:    0b14                addi    a3,sp,400
   1885e:    85b2                mv      a1,a2
   18860:    856a                mv      a0,s10
   18862:    fecff0ef            jal     ra,0x1804e
   18866:    008a843b            addw    s0,s5,s0
   1886a:    001ada93            srli    s5,s5,0x1
   1886e:    d69d04e3            beq     s10,s1,0x185d6
   18872:    0d51                addi    s10,s10,20
   18874:    b7c9                j       0x18836
   18876:    854a                mv      a0,s2
   18878:    198c                addi    a1,sp,240
   1887a:    e41fe0ef            jal     ra,0x176ba
   1887e:    1988                addi    a0,sp,240
   18880:    872ff0ef            jal     ra,0x178f2
   18884:    f521                bnez    a0,0x187cc
   18886:    10215783            lhu     a5,258(sp)
   1888a:    7761                lui     a4,0xffff8
   1888c:    8fb9                xor     a5,a5,a4
   1888e:    10f11123            sh      a5,258(sp)
   18892:    bf2d                j       0x187cc
   18894:    f00512e3            bnez    a0,0x18798
   18898:    0a0c                addi    a1,sp,272
   1889a:    854a                mv      a0,s2
   1889c:    89eff0ef            jal     ra,0x1793a
   188a0:    1a0c                addi    a1,sp,304
   188a2:    1988                addi    a0,sp,240
   188a4:    896ff0ef            jal     ra,0x1793a
   188a8:    11015783            lhu     a5,272(sp)
   188ac:    11215d83            lhu     s11,274(sp)
   188b0:    13215a83            lhu     s5,306(sp)
   188b4:    fff7c793            not     a5,a5
   188b8:    10f11823            sh      a5,272(sp)
   188bc:    415d85b3            sub     a1,s11,s5
   188c0:    02b05263            blez    a1,0x188e4
   188c4:    0a8c                addi    a1,sp,336
   188c6:    1a08                addi    a0,sp,304
   188c8:    e1ffe0ef            jal     ra,0x176e6
   188cc:    1a0c                addi    a1,sp,304
   188ce:    0a08                addi    a0,sp,272
   188d0:    e17fe0ef            jal     ra,0x176e6
   188d4:    0a0c                addi    a1,sp,272
   188d6:    0a88                addi    a0,sp,336
   188d8:    e0ffe0ef            jal     ra,0x176e6
   188dc:    41ba85b3            sub     a1,s5,s11
   188e0:    13215a83            lhu     s5,306(sp)
   188e4:    cd8d                beqz    a1,0x1891e
   188e6:    f6f00793            li      a5,-145
   188ea:    06f5c363            blt     a1,a5,0x18950
   188ee:    0a08                addi    a0,sp,272
   188f0:    9ccff0ef            jal     ra,0x17abc
   188f4:    8daa                mv      s11,a0
   188f6:    11015703            lhu     a4,272(sp)
   188fa:    13015783            lhu     a5,304(sp)
   188fe:    1a0c                addi    a1,sp,304
   18900:    0a08                addi    a0,sp,272
   18902:    08f71a63            bne     a4,a5,0x18996
   18906:    f29fe0ef            jal     ra,0x1782e
   1890a:    0b1c                addi    a5,sp,400
   1890c:    04000713            li      a4,64
   18910:    86d6                mv      a3,s5
   18912:    866a                mv      a2,s10
   18914:    85ee                mv      a1,s11
   18916:    1a08                addi    a0,sp,304
   18918:    c42ff0ef            jal     ra,0x17d5a
   1891c:    a815                j       0x18950
   1891e:    1a0c                addi    a1,sp,304
   18920:    0a08                addi    a0,sp,272
   18922:    de5fe0ef            jal     ra,0x17706
   18926:    e921                bnez    a0,0x18976
   18928:    11015703            lhu     a4,272(sp)
   1892c:    13015783            lhu     a5,304(sp)
   18930:    00f70663            beq     a4,a5,0x1893c
   18934:    1988                addi    a0,sp,240
   18936:    d75fe0ef            jal     ra,0x176aa
   1893a:    bd49                j       0x187cc
   1893c:    13215783            lhu     a5,306(sp)
   18940:    ef89                bnez    a5,0x1895a
   18942:    13611783            lh      a5,310(sp)
   18946:    0007ca63            bltz    a5,0x1895a
   1894a:    1a08                addi    a0,sp,304
   1894c:    e1ffe0ef            jal     ra,0x1776a
   18950:    198c                addi    a1,sp,240
   18952:    1a08                addi    a0,sp,304
   18954:    af6ff0ef            jal     ra,0x17c4a
   18958:    bd95                j       0x187cc
   1895a:    1a1c                addi    a5,sp,304
   1895c:    14610713            addi    a4,sp,326
   18960:    0027d683            lhu     a3,2(a5)
   18964:    c689                beqz    a3,0x1896e
   18966:    0a85                addi    s5,s5,1
   18968:    13511923            sh      s5,306(sp)
   1896c:    b7d5                j       0x18950
   1896e:    0789                addi    a5,a5,2
   18970:    fef718e3            bne     a4,a5,0x18960
   18974:    bfd5                j       0x18968
   18976:    4d81                li      s11,0
   18978:    f6a05fe3            blez    a0,0x188f6
   1897c:    0a8c                addi    a1,sp,336
   1897e:    1a08                addi    a0,sp,304
   18980:    d67fe0ef            jal     ra,0x176e6
   18984:    1a0c                addi    a1,sp,304
   18986:    0a08                addi    a0,sp,272
   18988:    d5ffe0ef            jal     ra,0x176e6
   1898c:    0a0c                addi    a1,sp,272
   1898e:    0a88                addi    a0,sp,336
   18990:    d57fe0ef            jal     ra,0x176e6
   18994:    b78d                j       0x188f6
   18996:    ec1fe0ef            jal     ra,0x17856
   1899a:    4d05                li      s10,1
   1899c:    b7bd                j       0x1890a
   1899e:    0789                addi    a5,a5,2
   189a0:    4749                li      a4,18
   189a2:    d6e799e3            bne     a5,a4,0x18714
   189a6:    b51d                j       0x187cc
   189a8:    0a215783            lhu     a5,162(sp)
   189ac:    10848a93            addi    s5,s1,264
   189b0:    cfad                beqz    a5,0x18a2a
   189b2:    198c                addi    a1,sp,240
   189b4:    0908                addi    a0,sp,144
   189b6:    6a91                lui     s5,0x4
   189b8:    f83fe0ef            jal     ra,0x1793a
   189bc:    1af9                addi    s5,s5,-2
   189be:    fd500c93            li      s9,-43
   189c2:    10815783            lhu     a5,264(sp)
   189c6:    8b9d                andi    a5,a5,7
   189c8:    e7a9                bnez    a5,0x18a12
   189ca:    098c                addi    a1,sp,208
   189cc:    1988                addi    a0,sp,240
   189ce:    d19fe0ef            jal     ra,0x176e6
   189d2:    0988                addi    a0,sp,208
   189d4:    d5ffe0ef            jal     ra,0x17732
   189d8:    0988                addi    a0,sp,208
   189da:    d59fe0ef            jal     ra,0x17732
   189de:    098c                addi    a1,sp,208
   189e0:    1988                addi    a0,sp,240
   189e2:    e4dfe0ef            jal     ra,0x1782e
   189e6:    0d215783            lhu     a5,210(sp)
   189ea:    278d                addiw   a5,a5,3
   189ec:    0cf11923            sh      a5,210(sp)
   189f0:    0d415783            lhu     a5,212(sp)
   189f4:    efd5                bnez    a5,0x18ab0
   189f6:    0e815783            lhu     a5,232(sp)
   189fa:    ef81                bnez    a5,0x18a12
   189fc:    0d215783            lhu     a5,210(sp)
   18a00:    00fae963            bltu    s5,a5,0x18a12
   18a04:    198c                addi    a1,sp,240
   18a06:    0988                addi    a0,sp,208
   18a08:    347d                addiw   s0,s0,-1
   18a0a:    cddfe0ef            jal     ra,0x176e6
   18a0e:    fb941ae3            bne     s0,s9,0x189c2
   18a12:    090c                addi    a1,sp,144
   18a14:    1988                addi    a0,sp,240
   18a16:    a34ff0ef            jal     ra,0x17c4a
   18a1a:    a821                j       0x18a32
   18a1c:    0910                addi    a2,sp,144
   18a1e:    0b14                addi    a3,sp,400
   18a20:    85b2                mv      a1,a2
   18a22:    8556                mv      a0,s5
   18a24:    e2aff0ef            jal     ra,0x1804e
   18a28:    347d                addiw   s0,s0,-1
   18a2a:    0a011783            lh      a5,160(sp)
   18a2e:    fe07d7e3            bgez    a5,0x18a1c
   18a32:    198c                addi    a1,sp,240
   18a34:    0908                addi    a0,sp,144
   18a36:    c85fe0ef            jal     ra,0x176ba
   18a3a:    190c                addi    a1,sp,176
   18a3c:    854a                mv      a0,s2
   18a3e:    c7dfe0ef            jal     ra,0x176ba
   18a42:    01848793            addi    a5,s1,24
   18a46:    4c81                li      s9,0
   18a48:    7afd                lui     s5,0xfffff
   18a4a:    16048d93            addi    s11,s1,352
   18a4e:    e83e                sd      a5,16(sp)
   18a50:    4d09                li      s10,2
   18a52:    67c2                ld      a5,16(sp)
   18a54:    019d8733            add     a4,s11,s9
   18a58:    198c                addi    a1,sp,240
   18a5a:    854a                mv      a0,s2
   18a5c:    f83a                sd      a4,48(sp)
   18a5e:    019784b3            add     s1,a5,s9
   18a62:    f73fe0ef            jal     ra,0x179d4
   18a66:    7742                ld      a4,48(sp)
   18a68:    02a05d63            blez    a0,0x18aa2
   18a6c:    198c                addi    a1,sp,240
   18a6e:    853a                mv      a0,a4
   18a70:    f65fe0ef            jal     ra,0x179d4
   18a74:    02054063            bltz    a0,0x18a94
   18a78:    1990                addi    a2,sp,240
   18a7a:    85b2                mv      a1,a2
   18a7c:    0b14                addi    a3,sp,400
   18a7e:    8526                mv      a0,s1
   18a80:    dceff0ef            jal     ra,0x1804e
   18a84:    1910                addi    a2,sp,176
   18a86:    0b14                addi    a3,sp,400
   18a88:    85b2                mv      a1,a2
   18a8a:    8526                mv      a0,s1
   18a8c:    dc2ff0ef            jal     ra,0x1804e
   18a90:    008a843b            addw    s0,s5,s0
   18a94:    0cd1                addi    s9,s9,20
   18a96:    10400793            li      a5,260
   18a9a:    03aacabb            divw    s5,s5,s10
   18a9e:    fafc9ae3            bne     s9,a5,0x18a52
   18aa2:    1910                addi    a2,sp,176
   18aa4:    0b14                addi    a3,sp,400
   18aa6:    85ca                mv      a1,s2
   18aa8:    8532                mv      a0,a2
   18aaa:    f5eff0ef            jal     ra,0x18208
   18aae:    b625                j       0x185d6
   18ab0:    0988                addi    a0,sp,208
   18ab2:    c81fe0ef            jal     ra,0x17732
   18ab6:    0d215783            lhu     a5,210(sp)
   18aba:    2785                addiw   a5,a5,1
   18abc:    bf05                j       0x189ec
   18abe:    0908                addi    a0,sp,144
   18ac0:    cabfe0ef            jal     ra,0x1776a
   18ac4:    098c                addi    a1,sp,208
   18ac6:    0908                addi    a0,sp,144
   18ac8:    c1ffe0ef            jal     ra,0x176e6
   18acc:    0988                addi    a0,sp,208
   18ace:    c9dfe0ef            jal     ra,0x1776a
   18ad2:    0988                addi    a0,sp,208
   18ad4:    c97fe0ef            jal     ra,0x1776a
   18ad8:    090c                addi    a1,sp,144
   18ada:    0988                addi    a0,sp,208
   18adc:    d53fe0ef            jal     ra,0x1782e
   18ae0:    0b10                addi    a2,sp,400
   18ae2:    090c                addi    a1,sp,144
   18ae4:    1908                addi    a0,sp,176
   18ae6:    cd4ff0ef            jal     ra,0x17fba
   18aea:    347d                addiw   s0,s0,-1
   18aec:    1dc15483            lhu     s1,476(sp)
   18af0:    be11                j       0x18604
   18af2:    02000793            li      a5,32
   18af6:    b62d                j       0x18620
   18af8:    0304849b            addiw   s1,s1,48
   18afc:    02e00793            li      a5,46
   18b00:    149108a3            sb      s1,337(sp)
   18b04:    14f10923            sb      a5,338(sp)
   18b08:    15310a93            addi    s5,sp,339
   18b0c:    84d6                mv      s1,s5
   18b0e:    415487bb            subw    a5,s1,s5
   18b12:    04f95063            bge     s2,a5,0x18b52
   18b16:    1dc15783            lhu     a5,476(sp)
   18b1a:    4711                li      a4,4
   18b1c:    fff48a93            addi    s5,s1,-1
   18b20:    b4f758e3            bge     a4,a5,0x18670
   18b24:    4715                li      a4,5
   18b26:    06e78463            beq     a5,a4,0x18b8e
   18b2a:    87d6                mv      a5,s5
   18b2c:    02e00613            li      a2,46
   18b30:    03800593            li      a1,56
   18b34:    03000693            li      a3,48
   18b38:    17fd                addi    a5,a5,-1
   18b3a:    0007c703            lbu     a4,0(a5)
   18b3e:    07f77713            andi    a4,a4,127
   18b42:    08095163            bgez    s2,0x18bc4
   18b46:    03100713            li      a4,49
   18b4a:    00e78023            sb      a4,0(a5)
   18b4e:    2405                addiw   s0,s0,1
   18b50:    b605                j       0x18670
   18b52:    0908                addi    a0,sp,144
   18b54:    c17fe0ef            jal     ra,0x1776a
   18b58:    098c                addi    a1,sp,208
   18b5a:    0908                addi    a0,sp,144
   18b5c:    b8bfe0ef            jal     ra,0x176e6
   18b60:    0988                addi    a0,sp,208
   18b62:    c09fe0ef            jal     ra,0x1776a
   18b66:    0988                addi    a0,sp,208
   18b68:    c03fe0ef            jal     ra,0x1776a
   18b6c:    090c                addi    a1,sp,144
   18b6e:    0988                addi    a0,sp,208
   18b70:    cbffe0ef            jal     ra,0x1782e
   18b74:    0b10                addi    a2,sp,400
   18b76:    090c                addi    a1,sp,144
   18b78:    1908                addi    a0,sp,176
   18b7a:    c40ff0ef            jal     ra,0x17fba
   18b7e:    1dc14783            lbu     a5,476(sp)
   18b82:    0485                addi    s1,s1,1
   18b84:    0307879b            addiw   a5,a5,48
   18b88:    fef48fa3            sb      a5,-1(s1)
   18b8c:    b749                j       0x18b0e
   18b8e:    190c                addi    a1,sp,176
   18b90:    0908                addi    a0,sp,144
   18b92:    8b8ff0ef            jal     ra,0x17c4a
   18b96:    67e2                ld      a5,24(sp)
   18b98:    1908                addi    a0,sp,176
   18b9a:    49078593            addi    a1,a5,1168
   18b9e:    e37fe0ef            jal     ra,0x179d4
   18ba2:    f541                bnez    a0,0x18b2a
   18ba4:    ac0946e3            bltz    s2,0x18670
   18ba8:    ffe4c783            lbu     a5,-2(s1)
   18bac:    fd278793            addi    a5,a5,-46
   18bb0:    0017b793            seqz    a5,a5
   18bb4:    fff7c793            not     a5,a5
   18bb8:    97d6                add     a5,a5,s5
   18bba:    0007c783            lbu     a5,0(a5)
   18bbe:    8b85                andi    a5,a5,1
   18bc0:    f7ad                bnez    a5,0x18b2a
   18bc2:    b47d                j       0x18670
   18bc4:    02c71063            bne     a4,a2,0x18be4
   18bc8:    fff7c703            lbu     a4,-1(a5)
   18bcc:    03800693            li      a3,56
   18bd0:    00e6e663            bltu    a3,a4,0x18bdc
   18bd4:    2705                addiw   a4,a4,1
   18bd6:    fee78fa3            sb      a4,-1(a5)
   18bda:    bc59                j       0x18670
   18bdc:    2405                addiw   s0,s0,1
   18bde:    03100713            li      a4,49
   18be2:    bfd5                j       0x18bd6
   18be4:    00e5e663            bltu    a1,a4,0x18bf0
   18be8:    2705                addiw   a4,a4,1
   18bea:    00e78023            sb      a4,0(a5)
   18bee:    b449                j       0x18670
   18bf0:    00d78023            sb      a3,0(a5)
   18bf4:    b791                j       0x18b38
   18bf6:    0014079b            addiw   a5,s0,1
   18bfa:    00fc2023            sw      a5,0(s8)
   18bfe:    02e00693            li      a3,46
   18c02:    87ca                mv      a5,s2
   18c04:    0007c703            lbu     a4,0(a5)
   18c08:    e701                bnez    a4,0x18c10
   18c0a:    04500713            li      a4,69
   18c0e:    a839                j       0x18c2c
   18c10:    00178613            addi    a2,a5,1
   18c14:    00d70463            beq     a4,a3,0x18c1c
   18c18:    87b2                mv      a5,a2
   18c1a:    b7ed                j       0x18c04
   18c1c:    0017c703            lbu     a4,1(a5)
   18c20:    0785                addi    a5,a5,1
   18c22:    fee78fa3            sb      a4,-1(a5)
   18c26:    fb7d                bnez    a4,0x18c1c
   18c28:    b7cd                j       0x18c0a
   18c2a:    17fd                addi    a5,a5,-1
   18c2c:    0007c683            lbu     a3,0(a5)
   18c30:    00e68463            beq     a3,a4,0x18c38
   18c34:    fef96be3            bltu    s2,a5,0x18c2a
   18c38:    00078023            sb      zero,0(a5)
   18c3c:    8e1ff06f            j       0x1851c
   18c40:    0785                addi    a5,a5,1
   18c42:    8e5ff06f            j       0x18526
   18c46:    84b6                mv      s1,a3
   18c48:    8edff06f            j       0x18534
   18c4c:    14fd                addi    s1,s1,-1
   18c4e:    00048023            sb      zero,0(s1)
   18c52:    fff4c703            lbu     a4,-1(s1)
   18c56:    00d71663            bne     a4,a3,0x18c62
   18c5a:    41248733            sub     a4,s1,s2
   18c5e:    fee7c7e3            blt     a5,a4,0x18c4c
   18c62:    478d                li      a5,3
   18c64:    08fb1963            bne     s6,a5,0x18cf6
   18c68:    0089843b            addw    s0,s3,s0
   18c6c:    00045763            bgez    s0,0x18c7a
   18c70:    14010823            sb      zero,336(sp)
   18c74:    000c2023            sw      zero,0(s8)
   18c78:    84ca                mv      s1,s2
   18c7a:    000c2783            lw      a5,0(s8)
   18c7e:    01778bbb            addw    s7,a5,s7
   18c82:    2b8d                addiw   s7,s7,3
   18c84:    060a2423            sw      zero,104(s4)
   18c88:    4791                li      a5,4
   18c8a:    01c78713            addi    a4,a5,28
   18c8e:    068a2583            lw      a1,104(s4)
   18c92:    04ebfc63            bgeu    s7,a4,0x18cea
   18c96:    8552                mv      a0,s4
   18c98:    1ea000ef            jal     ra,0x18e82
   18c9c:    06aa3023            sd      a0,96(s4)
   18ca0:    85ca                mv      a1,s2
   18ca2:    842a                mv      s0,a0
   18ca4:    547000ef            jal     ra,0x199ea
   18ca8:    7782                ld      a5,32(sp)
   18caa:    c789                beqz    a5,0x18cb4
   18cac:    412484b3            sub     s1,s1,s2
   18cb0:    94a2                add     s1,s1,s0
   18cb2:    e384                sd      s1,0(a5)
   18cb4:    8522                mv      a0,s0
   18cb6:    24813083            ld      ra,584(sp)
   18cba:    24013403            ld      s0,576(sp)
   18cbe:    23813483            ld      s1,568(sp)
   18cc2:    23013903            ld      s2,560(sp)
   18cc6:    22813983            ld      s3,552(sp)
   18cca:    22013a03            ld      s4,544(sp)
   18cce:    21813a83            ld      s5,536(sp)
   18cd2:    21013b03            ld      s6,528(sp)
   18cd6:    20813b83            ld      s7,520(sp)
   18cda:    20013c03            ld      s8,512(sp)
   18cde:    7cfe                ld      s9,504(sp)
   18ce0:    7d5e                ld      s10,496(sp)
   18ce2:    7dbe                ld      s11,488(sp)
   18ce4:    25010113            addi    sp,sp,592
   18ce8:    8082                ret

   18cea:    2585                addiw   a1,a1,1
   18cec:    06ba2423            sw      a1,104(s4)
   18cf0:    0017979b            slliw   a5,a5,0x1
   18cf4:    bf59                j       0x18c8a
   18cf6:    2ba5                addiw   s7,s7,9
   18cf8:    b771                j       0x18c84
   18cfa:    67a1                lui     a5,0x8
   18cfc:    17fd                addi    a5,a5,-1
   18cfe:    98f717e3            bne     a4,a5,0x1868c
   18d02:    67a2                ld      a5,8(sp)
   18d04:    96078fe3            beqz    a5,0x18682
   18d08:    0001d5b7            lui     a1,0x1d
   18d0c:    70058593            addi    a1,a1,1792 # 0x1d700
   18d10:    fd6ff06f            j       0x184e6
   18d14:    611c                ld      a5,0(a0)
   18d16:    7139                addi    sp,sp,-64
   18d18:    080c                addi    a1,sp,16
   18d1a:    e03e                sd      a5,0(sp)
   18d1c:    651c                ld      a5,8(a0)
   18d1e:    850a                mv      a0,sp
   18d20:    fc06                sd      ra,56(sp)
   18d22:    e43e                sd      a5,8(sp)
   18d24:    f79fe0ef            jal     ra,0x17c9c
   18d28:    02215783            lhu     a5,34(sp)
   18d2c:    4501                li      a0,0
   18d2e:    fff7c793            not     a5,a5
   18d32:    03179713            slli    a4,a5,0x31
   18d36:    e719                bnez    a4,0x18d44
   18d38:    0808                addi    a0,sp,16
   18d3a:    bb9fe0ef            jal     ra,0x178f2
   18d3e:    00153513            seqz    a0,a0
   18d42:    0505                addi    a0,a0,1
   18d44:    70e2                ld      ra,56(sp)
   18d46:    6121                addi    sp,sp,64
   18d48:    8082                ret

   18d4a:    1101                addi    sp,sp,-32
   18d4c:    e822                sd      s0,16(sp)
   18d4e:    e426                sd      s1,8(sp)
   18d50:    84aa                mv      s1,a0
   18d52:    852e                mv      a0,a1
   18d54:    85b2                mv      a1,a2
   18d56:    8636                mv      a2,a3
   18d58:    ec06                sd      ra,24(sp)
   18d5a:    9001ac23            sw      zero,-1768(gp)
   18d5e:    419020ef            jal     ra,0x1b976
   18d62:    57fd                li      a5,-1
   18d64:    00f51663            bne     a0,a5,0x18d70
   18d68:    9181a783            lw      a5,-1768(gp)
   18d6c:    c391                beqz    a5,0x18d70
   18d6e:    c09c                sw      a5,0(s1)
   18d70:    60e2                ld      ra,24(sp)
   18d72:    6442                ld      s0,16(sp)
   18d74:    64a2                ld      s1,8(sp)
   18d76:    6105                addi    sp,sp,32
   18d78:    8082                ret

   18d7a:    7135                addi    sp,sp,-160
   18d7c:    e526                sd      s1,136(sp)
   18d7e:    84ae                mv      s1,a1
   18d80:    01259583            lh      a1,18(a1)
   18d84:    e922                sd      s0,144(sp)
   18d86:    ed06                sd      ra,152(sp)
   18d88:    8432                mv      s0,a2
   18d8a:    0005dc63            bgez    a1,0x18da2
   18d8e:    0104d783            lhu     a5,16(s1)
   18d92:    0006a023            sw      zero,0(a3)
   18d96:    0807f793            andi    a5,a5,128
   18d9a:    eb95                bnez    a5,0x18dce
   18d9c:    40000793            li      a5,1024
   18da0:    a80d                j       0x18dd2
   18da2:    0830                addi    a2,sp,24
   18da4:    e436                sd      a3,8(sp)
   18da6:    2af020ef            jal     ra,0x1b854
   18daa:    66a2                ld      a3,8(sp)
   18dac:    fe0541e3            bltz    a0,0x18d8e
   18db0:    47f2                lw      a5,28(sp)
   18db2:    673d                lui     a4,0xf
   18db4:    6505                lui     a0,0x1
   18db6:    8ff9                and     a5,a5,a4
   18db8:    6709                lui     a4,0x2
   18dba:    8f99                sub     a5,a5,a4
   18dbc:    0017b793            seqz    a5,a5
   18dc0:    c29c                sw      a5,0(a3)
   18dc2:    40000793            li      a5,1024
   18dc6:    e01c                sd      a5,0(s0)
   18dc8:    80050513            addi    a0,a0,-2048 # 0x800
   18dcc:    a029                j       0x18dd6
   18dce:    04000793            li      a5,64
   18dd2:    e01c                sd      a5,0(s0)
   18dd4:    4501                li      a0,0
   18dd6:    60ea                ld      ra,152(sp)
   18dd8:    644a                ld      s0,144(sp)
   18dda:    64aa                ld      s1,136(sp)
   18ddc:    610d                addi    sp,sp,160
   18dde:    8082                ret

   18de0:    0105d783            lhu     a5,16(a1)
   18de4:    7179                addi    sp,sp,-48
   18de6:    f022                sd      s0,32(sp)
   18de8:    f406                sd      ra,40(sp)
   18dea:    ec26                sd      s1,24(sp)
   18dec:    e84a                sd      s2,16(sp)
   18dee:    8b89                andi    a5,a5,2
   18df0:    842e                mv      s0,a1
   18df2:    cf89                beqz    a5,0x18e0c
   18df4:    07740793            addi    a5,s0,119
   18df8:    e01c                sd      a5,0(s0)
   18dfa:    ec1c                sd      a5,24(s0)
   18dfc:    4785                li      a5,1
   18dfe:    d01c                sw      a5,32(s0)
   18e00:    70a2                ld      ra,40(sp)
   18e02:    7402                ld      s0,32(sp)
   18e04:    64e2                ld      s1,24(sp)
   18e06:    6942                ld      s2,16(sp)
   18e08:    6145                addi    sp,sp,48
   18e0a:    8082                ret

   18e0c:    0054                addi    a3,sp,4
   18e0e:    0030                addi    a2,sp,8
   18e10:    84aa                mv      s1,a0
   18e12:    f69ff0ef            jal     ra,0x18d7a
   18e16:    65a2                ld      a1,8(sp)
   18e18:    892a                mv      s2,a0
   18e1a:    8526                mv      a0,s1
   18e1c:    f43f90ef            jal     ra,0x12d5e
   18e20:    ed01                bnez    a0,0x18e38
   18e22:    01041783            lh      a5,16(s0)
   18e26:    2007f713            andi    a4,a5,512
   18e2a:    fb79                bnez    a4,0x18e00
   18e2c:    9bf1                andi    a5,a5,-4
   18e2e:    0027e793            ori     a5,a5,2
   18e32:    00f41823            sh      a5,16(s0)
   18e36:    bf7d                j       0x18df4
   18e38:    000127b7            lui     a5,0x12
   18e3c:    65878793            addi    a5,a5,1624 # 0x12658
   18e40:    ecbc                sd      a5,88(s1)
   18e42:    01045783            lhu     a5,16(s0)
   18e46:    e008                sd      a0,0(s0)
   18e48:    ec08                sd      a0,24(s0)
   18e4a:    0807e793            ori     a5,a5,128
   18e4e:    00f41823            sh      a5,16(s0)
   18e52:    67a2                ld      a5,8(sp)
   18e54:    d01c                sw      a5,32(s0)
   18e56:    4792                lw      a5,4(sp)
   18e58:    cf91                beqz    a5,0x18e74
   18e5a:    01241583            lh      a1,18(s0)
   18e5e:    8526                mv      a0,s1
   18e60:    223020ef            jal     ra,0x1b882
   18e64:    c901                beqz    a0,0x18e74
   18e66:    01045783            lhu     a5,16(s0)
   18e6a:    9bf1                andi    a5,a5,-4
   18e6c:    0017e793            ori     a5,a5,1
   18e70:    00f41823            sh      a5,16(s0)
   18e74:    01045783            lhu     a5,16(s0)
   18e78:    00f96933            or      s2,s2,a5
   18e7c:    01241823            sh      s2,16(s0)
   18e80:    b741                j       0x18e00
   18e82:    7d3c                ld      a5,120(a0)
   18e84:    1101                addi    sp,sp,-32
   18e86:    e426                sd      s1,8(sp)
   18e88:    e04a                sd      s2,0(sp)
   18e8a:    ec06                sd      ra,24(sp)
   18e8c:    e822                sd      s0,16(sp)
   18e8e:    84aa                mv      s1,a0
   18e90:    892e                mv      s2,a1
   18e92:    c79d                beqz    a5,0x18ec0
   18e94:    7cb8                ld      a4,120(s1)
   18e96:    00391793            slli    a5,s2,0x3
   18e9a:    97ba                add     a5,a5,a4
   18e9c:    6388                ld      a0,0(a5)
   18e9e:    ed1d                bnez    a0,0x18edc
   18ea0:    4405                li      s0,1
   18ea2:    0124143b            sllw    s0,s0,s2
   18ea6:    fff4061b            addiw   a2,s0,-1
   18eaa:    0621                addi    a2,a2,8
   18eac:    060a                slli    a2,a2,0x2
   18eae:    4585                li      a1,1
   18eb0:    8526                mv      a0,s1
   18eb2:    121020ef            jal     ra,0x1b7d2
   18eb6:    cd01                beqz    a0,0x18ece
   18eb8:    01252423            sw      s2,8(a0)
   18ebc:    c540                sw      s0,12(a0)
   18ebe:    a00d                j       0x18ee0
   18ec0:    04100613            li      a2,65
   18ec4:    45a1                li      a1,8
   18ec6:    10d020ef            jal     ra,0x1b7d2
   18eca:    fca8                sd      a0,120(s1)
   18ecc:    f561                bnez    a0,0x18e94
   18ece:    4501                li      a0,0
   18ed0:    60e2                ld      ra,24(sp)
   18ed2:    6442                ld      s0,16(sp)
   18ed4:    64a2                ld      s1,8(sp)
   18ed6:    6902                ld      s2,0(sp)
   18ed8:    6105                addi    sp,sp,32
   18eda:    8082                ret

   18edc:    6118                ld      a4,0(a0)
   18ede:    e398                sd      a4,0(a5)
   18ee0:    00053823            sd      zero,16(a0)
   18ee4:    b7f5                j       0x18ed0
   18ee6:    c989                beqz    a1,0x18ef8
   18ee8:    459c                lw      a5,8(a1)
   18eea:    00379713            slli    a4,a5,0x3
   18eee:    7d3c                ld      a5,120(a0)
   18ef0:    97ba                add     a5,a5,a4
   18ef2:    6398                ld      a4,0(a5)
   18ef4:    e198                sd      a4,0(a1)
   18ef6:    e38c                sd      a1,0(a5)
   18ef8:    8082                ret

   18efa:    7139                addi    sp,sp,-64
   18efc:    ec4e                sd      s3,24(sp)
   18efe:    89aa                mv      s3,a0
   18f00:    6541                lui     a0,0x10
   18f02:    f822                sd      s0,48(sp)
   18f04:    f426                sd      s1,40(sp)
   18f06:    842e                mv      s0,a1
   18f08:    49c4                lw      s1,20(a1)
   18f0a:    fc06                sd      ra,56(sp)
   18f0c:    f04a                sd      s2,32(sp)
   18f0e:    05e1                addi    a1,a1,24
   18f10:    4801                li      a6,0
   18f12:    157d                addi    a0,a0,-1
   18f14:    419c                lw      a5,0(a1)
   18f16:    0591                addi    a1,a1,4
   18f18:    2805                addiw   a6,a6,1
   18f1a:    00a7f733            and     a4,a5,a0
   18f1e:    02c7073b            mulw    a4,a4,a2
   18f22:    0107d79b            srliw   a5,a5,0x10
   18f26:    02c787bb            mulw    a5,a5,a2
   18f2a:    9f35                addw    a4,a4,a3
   18f2c:    0107569b            srliw   a3,a4,0x10
   18f30:    8f69                and     a4,a4,a0
   18f32:    9fb5                addw    a5,a5,a3
   18f34:    0107d69b            srliw   a3,a5,0x10
   18f38:    0107979b            slliw   a5,a5,0x10
   18f3c:    9fb9                addw    a5,a5,a4
   18f3e:    fef5ae23            sw      a5,-4(a1)
   18f42:    fc9849e3            blt     a6,s1,0x18f14
   18f46:    c2a1                beqz    a3,0x18f86
   18f48:    445c                lw      a5,12(s0)
   18f4a:    02f4c763            blt     s1,a5,0x18f78
   18f4e:    440c                lw      a1,8(s0)
   18f50:    854e                mv      a0,s3
   18f52:    e436                sd      a3,8(sp)
   18f54:    2585                addiw   a1,a1,1
   18f56:    f2dff0ef            jal     ra,0x18e82
   18f5a:    4850                lw      a2,20(s0)
   18f5c:    01040593            addi    a1,s0,16
   18f60:    892a                mv      s2,a0
   18f62:    0609                addi    a2,a2,2
   18f64:    060a                slli    a2,a2,0x2
   18f66:    0541                addi    a0,a0,16
   18f68:    bb2fa0ef            jal     ra,0x1331a
   18f6c:    85a2                mv      a1,s0
   18f6e:    854e                mv      a0,s3
   18f70:    f77ff0ef            jal     ra,0x18ee6
   18f74:    66a2                ld      a3,8(sp)
   18f76:    844a                mv      s0,s2
   18f78:    00448793            addi    a5,s1,4
   18f7c:    078a                slli    a5,a5,0x2
   18f7e:    97a2                add     a5,a5,s0
   18f80:    c794                sw      a3,8(a5)
   18f82:    2485                addiw   s1,s1,1
   18f84:    c844                sw      s1,20(s0)
   18f86:    8522                mv      a0,s0
   18f88:    70e2                ld      ra,56(sp)
   18f8a:    7442                ld      s0,48(sp)
   18f8c:    74a2                ld      s1,40(sp)
   18f8e:    7902                ld      s2,32(sp)
   18f90:    69e2                ld      s3,24(sp)
   18f92:    6121                addi    sp,sp,64
   18f94:    8082                ret

   18f96:    715d                addi    sp,sp,-80
   18f98:    47a5                li      a5,9
   18f9a:    f44e                sd      s3,40(sp)
   18f9c:    89b6                mv      s3,a3
   18f9e:    26a1                addiw   a3,a3,8
   18fa0:    e0a2                sd      s0,64(sp)
   18fa2:    f84a                sd      s2,48(sp)
   18fa4:    ec56                sd      s5,24(sp)
   18fa6:    842e                mv      s0,a1
   18fa8:    02f6c6bb            divw    a3,a3,a5
   18fac:    e486                sd      ra,72(sp)
   18fae:    fc26                sd      s1,56(sp)
   18fb0:    f052                sd      s4,32(sp)
   18fb2:    892a                mv      s2,a0
   18fb4:    8ab2                mv      s5,a2
   18fb6:    4785                li      a5,1
   18fb8:    4581                li      a1,0
   18fba:    06d7c263            blt     a5,a3,0x1901e
   18fbe:    854a                mv      a0,s2
   18fc0:    e43a                sd      a4,8(sp)
   18fc2:    ec1ff0ef            jal     ra,0x18e82
   18fc6:    6722                ld      a4,8(sp)
   18fc8:    4785                li      a5,1
   18fca:    c95c                sw      a5,20(a0)
   18fcc:    cd18                sw      a4,24(a0)
   18fce:    47a5                li      a5,9
   18fd0:    0557dd63            bge     a5,s5,0x1902a
   18fd4:    0425                addi    s0,s0,9
   18fd6:    8a22                mv      s4,s0
   18fd8:    44a5                li      s1,9
   18fda:    0a05                addi    s4,s4,1
   18fdc:    fffa4683            lbu     a3,-1(s4)
   18fe0:    85aa                mv      a1,a0
   18fe2:    4629                li      a2,10
   18fe4:    fd06869b            addiw   a3,a3,-48
   18fe8:    854a                mv      a0,s2
   18fea:    f11ff0ef            jal     ra,0x18efa
   18fee:    0014879b            addiw   a5,s1,1
   18ff2:    02fa9a63            bne     s5,a5,0x19026
   18ff6:    34dd                addiw   s1,s1,-9
   18ff8:    1482                slli    s1,s1,0x20
   18ffa:    9081                srli    s1,s1,0x20
   18ffc:    0489                addi    s1,s1,2
   18ffe:    9426                add     s0,s0,s1
   19000:    408784bb            subw    s1,a5,s0
   19004:    008487bb            addw    a5,s1,s0
   19008:    0337c463            blt     a5,s3,0x19030
   1900c:    60a6                ld      ra,72(sp)
   1900e:    6406                ld      s0,64(sp)
   19010:    74e2                ld      s1,56(sp)
   19012:    7942                ld      s2,48(sp)
   19014:    79a2                ld      s3,40(sp)
   19016:    7a02                ld      s4,32(sp)
   19018:    6ae2                ld      s5,24(sp)
   1901a:    6161                addi    sp,sp,80
   1901c:    8082                ret

   1901e:    0017979b            slliw   a5,a5,0x1
   19022:    2585                addiw   a1,a1,1
   19024:    bf59                j       0x18fba
   19026:    84be                mv      s1,a5
   19028:    bf4d                j       0x18fda
   1902a:    0429                addi    s0,s0,10
   1902c:    47a5                li      a5,9
   1902e:    bfc9                j       0x19000
   19030:    0405                addi    s0,s0,1
   19032:    fff44683            lbu     a3,-1(s0)
   19036:    85aa                mv      a1,a0
   19038:    4629                li      a2,10
   1903a:    fd06869b            addiw   a3,a3,-48
   1903e:    854a                mv      a0,s2
   19040:    ebbff0ef            jal     ra,0x18efa
   19044:    b7c1                j       0x19004
   19046:    7741                lui     a4,0xffff0
   19048:    8f69                and     a4,a4,a0
   1904a:    87aa                mv      a5,a0
   1904c:    4501                li      a0,0
   1904e:    e701                bnez    a4,0x19056
   19050:    0107979b            slliw   a5,a5,0x10
   19054:    4541                li      a0,16
   19056:    ff000737            lui     a4,0xff000
   1905a:    8f7d                and     a4,a4,a5
   1905c:    e701                bnez    a4,0x19064
   1905e:    2521                addiw   a0,a0,8
   19060:    0087979b            slliw   a5,a5,0x8
   19064:    f0000737            lui     a4,0xf0000
   19068:    8f7d                and     a4,a4,a5
   1906a:    e701                bnez    a4,0x19072
   1906c:    2511                addiw   a0,a0,4
   1906e:    0047979b            slliw   a5,a5,0x4
   19072:    c0000737            lui     a4,0xc0000
   19076:    8f7d                and     a4,a4,a5
   19078:    e701                bnez    a4,0x19080
   1907a:    2509                addiw   a0,a0,2
   1907c:    0027979b            slliw   a5,a5,0x2
   19080:    0007c963            bltz    a5,0x19092
   19084:    02179713            slli    a4,a5,0x21
   19088:    2505                addiw   a0,a0,1
   1908a:    00074463            bltz    a4,0x19092
   1908e:    02000513            li      a0,32
   19092:    8082                ret

   19094:    411c                lw      a5,0(a0)
   19096:    0077f713            andi    a4,a5,7
   1909a:    86be                mv      a3,a5
   1909c:    c315                beqz    a4,0x190c0
   1909e:    0017f613            andi    a2,a5,1
   190a2:    4701                li      a4,0
   190a4:    e619                bnez    a2,0x190b2
   190a6:    8a89                andi    a3,a3,2
   190a8:    c699                beqz    a3,0x190b6
   190aa:    0017d79b            srliw   a5,a5,0x1
   190ae:    c11c                sw      a5,0(a0)
   190b0:    4705                li      a4,1
   190b2:    853a                mv      a0,a4
   190b4:    8082                ret

   190b6:    0027d79b            srliw   a5,a5,0x2
   190ba:    c11c                sw      a5,0(a0)
   190bc:    4709                li      a4,2
   190be:    bfd5                j       0x190b2
   190c0:    03079693            slli    a3,a5,0x30
   190c4:    92c1                srli    a3,a3,0x30
   190c6:    4701                li      a4,0
   190c8:    e681                bnez    a3,0x190d0
   190ca:    0107d79b            srliw   a5,a5,0x10
   190ce:    4741                li      a4,16
   190d0:    0ff7f693            andi    a3,a5,255
   190d4:    e681                bnez    a3,0x190dc
   190d6:    2721                addiw   a4,a4,8
   190d8:    0087d79b            srliw   a5,a5,0x8
   190dc:    00f7f693            andi    a3,a5,15
   190e0:    e681                bnez    a3,0x190e8
   190e2:    2711                addiw   a4,a4,4
   190e4:    0047d79b            srliw   a5,a5,0x4
   190e8:    0037f693            andi    a3,a5,3
   190ec:    e681                bnez    a3,0x190f4
   190ee:    2709                addiw   a4,a4,2
   190f0:    0027d79b            srliw   a5,a5,0x2
   190f4:    0017f693            andi    a3,a5,1
   190f8:    e689                bnez    a3,0x19102
   190fa:    0017d79b            srliw   a5,a5,0x1
   190fe:    2705                addiw   a4,a4,1
   19100:    c399                beqz    a5,0x19106
   19102:    c11c                sw      a5,0(a0)
   19104:    b77d                j       0x190b2
   19106:    02000713            li      a4,32
   1910a:    b765                j       0x190b2
   1910c:    1141                addi    sp,sp,-16
   1910e:    e022                sd      s0,0(sp)
   19110:    842e                mv      s0,a1
   19112:    4585                li      a1,1
   19114:    e406                sd      ra,8(sp)
   19116:    d6dff0ef            jal     ra,0x18e82
   1911a:    cd00                sw      s0,24(a0)
   1911c:    60a2                ld      ra,8(sp)
   1911e:    6402                ld      s0,0(sp)
   19120:    4705                li      a4,1
   19122:    c958                sw      a4,20(a0)
   19124:    0141                addi    sp,sp,16
   19126:    8082                ret

   19128:    49d8                lw      a4,20(a1)
   1912a:    4a5c                lw      a5,20(a2)
   1912c:    7139                addi    sp,sp,-64
   1912e:    f426                sd      s1,40(sp)
   19130:    fc06                sd      ra,56(sp)
   19132:    f822                sd      s0,48(sp)
   19134:    f04a                sd      s2,32(sp)
   19136:    ec4e                sd      s3,24(sp)
   19138:    84ae                mv      s1,a1
   1913a:    00f75463            bge     a4,a5,0x19142
   1913e:    84b2                mv      s1,a2
   19140:    862e                mv      a2,a1
   19142:    0144a983            lw      s3,20(s1)
   19146:    01462903            lw      s2,20(a2)
   1914a:    44dc                lw      a5,12(s1)
   1914c:    448c                lw      a1,8(s1)
   1914e:    0129843b            addw    s0,s3,s2
   19152:    0087d363            bge     a5,s0,0x19158
   19156:    2585                addiw   a1,a1,1
   19158:    e432                sd      a2,8(sp)
   1915a:    d29ff0ef            jal     ra,0x18e82
   1915e:    6622                ld      a2,8(sp)
   19160:    01850893            addi    a7,a0,24 # 0x10018
   19164:    00241e13            slli    t3,s0,0x2
   19168:    9e46                add     t3,t3,a7
   1916a:    87c6                mv      a5,a7
   1916c:    03c7ed63            bltu    a5,t3,0x191a6
   19170:    01848593            addi    a1,s1,24
   19174:    00299313            slli    t1,s3,0x2
   19178:    0661                addi    a2,a2,24
   1917a:    00291e93            slli    t4,s2,0x2
   1917e:    6841                lui     a6,0x10
   19180:    932e                add     t1,t1,a1
   19182:    9eb2                add     t4,t4,a2
   19184:    187d                addi    a6,a6,-1
   19186:    03d66463            bltu    a2,t4,0x191ae
   1918a:    00805663            blez    s0,0x19196
   1918e:    1e71                addi    t3,t3,-4
   19190:    000e2783            lw      a5,0(t3)
   19194:    c3e5                beqz    a5,0x19274
   19196:    c940                sw      s0,20(a0)
   19198:    70e2                ld      ra,56(sp)
   1919a:    7442                ld      s0,48(sp)
   1919c:    74a2                ld      s1,40(sp)
   1919e:    7902                ld      s2,32(sp)
   191a0:    69e2                ld      s3,24(sp)
   191a2:    6121                addi    sp,sp,64
   191a4:    8082                ret

   191a6:    0007a023            sw      zero,0(a5)
   191aa:    0791                addi    a5,a5,4
   191ac:    b7c1                j       0x1916c
   191ae:    00062f83            lw      t6,0(a2)
   191b2:    01f87fb3            and     t6,a6,t6
   191b6:    040f8b63            beqz    t6,0x1920c
   191ba:    8f46                mv      t5,a7
   191bc:    82ae                mv      t0,a1
   191be:    4481                li      s1,0
   191c0:    0002a703            lw      a4,0(t0) # 0x10442
   191c4:    000f2383            lw      t2,0(t5)
   191c8:    0f11                addi    t5,t5,4
   191ca:    010776b3            and     a3,a4,a6
   191ce:    03f686bb            mulw    a3,a3,t6
   191d2:    0103f7b3            and     a5,t2,a6
   191d6:    0103d39b            srliw   t2,t2,0x10
   191da:    0291                addi    t0,t0,4
   191dc:    9ebd                addw    a3,a3,a5
   191de:    0107579b            srliw   a5,a4,0x10
   191e2:    03f787bb            mulw    a5,a5,t6
   191e6:    9ea5                addw    a3,a3,s1
   191e8:    0106d71b            srliw   a4,a3,0x10
   191ec:    00d876b3            and     a3,a6,a3
   191f0:    007787bb            addw    a5,a5,t2
   191f4:    9fb9                addw    a5,a5,a4
   191f6:    0107d49b            srliw   s1,a5,0x10
   191fa:    0107979b            slliw   a5,a5,0x10
   191fe:    8fd5                or      a5,a5,a3
   19200:    feff2e23            sw      a5,-4(t5)
   19204:    fa62eee3            bltu    t0,t1,0x191c0
   19208:    009f2023            sw      s1,0(t5)
   1920c:    00265283            lhu     t0,2(a2)
   19210:    04028f63            beqz    t0,0x1926e
   19214:    0008a683            lw      a3,0(a7)
   19218:    8f46                mv      t5,a7
   1921a:    8fae                mv      t6,a1
   1921c:    4701                li      a4,0
   1921e:    000fa783            lw      a5,0(t6)
   19222:    002f5383            lhu     t2,2(t5)
   19226:    0106f6b3            and     a3,a3,a6
   1922a:    0107f7b3            and     a5,a5,a6
   1922e:    025787bb            mulw    a5,a5,t0
   19232:    0f11                addi    t5,t5,4
   19234:    0f91                addi    t6,t6,4
   19236:    007787bb            addw    a5,a5,t2
   1923a:    9fb9                addw    a5,a5,a4
   1923c:    0107971b            slliw   a4,a5,0x10
   19240:    8ed9                or      a3,a3,a4
   19242:    fedf2e23            sw      a3,-4(t5)
   19246:    ffefd703            lhu     a4,-2(t6)
   1924a:    000f2683            lw      a3,0(t5)
   1924e:    0107d79b            srliw   a5,a5,0x10
   19252:    0257073b            mulw    a4,a4,t0
   19256:    0106f6b3            and     a3,a3,a6
   1925a:    9f35                addw    a4,a4,a3
   1925c:    9fb9                addw    a5,a5,a4
   1925e:    0007869b            sext.w  a3,a5
   19262:    0107d71b            srliw   a4,a5,0x10
   19266:    fa6fece3            bltu    t6,t1,0x1921e
   1926a:    00df2023            sw      a3,0(t5)
   1926e:    0611                addi    a2,a2,4
   19270:    0891                addi    a7,a7,4
   19272:    bf11                j       0x19186
   19274:    347d                addiw   s0,s0,-1
   19276:    bf11                j       0x1918a
   19278:    7179                addi    sp,sp,-48
   1927a:    ec26                sd      s1,24(sp)
   1927c:    e84a                sd      s2,16(sp)
   1927e:    e44e                sd      s3,8(sp)
   19280:    f406                sd      ra,40(sp)
   19282:    f022                sd      s0,32(sp)
   19284:    e052                sd      s4,0(sp)
   19286:    00367793            andi    a5,a2,3
   1928a:    892a                mv      s2,a0
   1928c:    84b2                mv      s1,a2
   1928e:    89ae                mv      s3,a1
   19290:    cf81                beqz    a5,0x192a8
   19292:    37fd                addiw   a5,a5,-1
   19294:    6775                lui     a4,0x1d
   19296:    73070713            addi    a4,a4,1840 # 0x1d730
   1929a:    078a                slli    a5,a5,0x2
   1929c:    97ba                add     a5,a5,a4
   1929e:    4390                lw      a2,0(a5)
   192a0:    4681                li      a3,0
   192a2:    c59ff0ef            jal     ra,0x18efa
   192a6:    89aa                mv      s3,a0
   192a8:    8489                srai    s1,s1,0x2
   192aa:    c8b1                beqz    s1,0x192fe
   192ac:    07093403            ld      s0,112(s2)
   192b0:    e819                bnez    s0,0x192c6
   192b2:    27100593            li      a1,625
   192b6:    854a                mv      a0,s2
   192b8:    e55ff0ef            jal     ra,0x1910c
   192bc:    06a93823            sd      a0,112(s2)
   192c0:    842a                mv      s0,a0
   192c2:    00053023            sd      zero,0(a0)
   192c6:    0014f793            andi    a5,s1,1
   192ca:    cf81                beqz    a5,0x192e2
   192cc:    85ce                mv      a1,s3
   192ce:    8622                mv      a2,s0
   192d0:    854a                mv      a0,s2
   192d2:    e57ff0ef            jal     ra,0x19128
   192d6:    8a2a                mv      s4,a0
   192d8:    85ce                mv      a1,s3
   192da:    854a                mv      a0,s2
   192dc:    c0bff0ef            jal     ra,0x18ee6
   192e0:    89d2                mv      s3,s4
   192e2:    8485                srai    s1,s1,0x1
   192e4:    cc89                beqz    s1,0x192fe
   192e6:    6008                ld      a0,0(s0)
   192e8:    e909                bnez    a0,0x192fa
   192ea:    8622                mv      a2,s0
   192ec:    85a2                mv      a1,s0
   192ee:    854a                mv      a0,s2
   192f0:    e39ff0ef            jal     ra,0x19128
   192f4:    e008                sd      a0,0(s0)
   192f6:    00053023            sd      zero,0(a0)
   192fa:    842a                mv      s0,a0
   192fc:    b7e9                j       0x192c6
   192fe:    70a2                ld      ra,40(sp)
   19300:    7402                ld      s0,32(sp)
   19302:    854e                mv      a0,s3
   19304:    64e2                ld      s1,24(sp)
   19306:    6942                ld      s2,16(sp)
   19308:    69a2                ld      s3,8(sp)
   1930a:    6a02                ld      s4,0(sp)
   1930c:    6145                addi    sp,sp,48
   1930e:    8082                ret

   19310:    715d                addi    sp,sp,-80
   19312:    fc26                sd      s1,56(sp)
   19314:    84ae                mv      s1,a1
   19316:    f44e                sd      s3,40(sp)
   19318:    0144a983            lw      s3,20(s1)
   1931c:    e85a                sd      s6,16(sp)
   1931e:    458c                lw      a1,8(a1)
   19320:    40565b1b            sraiw   s6,a2,0x5
   19324:    44dc                lw      a5,12(s1)
   19326:    016989bb            addw    s3,s3,s6
   1932a:    e0a2                sd      s0,64(sp)
   1932c:    f84a                sd      s2,48(sp)
   1932e:    ec56                sd      s5,24(sp)
   19330:    e486                sd      ra,72(sp)
   19332:    f052                sd      s4,32(sp)
   19334:    8aaa                mv      s5,a0
   19336:    845a                mv      s0,s6
   19338:    0019891b            addiw   s2,s3,1
   1933c:    0927c563            blt     a5,s2,0x193c6
   19340:    8556                mv      a0,s5
   19342:    e432                sd      a2,8(sp)
   19344:    b3fff0ef            jal     ra,0x18e82
   19348:    6622                ld      a2,8(sp)
   1934a:    01850713            addi    a4,a0,24
   1934e:    8a2a                mv      s4,a0
   19350:    86ba                mv      a3,a4
   19352:    4781                li      a5,0
   19354:    0691                addi    a3,a3,4
   19356:    0767cc63            blt     a5,s6,0x193ce
   1935a:    000b5363            bgez    s6,0x19360
   1935e:    4401                li      s0,0
   19360:    48cc                lw      a1,20(s1)
   19362:    040a                slli    s0,s0,0x2
   19364:    01848793            addi    a5,s1,24
   19368:    058a                slli    a1,a1,0x2
   1936a:    8a7d                andi    a2,a2,31
   1936c:    9722                add     a4,a4,s0
   1936e:    95be                add     a1,a1,a5
   19370:    c23d                beqz    a2,0x193d6
   19372:    02000513            li      a0,32
   19376:    9d11                subw    a0,a0,a2
   19378:    4681                li      a3,0
   1937a:    0007a803            lw      a6,0(a5)
   1937e:    0711                addi    a4,a4,4
   19380:    0791                addi    a5,a5,4
   19382:    00c8183b            sllw    a6,a6,a2
   19386:    0106e6b3            or      a3,a3,a6
   1938a:    fed72e23            sw      a3,-4(a4)
   1938e:    ffc7a683            lw      a3,-4(a5)
   19392:    00a6d6bb            srlw    a3,a3,a0
   19396:    feb7e2e3            bltu    a5,a1,0x1937a
   1939a:    c314                sw      a3,0(a4)
   1939c:    c299                beqz    a3,0x193a2
   1939e:    0029891b            addiw   s2,s3,2
   193a2:    397d                addiw   s2,s2,-1
   193a4:    012a2a23            sw      s2,20(s4)
   193a8:    8556                mv      a0,s5
   193aa:    85a6                mv      a1,s1
   193ac:    b3bff0ef            jal     ra,0x18ee6
   193b0:    60a6                ld      ra,72(sp)
   193b2:    6406                ld      s0,64(sp)
   193b4:    8552                mv      a0,s4
   193b6:    74e2                ld      s1,56(sp)
   193b8:    7942                ld      s2,48(sp)
   193ba:    79a2                ld      s3,40(sp)
   193bc:    7a02                ld      s4,32(sp)
   193be:    6ae2                ld      s5,24(sp)
   193c0:    6b42                ld      s6,16(sp)
   193c2:    6161                addi    sp,sp,80
   193c4:    8082                ret

   193c6:    2585                addiw   a1,a1,1
   193c8:    0017979b            slliw   a5,a5,0x1
   193cc:    bf85                j       0x1933c
   193ce:    fe06ae23            sw      zero,-4(a3)
   193d2:    2785                addiw   a5,a5,1
   193d4:    b741                j       0x19354
   193d6:    0791                addi    a5,a5,4
   193d8:    ffc7a683            lw      a3,-4(a5)
   193dc:    0711                addi    a4,a4,4
   193de:    fed72e23            sw      a3,-4(a4)
   193e2:    feb7eae3            bltu    a5,a1,0x193d6
   193e6:    bf75                j       0x193a2
   193e8:    495c                lw      a5,20(a0)
   193ea:    49d8                lw      a4,20(a1)
   193ec:    9f99                subw    a5,a5,a4
   193ee:    e38d                bnez    a5,0x19410
   193f0:    070a                slli    a4,a4,0x2
   193f2:    0561                addi    a0,a0,24
   193f4:    05e1                addi    a1,a1,24
   193f6:    00e506b3            add     a3,a0,a4
   193fa:    95ba                add     a1,a1,a4
   193fc:    16f1                addi    a3,a3,-4
   193fe:    15f1                addi    a1,a1,-4
   19400:    4290                lw      a2,0(a3)
   19402:    4198                lw      a4,0(a1)
   19404:    00e60863            beq     a2,a4,0x19414
   19408:    57fd                li      a5,-1
   1940a:    00e66363            bltu    a2,a4,0x19410
   1940e:    4785                li      a5,1
   19410:    853e                mv      a0,a5
   19412:    8082                ret

   19414:    fed564e3            bltu    a0,a3,0x193fc
   19418:    bfe5                j       0x19410
   1941a:    7179                addi    sp,sp,-48
   1941c:    ec26                sd      s1,24(sp)
   1941e:    84ae                mv      s1,a1
   19420:    e44e                sd      s3,8(sp)
   19422:    85b2                mv      a1,a2
   19424:    89aa                mv      s3,a0
   19426:    8526                mv      a0,s1
   19428:    f022                sd      s0,32(sp)
   1942a:    f406                sd      ra,40(sp)
   1942c:    e84a                sd      s2,16(sp)
   1942e:    8432                mv      s0,a2
   19430:    fb9ff0ef            jal     ra,0x193e8
   19434:    e105                bnez    a0,0x19454
   19436:    4581                li      a1,0
   19438:    854e                mv      a0,s3
   1943a:    a49ff0ef            jal     ra,0x18e82
   1943e:    4785                li      a5,1
   19440:    c95c                sw      a5,20(a0)
   19442:    00052c23            sw      zero,24(a0)
   19446:    70a2                ld      ra,40(sp)
   19448:    7402                ld      s0,32(sp)
   1944a:    64e2                ld      s1,24(sp)
   1944c:    6942                ld      s2,16(sp)
   1944e:    69a2                ld      s3,8(sp)
   19450:    6145                addi    sp,sp,48
   19452:    8082                ret

   19454:    4905                li      s2,1
   19456:    00054663            bltz    a0,0x19462
   1945a:    87a2                mv      a5,s0
   1945c:    4901                li      s2,0
   1945e:    8426                mv      s0,s1
   19460:    84be                mv      s1,a5
   19462:    440c                lw      a1,8(s0)
   19464:    854e                mv      a0,s3
   19466:    a1dff0ef            jal     ra,0x18e82
   1946a:    01442303            lw      t1,20(s0)
   1946e:    0144a883            lw      a7,20(s1)
   19472:    01840613            addi    a2,s0,24
   19476:    00231e13            slli    t3,t1,0x2
   1947a:    01848813            addi    a6,s1,24
   1947e:    088a                slli    a7,a7,0x2
   19480:    6f41                lui     t5,0x10
   19482:    01252823            sw      s2,16(a0)
   19486:    9e32                add     t3,t3,a2
   19488:    98c2                add     a7,a7,a6
   1948a:    01850693            addi    a3,a0,24
   1948e:    4f81                li      t6,0
   19490:    1f7d                addi    t5,t5,-1
   19492:    4218                lw      a4,0(a2)
   19494:    00082783            lw      a5,0(a6) # 0x10000
   19498:    0691                addi    a3,a3,4
   1949a:    01e775b3            and     a1,a4,t5
   1949e:    01f585bb            addw    a1,a1,t6
   194a2:    01e7feb3            and     t4,a5,t5
   194a6:    41d58ebb            subw    t4,a1,t4
   194aa:    0107571b            srliw   a4,a4,0x10
   194ae:    0107d79b            srliw   a5,a5,0x10
   194b2:    40f707bb            subw    a5,a4,a5
   194b6:    410ed59b            sraiw   a1,t4,0x10
   194ba:    9fad                addw    a5,a5,a1
   194bc:    4107df9b            sraiw   t6,a5,0x10
   194c0:    01eef733            and     a4,t4,t5
   194c4:    0107979b            slliw   a5,a5,0x10
   194c8:    8fd9                or      a5,a5,a4
   194ca:    0811                addi    a6,a6,4
   194cc:    fef6ae23            sw      a5,-4(a3)
   194d0:    0611                addi    a2,a2,4
   194d2:    fd1860e3            bltu    a6,a7,0x19492
   194d6:    68c1                lui     a7,0x10
   194d8:    18fd                addi    a7,a7,-1
   194da:    01c66863            bltu    a2,t3,0x194ea
   194de:    16f1                addi    a3,a3,-4
   194e0:    429c                lw      a5,0(a3)
   194e2:    cb9d                beqz    a5,0x19518
   194e4:    00652a23            sw      t1,20(a0)
   194e8:    bfb9                j       0x19446
   194ea:    4218                lw      a4,0(a2)
   194ec:    0691                addi    a3,a3,4
   194ee:    0611                addi    a2,a2,4
   194f0:    011775b3            and     a1,a4,a7
   194f4:    01f5883b            addw    a6,a1,t6
   194f8:    0107571b            srliw   a4,a4,0x10
   194fc:    4108559b            sraiw   a1,a6,0x10
   19500:    00b707bb            addw    a5,a4,a1
   19504:    4107df9b            sraiw   t6,a5,0x10
   19508:    01187733            and     a4,a6,a7
   1950c:    0107979b            slliw   a5,a5,0x10
   19510:    8fd9                or      a5,a5,a4
   19512:    fef6ae23            sw      a5,-4(a3)
   19516:    b7d1                j       0x194da
   19518:    337d                addiw   t1,t1,-1
   1951a:    b7d1                j       0x194de
   1951c:    e20507d3            fmv.x.d    a5,fa0
   19520:    7ff00737            lui     a4,0x7ff00
   19524:    9381                srli    a5,a5,0x20
   19526:    8f7d                and     a4,a4,a5
   19528:    fcc007b7            lui     a5,0xfcc00
   1952c:    9fb9                addw    a5,a5,a4
   1952e:    0007871b            sext.w  a4,a5
   19532:    00e05663            blez    a4,0x1953e
   19536:    1782                slli    a5,a5,0x20
   19538:    f2078553            fmv.d.x    fa0,a5
   1953c:    8082                ret

   1953e:    40f007bb            negw    a5,a5
   19542:    4147d69b            sraiw   a3,a5,0x14
   19546:    47cd                li      a5,19
   19548:    00d7c763            blt     a5,a3,0x19556
   1954c:    000807b7            lui     a5,0x80
   19550:    40d7d7bb            sraw    a5,a5,a3
   19554:    b7cd                j       0x19536
   19556:    fec6871b            addiw   a4,a3,-20
   1955a:    4679                li      a2,30
   1955c:    4781                li      a5,0
   1955e:    4685                li      a3,1
   19560:    00e64663            blt     a2,a4,0x1956c
   19564:    800006b7            lui     a3,0x80000
   19568:    00e6d6bb            srlw    a3,a3,a4
   1956c:    1682                slli    a3,a3,0x20
   1956e:    9381                srli    a5,a5,0x20
   19570:    9281                srli    a3,a3,0x20
   19572:    1782                slli    a5,a5,0x20
   19574:    8fd5                or      a5,a5,a3
   19576:    b7c9                j       0x19538
   19578:    7139                addi    sp,sp,-64
   1957a:    f426                sd      s1,40(sp)
   1957c:    4944                lw      s1,20(a0)
   1957e:    ec4e                sd      s3,24(sp)
   19580:    01850993            addi    s3,a0,24
   19584:    048a                slli    s1,s1,0x2
   19586:    94ce                add     s1,s1,s3
   19588:    f822                sd      s0,48(sp)
   1958a:    ffc4a403            lw      s0,-4(s1)
   1958e:    f04a                sd      s2,32(sp)
   19590:    e42e                sd      a1,8(sp)
   19592:    8522                mv      a0,s0
   19594:    fc06                sd      ra,56(sp)
   19596:    ab1ff0ef            jal     ra,0x19046
   1959a:    65a2                ld      a1,8(sp)
   1959c:    02000793            li      a5,32
   195a0:    9f89                subw    a5,a5,a0
   195a2:    c19c                sw      a5,0(a1)
   195a4:    47a9                li      a5,10
   195a6:    ffc48913            addi    s2,s1,-4
   195aa:    04a7c763            blt     a5,a0,0x195f8
   195ae:    46ad                li      a3,11
   195b0:    40a6863b            subw    a2,a3,a0
   195b4:    00c4573b            srlw    a4,s0,a2
   195b8:    3ff007b7            lui     a5,0x3ff00
   195bc:    8f5d                or      a4,a4,a5
   195be:    1702                slli    a4,a4,0x20
   195c0:    4681                li      a3,0
   195c2:    0129f463            bgeu    s3,s2,0x195ca
   195c6:    ff84a683            lw      a3,-8(s1)
   195ca:    0155079b            addiw   a5,a0,21
   195ce:    00f417bb            sllw    a5,s0,a5
   195d2:    00c6d6bb            srlw    a3,a3,a2
   195d6:    8fd5                or      a5,a5,a3
   195d8:    02075413            srli    s0,a4,0x20
   195dc:    1782                slli    a5,a5,0x20
   195de:    9381                srli    a5,a5,0x20
   195e0:    1402                slli    s0,s0,0x20
   195e2:    00f46733            or      a4,s0,a5
   195e6:    70e2                ld      ra,56(sp)
   195e8:    7442                ld      s0,48(sp)
   195ea:    74a2                ld      s1,40(sp)
   195ec:    7902                ld      s2,32(sp)
   195ee:    69e2                ld      s3,24(sp)
   195f0:    f2070553            fmv.d.x    fa0,a4
   195f4:    6121                addi    sp,sp,64
   195f6:    8082                ret

   195f8:    4681                li      a3,0
   195fa:    0129f663            bgeu    s3,s2,0x19606
   195fe:    ff84a683            lw      a3,-8(s1)
   19602:    ff848913            addi    s2,s1,-8
   19606:    ff55079b            addiw   a5,a0,-11
   1960a:    c3a9                beqz    a5,0x1964c
   1960c:    02000613            li      a2,32
   19610:    40f6053b            subw    a0,a2,a5
   19614:    00a6d73b            srlw    a4,a3,a0
   19618:    00f4143b            sllw    s0,s0,a5
   1961c:    8c59                or      s0,s0,a4
   1961e:    3ff00737            lui     a4,0x3ff00
   19622:    8c59                or      s0,s0,a4
   19624:    02041713            slli    a4,s0,0x20
   19628:    4601                li      a2,0
   1962a:    0129f463            bgeu    s3,s2,0x19632
   1962e:    ffc92603            lw      a2,-4(s2)
   19632:    00f696bb            sllw    a3,a3,a5
   19636:    00a6563b            srlw    a2,a2,a0
   1963a:    8ed1                or      a3,a3,a2
   1963c:    02075413            srli    s0,a4,0x20
   19640:    1682                slli    a3,a3,0x20
   19642:    9281                srli    a3,a3,0x20
   19644:    1402                slli    s0,s0,0x20
   19646:    00d46733            or      a4,s0,a3
   1964a:    bf71                j       0x195e6
   1964c:    3ff007b7            lui     a5,0x3ff00
   19650:    8c5d                or      s0,s0,a5
   19652:    02069713            slli    a4,a3,0x20
   19656:    9301                srli    a4,a4,0x20
   19658:    1402                slli    s0,s0,0x20
   1965a:    8f41                or      a4,a4,s0
   1965c:    b769                j       0x195e6
   1965e:    7139                addi    sp,sp,-64
   19660:    f822                sd      s0,48(sp)
   19662:    e2050453            fmv.x.d    s0,fa0
   19666:    e852                sd      s4,16(sp)
   19668:    8a2e                mv      s4,a1
   1966a:    4585                li      a1,1
   1966c:    f426                sd      s1,40(sp)
   1966e:    f04a                sd      s2,32(sp)
   19670:    ec4e                sd      s3,24(sp)
   19672:    42045493            srai    s1,s0,0x20
   19676:    fc06                sd      ra,56(sp)
   19678:    8932                mv      s2,a2
   1967a:    809ff0ef            jal     ra,0x18e82
   1967e:    02c49793            slli    a5,s1,0x2c
   19682:    0144d49b            srliw   s1,s1,0x14
   19686:    7ff4f493            andi    s1,s1,2047
   1968a:    89aa                mv      s3,a0
   1968c:    93b1                srli    a5,a5,0x2c
   1968e:    e0bd                bnez    s1,0x196f4
   19690:    c63e                sw      a5,12(sp)
   19692:    2401                sext.w  s0,s0
   19694:    c43d                beqz    s0,0x19702
   19696:    0028                addi    a0,sp,8
   19698:    c422                sw      s0,8(sp)
   1969a:    9fbff0ef            jal     ra,0x19094
   1969e:    46a2                lw      a3,8(sp)
   196a0:    cd31                beqz    a0,0x196fc
   196a2:    4732                lw      a4,12(sp)
   196a4:    02000793            li      a5,32
   196a8:    9f89                subw    a5,a5,a0
   196aa:    00f717bb            sllw    a5,a4,a5
   196ae:    8fd5                or      a5,a5,a3
   196b0:    00a7573b            srlw    a4,a4,a0
   196b4:    00f9ac23            sw      a5,24(s3)
   196b8:    c63a                sw      a4,12(sp)
   196ba:    4432                lw      s0,12(sp)
   196bc:    0089ae23            sw      s0,28(s3)
   196c0:    00803433            snez    s0,s0
   196c4:    0405                addi    s0,s0,1
   196c6:    0089aa23            sw      s0,20(s3)
   196ca:    c8a9                beqz    s1,0x1971c
   196cc:    bcd4849b            addiw   s1,s1,-1075
   196d0:    9ca9                addw    s1,s1,a0
   196d2:    03500793            li      a5,53
   196d6:    009a2023            sw      s1,0(s4)
   196da:    40a7853b            subw    a0,a5,a0
   196de:    00a92023            sw      a0,0(s2)
   196e2:    70e2                ld      ra,56(sp)
   196e4:    7442                ld      s0,48(sp)
   196e6:    854e                mv      a0,s3
   196e8:    74a2                ld      s1,40(sp)
   196ea:    7902                ld      s2,32(sp)
   196ec:    69e2                ld      s3,24(sp)
   196ee:    6a42                ld      s4,16(sp)
   196f0:    6121                addi    sp,sp,64
   196f2:    8082                ret

   196f4:    00100737            lui     a4,0x100
   196f8:    8fd9                or      a5,a5,a4
   196fa:    bf59                j       0x19690
   196fc:    00d9ac23            sw      a3,24(s3)
   19700:    bf6d                j       0x196ba
   19702:    0068                addi    a0,sp,12
   19704:    991ff0ef            jal     ra,0x19094
   19708:    47b2                lw      a5,12(sp)
   1970a:    0205051b            addiw   a0,a0,32
   1970e:    4405                li      s0,1
   19710:    00f9ac23            sw      a5,24(s3)
   19714:    4785                li      a5,1
   19716:    00f9aa23            sw      a5,20(s3)
   1971a:    bf45                j       0x196ca
   1971c:    bce5051b            addiw   a0,a0,-1074
   19720:    00241793            slli    a5,s0,0x2
   19724:    00aa2023            sw      a0,0(s4)
   19728:    97ce                add     a5,a5,s3
   1972a:    4bc8                lw      a0,20(a5)
   1972c:    0054141b            slliw   s0,s0,0x5
   19730:    917ff0ef            jal     ra,0x19046
   19734:    9c09                subw    s0,s0,a0
   19736:    00892023            sw      s0,0(s2)
   1973a:    b765                j       0x196e2
   1973c:    7139                addi    sp,sp,-64
   1973e:    f04a                sd      s2,32(sp)
   19740:    892e                mv      s2,a1
   19742:    002c                addi    a1,sp,8
   19744:    fc06                sd      ra,56(sp)
   19746:    f426                sd      s1,40(sp)
   19748:    ec4e                sd      s3,24(sp)
   1974a:    f822                sd      s0,48(sp)
   1974c:    89aa                mv      s3,a0
   1974e:    e2bff0ef            jal     ra,0x19578
   19752:    006c                addi    a1,sp,12
   19754:    854a                mv      a0,s2
   19756:    e20504d3            fmv.x.d    s1,fa0
   1975a:    e1fff0ef            jal     ra,0x19578
   1975e:    01492683            lw      a3,20(s2)
   19762:    0149a783            lw      a5,20(s3)
   19766:    45b2                lw      a1,12(sp)
   19768:    e2050653            fmv.x.d    a2,fa0
   1976c:    9f95                subw    a5,a5,a3
   1976e:    46a2                lw      a3,8(sp)
   19770:    0057979b            slliw   a5,a5,0x5
   19774:    9e8d                subw    a3,a3,a1
   19776:    9ebd                addw    a3,a3,a5
   19778:    87b6                mv      a5,a3
   1977a:    02d05a63            blez    a3,0x197ae
   1977e:    0146979b            slliw   a5,a3,0x14
   19782:    547d                li      s0,-1
   19784:    0204d693            srli    a3,s1,0x20
   19788:    9fb5                addw    a5,a5,a3
   1978a:    9001                srli    s0,s0,0x20
   1978c:    1782                slli    a5,a5,0x20
   1978e:    8c65                and     s0,s0,s1
   19790:    8732                mv      a4,a2
   19792:    8c5d                or      s0,s0,a5
   19794:    f20407d3            fmv.d.x    fa5,s0
   19798:    70e2                ld      ra,56(sp)
   1979a:    7442                ld      s0,48(sp)
   1979c:    f2070753            fmv.d.x    fa4,a4
   197a0:    74a2                ld      s1,40(sp)
   197a2:    7902                ld      s2,32(sp)
   197a4:    69e2                ld      s3,24(sp)
   197a6:    1ae7f553            fdiv.d    fa0,fa5,fa4
   197aa:    6121                addi    sp,sp,64
   197ac:    8082                ret

   197ae:    fff006b7            lui     a3,0xfff00
   197b2:    02f687bb            mulw    a5,a3,a5
   197b6:    02065713            srli    a4,a2,0x20
   197ba:    8426                mv      s0,s1
   197bc:    9fb9                addw    a5,a5,a4
   197be:    577d                li      a4,-1
   197c0:    9301                srli    a4,a4,0x20
   197c2:    1782                slli    a5,a5,0x20
   197c4:    8f71                and     a4,a4,a2
   197c6:    8f5d                or      a4,a4,a5
   197c8:    b7f1                j       0x19794
   197ca:    47dd                li      a5,23
   197cc:    00a7c963            blt     a5,a0,0x197de
   197d0:    67f5                lui     a5,0x1d
   197d2:    73078793            addi    a5,a5,1840 # 0x1d730
   197d6:    050e                slli    a0,a0,0x3
   197d8:    953e                add     a0,a0,a5
   197da:    2908                fld     fa0,16(a0)
   197dc:    8082                ret

   197de:    000207b7            lui     a5,0x20
   197e2:    d487b507            fld     fa0,-696(a5) # 0x1fd48
   197e6:    000207b7            lui     a5,0x20
   197ea:    d807b787            fld     fa5,-640(a5) # 0x1fd80
   197ee:    357d                addiw   a0,a0,-1
   197f0:    12f57553            fmul.d    fa0,fa0,fa5
   197f4:    fd6d                bnez    a0,0x197ee
   197f6:    8082                ret

   197f8:    fff5879b            addiw   a5,a1,-1
   197fc:    4a58                lw      a4,20(a2)
   197fe:    4057d79b            sraiw   a5,a5,0x5
   19802:    0785                addi    a5,a5,1
   19804:    078a                slli    a5,a5,0x2
   19806:    01860693            addi    a3,a2,24
   1980a:    070a                slli    a4,a4,0x2
   1980c:    97aa                add     a5,a5,a0
   1980e:    9736                add     a4,a4,a3
   19810:    00e6e563            bltu    a3,a4,0x1981a
   19814:    00f56a63            bltu    a0,a5,0x19828
   19818:    8082                ret

   1981a:    0691                addi    a3,a3,4
   1981c:    ffc6a603            lw      a2,-4(a3) # 0xffffffffffeffffc
   19820:    0511                addi    a0,a0,4
   19822:    fec52e23            sw      a2,-4(a0)
   19826:    b7ed                j       0x19810
   19828:    0511                addi    a0,a0,4
   1982a:    fe052e23            sw      zero,-4(a0)
   1982e:    b7dd                j       0x19814
   19830:    4954                lw      a3,20(a0)
   19832:    4055d793            srai    a5,a1,0x5
   19836:    01850713            addi    a4,a0,24
   1983a:    02f6c763            blt     a3,a5,0x19868
   1983e:    00d7df63            bge     a5,a3,0x1985c
   19842:    89fd                andi    a1,a1,31
   19844:    cd81                beqz    a1,0x1985c
   19846:    00279693            slli    a3,a5,0x2
   1984a:    96ba                add     a3,a3,a4
   1984c:    4290                lw      a2,0(a3)
   1984e:    4505                li      a0,1
   19850:    00b656bb            srlw    a3,a2,a1
   19854:    00b695bb            sllw    a1,a3,a1
   19858:    00c59e63            bne     a1,a2,0x19874
   1985c:    078a                slli    a5,a5,0x2
   1985e:    97ba                add     a5,a5,a4
   19860:    00f76663            bltu    a4,a5,0x1986c
   19864:    4501                li      a0,0
   19866:    8082                ret

   19868:    87b6                mv      a5,a3
   1986a:    bfcd                j       0x1985c
   1986c:    17f1                addi    a5,a5,-4
   1986e:    4394                lw      a3,0(a5)
   19870:    dae5                beqz    a3,0x19860
   19872:    4505                li      a0,1
   19874:    8082                ret

   19876:    1101                addi    sp,sp,-32
   19878:    e822                sd      s0,16(sp)
   1987a:    e426                sd      s1,8(sp)
   1987c:    84aa                mv      s1,a0
   1987e:    852e                mv      a0,a1
   19880:    85b2                mv      a1,a2
   19882:    8636                mv      a2,a3
   19884:    ec06                sd      ra,24(sp)
   19886:    9001ac23            sw      zero,-1768(gp)
   1988a:    11c020ef            jal     ra,0x1b9a6
   1988e:    57fd                li      a5,-1
   19890:    00f51663            bne     a0,a5,0x1989c
   19894:    9181a783            lw      a5,-1768(gp)
   19898:    c391                beqz    a5,0x1989c
   1989a:    c09c                sw      a5,0(s1)
   1989c:    60e2                ld      ra,24(sp)
   1989e:    6442                ld      s0,16(sp)
   198a0:    64a2                ld      s1,8(sp)
   198a2:    6105                addi    sp,sp,32
   198a4:    8082                ret

   198a6:    1101                addi    sp,sp,-32
   198a8:    e822                sd      s0,16(sp)
   198aa:    842e                mv      s0,a1
   198ac:    618c                ld      a1,0(a1)
   198ae:    e426                sd      s1,8(sp)
   198b0:    ec06                sd      ra,24(sp)
   198b2:    84aa                mv      s1,a0
   198b4:    c199                beqz    a1,0x198ba
   198b6:    ff1ff0ef            jal     ra,0x198a6
   198ba:    85a2                mv      a1,s0
   198bc:    6442                ld      s0,16(sp)
   198be:    60e2                ld      ra,24(sp)
   198c0:    8526                mv      a0,s1
   198c2:    64a2                ld      s1,8(sp)
   198c4:    6105                addi    sp,sp,32
   198c6:    ca2fd06f            j       0x16d68
   198ca:    8781b783            ld      a5,-1928(gp)
   198ce:    0aa78063            beq     a5,a0,0x1996e
   198d2:    7d3c                ld      a5,120(a0)
   198d4:    7179                addi    sp,sp,-48
   198d6:    f022                sd      s0,32(sp)
   198d8:    f406                sd      ra,40(sp)
   198da:    ec26                sd      s1,24(sp)
   198dc:    e84a                sd      s2,16(sp)
   198de:    e44e                sd      s3,8(sp)
   198e0:    842a                mv      s0,a0
   198e2:    cf99                beqz    a5,0x19900
   198e4:    4481                li      s1,0
   198e6:    20000913            li      s2,512
   198ea:    7c3c                ld      a5,120(s0)
   198ec:    97a6                add     a5,a5,s1
   198ee:    638c                ld      a1,0(a5)
   198f0:    e99d                bnez    a1,0x19926
   198f2:    04a1                addi    s1,s1,8
   198f4:    ff249be3            bne     s1,s2,0x198ea
   198f8:    7c2c                ld      a1,120(s0)
   198fa:    8522                mv      a0,s0
   198fc:    c6cfd0ef            jal     ra,0x16d68
   19900:    702c                ld      a1,96(s0)
   19902:    c581                beqz    a1,0x1990a
   19904:    8522                mv      a0,s0
   19906:    c62fd0ef            jal     ra,0x16d68
   1990a:    1f843583            ld      a1,504(s0)
   1990e:    c19d                beqz    a1,0x19934
   19910:    20040493            addi    s1,s0,512
   19914:    02958063            beq     a1,s1,0x19934
   19918:    0005b903            ld      s2,0(a1)
   1991c:    8522                mv      a0,s0
   1991e:    c4afd0ef            jal     ra,0x16d68
   19922:    85ca                mv      a1,s2
   19924:    bfc5                j       0x19914
   19926:    0005b983            ld      s3,0(a1)
   1992a:    8522                mv      a0,s0
   1992c:    c3cfd0ef            jal     ra,0x16d68
   19930:    85ce                mv      a1,s3
   19932:    bf7d                j       0x198f0
   19934:    644c                ld      a1,136(s0)
   19936:    c581                beqz    a1,0x1993e
   19938:    8522                mv      a0,s0
   1993a:    c2efd0ef            jal     ra,0x16d68
   1993e:    483c                lw      a5,80(s0)
   19940:    c385                beqz    a5,0x19960
   19942:    6c3c                ld      a5,88(s0)
   19944:    8522                mv      a0,s0
   19946:    9782                jalr    a5
   19948:    52043583            ld      a1,1312(s0)
   1994c:    c991                beqz    a1,0x19960
   1994e:    8522                mv      a0,s0
   19950:    7402                ld      s0,32(sp)
   19952:    70a2                ld      ra,40(sp)
   19954:    64e2                ld      s1,24(sp)
   19956:    6942                ld      s2,16(sp)
   19958:    69a2                ld      s3,8(sp)
   1995a:    6145                addi    sp,sp,48
   1995c:    f4bff06f            j       0x198a6
   19960:    70a2                ld      ra,40(sp)
   19962:    7402                ld      s0,32(sp)
   19964:    64e2                ld      s1,24(sp)
   19966:    6942                ld      s2,16(sp)
   19968:    69a2                ld      s3,8(sp)
   1996a:    6145                addi    sp,sp,48
   1996c:    8082                ret

   1996e:    8082                ret

   19970:    e2050753            fmv.x.d    a4,fa0
   19974:    80000637            lui     a2,0x80000
   19978:    fff64613            not     a2,a2
   1997c:    42075793            srai    a5,a4,0x20
   19980:    00c7f6b3            and     a3,a5,a2
   19984:    00052023            sw      zero,0(a0)
   19988:    7ff005b7            lui     a1,0x7ff00
   1998c:    04b6dc63            bge     a3,a1,0x199e4
   19990:    00e6e5b3            or      a1,a3,a4
   19994:    2581                sext.w  a1,a1
   19996:    c5b9                beqz    a1,0x199e4
   19998:    7ff005b7            lui     a1,0x7ff00
   1999c:    8dfd                and     a1,a1,a5
   1999e:    e185                bnez    a1,0x199be
   199a0:    000207b7            lui     a5,0x20
   199a4:    d887b787            fld     fa5,-632(a5) # 0x1fd88
   199a8:    12f577d3            fmul.d    fa5,fa0,fa5
   199ac:    e2078753            fmv.x.d    a4,fa5
   199b0:    42075793            srai    a5,a4,0x20
   199b4:    00c7f6b3            and     a3,a5,a2
   199b8:    fca00613            li      a2,-54
   199bc:    c110                sw      a2,0(a0)
   199be:    4110                lw      a2,0(a0)
   199c0:    4146d69b            sraiw   a3,a3,0x14
   199c4:    c026869b            addiw   a3,a3,-1022
   199c8:    9eb1                addw    a3,a3,a2
   199ca:    c114                sw      a3,0(a0)
   199cc:    801006b7            lui     a3,0x80100
   199d0:    16fd                addi    a3,a3,-1
   199d2:    8ff5                and     a5,a5,a3
   199d4:    3fe006b7            lui     a3,0x3fe00
   199d8:    8fd5                or      a5,a5,a3
   199da:    56fd                li      a3,-1
   199dc:    9281                srli    a3,a3,0x20
   199de:    1782                slli    a5,a5,0x20
   199e0:    8f75                and     a4,a4,a3
   199e2:    8f5d                or      a4,a4,a5
   199e4:    f2070553            fmv.d.x    fa0,a4
   199e8:    8082                ret

   199ea:    87aa                mv      a5,a0
   199ec:    0005c703            lbu     a4,0(a1) # 0x7ff00000
   199f0:    0785                addi    a5,a5,1
   199f2:    0585                addi    a1,a1,1
   199f4:    fee78fa3            sb      a4,-1(a5)
   199f8:    fb75                bnez    a4,0x199ec
   199fa:    8082                ret

   199fc:    c605                beqz    a2,0x19a24
   199fe:    167d                addi    a2,a2,-1
   19a00:    4701                li      a4,0
   19a02:    00e507b3            add     a5,a0,a4
   19a06:    00e586b3            add     a3,a1,a4
   19a0a:    0007c783            lbu     a5,0(a5)
   19a0e:    0006c683            lbu     a3,0(a3) # 0x3fe00000
   19a12:    00d79663            bne     a5,a3,0x19a1e
   19a16:    00c70463            beq     a4,a2,0x19a1e
   19a1a:    0705                addi    a4,a4,1
   19a1c:    f3fd                bnez    a5,0x19a02
   19a1e:    40d7853b            subw    a0,a5,a3
   19a22:    8082                ret

   19a24:    4501                li      a0,0
   19a26:    8082                ret

   19a28:    87aa                mv      a5,a0
   19a2a:    ca09                beqz    a2,0x19a3c
   19a2c:    0585                addi    a1,a1,1
   19a2e:    fff5c703            lbu     a4,-1(a1)
   19a32:    0785                addi    a5,a5,1
   19a34:    167d                addi    a2,a2,-1
   19a36:    fee78fa3            sb      a4,-1(a5)
   19a3a:    fb65                bnez    a4,0x19a2a
   19a3c:    963e                add     a2,a2,a5
   19a3e:    00c79363            bne     a5,a2,0x19a44
   19a42:    8082                ret

   19a44:    0785                addi    a5,a5,1
   19a46:    fe078fa3            sb      zero,-1(a5)
   19a4a:    bfd5                j       0x19a3e
   19a4c:    4954                lw      a3,20(a0)
   19a4e:    01850613            addi    a2,a0,24
   19a52:    4055d713            srai    a4,a1,0x5
   19a56:    87b2                mv      a5,a2
   19a58:    02d75663            bge     a4,a3,0x19a84
   19a5c:    068a                slli    a3,a3,0x2
   19a5e:    070a                slli    a4,a4,0x2
   19a60:    89fd                andi    a1,a1,31
   19a62:    96b2                add     a3,a3,a2
   19a64:    9732                add     a4,a4,a2
   19a66:    c9b1                beqz    a1,0x19aba
   19a68:    00470813            addi    a6,a4,4 # 0x100004
   19a6c:    4318                lw      a4,0(a4)
   19a6e:    02000893            li      a7,32
   19a72:    40b888bb            subw    a7,a7,a1
   19a76:    00b7573b            srlw    a4,a4,a1
   19a7a:    00d86d63            bltu    a6,a3,0x19a94
   19a7e:    c398                sw      a4,0(a5)
   19a80:    c311                beqz    a4,0x19a84
   19a82:    0791                addi    a5,a5,4
   19a84:    8f91                sub     a5,a5,a2
   19a86:    8789                srai    a5,a5,0x2
   19a88:    2781                sext.w  a5,a5
   19a8a:    c95c                sw      a5,20(a0)
   19a8c:    e399                bnez    a5,0x19a92
   19a8e:    00052c23            sw      zero,24(a0)
   19a92:    8082                ret

   19a94:    00082303            lw      t1,0(a6)
   19a98:    0791                addi    a5,a5,4
   19a9a:    0811                addi    a6,a6,4
   19a9c:    0113133b            sllw    t1,t1,a7
   19aa0:    00676733            or      a4,a4,t1
   19aa4:    fee7ae23            sw      a4,-4(a5)
   19aa8:    ffc82703            lw      a4,-4(a6)
   19aac:    b7e9                j       0x19a76
   19aae:    0711                addi    a4,a4,4
   19ab0:    ffc72583            lw      a1,-4(a4)
   19ab4:    0791                addi    a5,a5,4
   19ab6:    feb7ae23            sw      a1,-4(a5)
   19aba:    fed76ae3            bltu    a4,a3,0x19aae
   19abe:    b7d9                j       0x19a84
   19ac0:    49d8                lw      a4,20(a1)
   19ac2:    1101                addi    sp,sp,-32
   19ac4:    01858793            addi    a5,a1,24
   19ac8:    070a                slli    a4,a4,0x2
   19aca:    e822                sd      s0,16(sp)
   19acc:    e04a                sd      s2,0(sp)
   19ace:    ec06                sd      ra,24(sp)
   19ad0:    e426                sd      s1,8(sp)
   19ad2:    892a                mv      s2,a0
   19ad4:    842e                mv      s0,a1
   19ad6:    973e                add     a4,a4,a5
   19ad8:    567d                li      a2,-1
   19ada:    4394                lw      a3,0(a5)
   19adc:    00c68b63            beq     a3,a2,0x19af2
   19ae0:    2685                addiw   a3,a3,1
   19ae2:    c394                sw      a3,0(a5)
   19ae4:    8522                mv      a0,s0
   19ae6:    60e2                ld      ra,24(sp)
   19ae8:    6442                ld      s0,16(sp)
   19aea:    64a2                ld      s1,8(sp)
   19aec:    6902                ld      s2,0(sp)
   19aee:    6105                addi    sp,sp,32
   19af0:    8082                ret

   19af2:    0791                addi    a5,a5,4
   19af4:    fe07ae23            sw      zero,-4(a5)
   19af8:    fee7e1e3            bltu    a5,a4,0x19ada
   19afc:    4858                lw      a4,20(s0)
   19afe:    445c                lw      a5,12(s0)
   19b00:    02f74563            blt     a4,a5,0x19b2a
   19b04:    440c                lw      a1,8(s0)
   19b06:    854a                mv      a0,s2
   19b08:    2585                addiw   a1,a1,1
   19b0a:    b78ff0ef            jal     ra,0x18e82
   19b0e:    4850                lw      a2,20(s0)
   19b10:    01040593            addi    a1,s0,16
   19b14:    84aa                mv      s1,a0
   19b16:    0609                addi    a2,a2,2
   19b18:    060a                slli    a2,a2,0x2
   19b1a:    0541                addi    a0,a0,16
   19b1c:    ffef90ef            jal     ra,0x1331a
   19b20:    85a2                mv      a1,s0
   19b22:    854a                mv      a0,s2
   19b24:    bc2ff0ef            jal     ra,0x18ee6
   19b28:    8426                mv      s0,s1
   19b2a:    485c                lw      a5,20(s0)
   19b2c:    0017871b            addiw   a4,a5,1
   19b30:    0791                addi    a5,a5,4
   19b32:    078a                slli    a5,a5,0x2
   19b34:    c858                sw      a4,20(s0)
   19b36:    97a2                add     a5,a5,s0
   19b38:    4705                li      a4,1
   19b3a:    c798                sw      a4,8(a5)
   19b3c:    b765                j       0x19ae4
   19b3e:    7175                addi    sp,sp,-144
   19b40:    e8da                sd      s6,80(sp)
   19b42:    e0e2                sd      s8,64(sp)
   19b44:    8b32                mv      s6,a2
   19b46:    8c2e                mv      s8,a1
   19b48:    0830                addi    a2,sp,24
   19b4a:    086c                addi    a1,sp,28
   19b4c:    e122                sd      s0,128(sp)
   19b4e:    f8ca                sd      s2,112(sp)
   19b50:    f4ce                sd      s3,104(sp)
   19b52:    f0d2                sd      s4,96(sp)
   19b54:    ecd6                sd      s5,88(sp)
   19b56:    e4de                sd      s7,72(sp)
   19b58:    8ab6                mv      s5,a3
   19b5a:    e43e                sd      a5,8(sp)
   19b5c:    e506                sd      ra,136(sp)
   19b5e:    fca6                sd      s1,120(sp)
   19b60:    fc66                sd      s9,56(sp)
   19b62:    f86a                sd      s10,48(sp)
   19b64:    f46e                sd      s11,40(sp)
   19b66:    8a2a                mv      s4,a0
   19b68:    8bba                mv      s7,a4
   19b6a:    89c2                mv      s3,a6
   19b6c:    af3ff0ef            jal     ra,0x1965e
   19b70:    4662                lw      a2,24(sp)
   19b72:    000c2903            lw      s2,0(s8)
   19b76:    46f2                lw      a3,28(sp)
   19b78:    842a                mv      s0,a0
   19b7a:    412605bb            subw    a1,a2,s2
   19b7e:    9ead                addw    a3,a3,a1
   19b80:    cc2e                sw      a1,24(sp)
   19b82:    ce36                sw      a3,28(sp)
   19b84:    67a2                ld      a5,8(sp)
   19b86:    02b04863            bgtz    a1,0x19bb6
   19b8a:    100b9d63            bnez    s7,0x19ca4
   19b8e:    8552                mv      a0,s4
   19b90:    85a2                mv      a1,s0
   19b92:    b54ff0ef            jal     ra,0x18ee6
   19b96:    60aa                ld      ra,136(sp)
   19b98:    640a                ld      s0,128(sp)
   19b9a:    855e                mv      a0,s7
   19b9c:    74e6                ld      s1,120(sp)
   19b9e:    7946                ld      s2,112(sp)
   19ba0:    79a6                ld      s3,104(sp)
   19ba2:    7a06                ld      s4,96(sp)
   19ba4:    6ae6                ld      s5,88(sp)
   19ba6:    6b46                ld      s6,80(sp)
   19ba8:    6ba6                ld      s7,72(sp)
   19baa:    6c06                ld      s8,64(sp)
   19bac:    7ce2                ld      s9,56(sp)
   19bae:    7d42                ld      s10,48(sp)
   19bb0:    7da2                ld      s11,40(sp)
   19bb2:    6149                addi    sp,sp,144
   19bb4:    8082                ret

   19bb6:    03500693            li      a3,53
   19bba:    00d91b63            bne     s2,a3,0x19bd0
   19bbe:    fc0b88e3            beqz    s7,0x19b8e
   19bc2:    00cc2703            lw      a4,12(s8)
   19bc6:    4785                li      a5,1
   19bc8:    0cf70a63            beq     a4,a5,0x19c9c
   19bcc:    4b81                li      s7,0
   19bce:    b7c1                j       0x19b8e
   19bd0:    4685                li      a3,1
   19bd2:    0cd78563            beq     a5,a3,0x19c9c
   19bd6:    4689                li      a3,2
   19bd8:    0cd78463            beq     a5,a3,0x19ca0
   19bdc:    fff5879b            addiw   a5,a1,-1
   19be0:    e3c5                bnez    a5,0x19c80
   19be2:    fa0b86e3            beqz    s7,0x19b8e
   19be6:    4d04                lw      s1,24(a0)
   19be8:    4014d49b            sraiw   s1,s1,0x1
   19bec:    8885                andi    s1,s1,1
   19bee:    8522                mv      a0,s0
   19bf0:    c41ff0ef            jal     ra,0x19830
   19bf4:    45e2                lw      a1,24(sp)
   19bf6:    00050d1b            sext.w  s10,a0
   19bfa:    01a03cb3            snez    s9,s10
   19bfe:    8522                mv      a0,s0
   19c00:    0c92                slli    s9,s9,0x4
   19c02:    e4bff0ef            jal     ra,0x19a4c
   19c06:    c8a1                beqz    s1,0x19c56
   19c08:    85a2                mv      a1,s0
   19c0a:    8552                mv      a0,s4
   19c0c:    eb5ff0ef            jal     ra,0x19ac0
   19c10:    01f97493            andi    s1,s2,31
   19c14:    842a                mv      s0,a0
   19c16:    c489                beqz    s1,0x19c20
   19c18:    02000793            li      a5,32
   19c1c:    409784bb            subw    s1,a5,s1
   19c20:    485c                lw      a5,20(s0)
   19c22:    02000c93            li      s9,32
   19c26:    37fd                addiw   a5,a5,-1
   19c28:    0791                addi    a5,a5,4
   19c2a:    078a                slli    a5,a5,0x2
   19c2c:    97a2                add     a5,a5,s0
   19c2e:    4788                lw      a0,8(a5)
   19c30:    c16ff0ef            jal     ra,0x19046
   19c34:    02950163            beq     a0,s1,0x19c56
   19c38:    000d1663            bnez    s10,0x19c44
   19c3c:    01842d03            lw      s10,24(s0)
   19c40:    001d7d13            andi    s10,s10,1
   19c44:    4585                li      a1,1
   19c46:    8522                mv      a0,s0
   19c48:    e05ff0ef            jal     ra,0x19a4c
   19c4c:    47f2                lw      a5,28(sp)
   19c4e:    02000c93            li      s9,32
   19c52:    2785                addiw   a5,a5,1
   19c54:    ce3e                sw      a5,28(sp)
   19c56:    004c2703            lw      a4,4(s8)
   19c5a:    47f2                lw      a5,28(sp)
   19c5c:    0ce7df63            bge     a5,a4,0x19d3a
   19c60:    40f70dbb            subw    s11,a4,a5
   19c64:    ce3a                sw      a4,28(sp)
   19c66:    01b94563            blt     s2,s11,0x19c70
   19c6a:    010c2703            lw      a4,16(s8)
   19c6e:    c731                beqz    a4,0x19cba
   19c70:    00042a23            sw      zero,20(s0)
   19c74:    05000793            li      a5,80
   19c78:    00f9a023            sw      a5,0(s3)
   19c7c:    4c81                li      s9,0
   19c7e:    a849                j       0x19d10
   19c80:    4057d71b            sraiw   a4,a5,0x5
   19c84:    0711                addi    a4,a4,4
   19c86:    070a                slli    a4,a4,0x2
   19c88:    4485                li      s1,1
   19c8a:    972a                add     a4,a4,a0
   19c8c:    00f497bb            sllw    a5,s1,a5
   19c90:    4704                lw      s1,8(a4)
   19c92:    8cfd                and     s1,s1,a5
   19c94:    2481                sext.w  s1,s1
   19c96:    009034b3            snez    s1,s1
   19c9a:    bf91                j       0x19bee
   19c9c:    4481                li      s1,0
   19c9e:    bf81                j       0x19bee
   19ca0:    4485                li      s1,1
   19ca2:    b7b1                j       0x19bee
   19ca4:    c981                beqz    a1,0x19cb4
   19ca6:    85aa                mv      a1,a0
   19ca8:    40c9063b            subw    a2,s2,a2
   19cac:    8552                mv      a0,s4
   19cae:    e62ff0ef            jal     ra,0x19310
   19cb2:    842a                mv      s0,a0
   19cb4:    4d01                li      s10,0
   19cb6:    4c81                li      s9,0
   19cb8:    bf79                j       0x19c56
   19cba:    fffd8c1b            addiw   s8,s11,-1
   19cbe:    84e2                mv      s1,s8
   19cc0:    000c0a63            beqz    s8,0x19cd4
   19cc4:    000d1c63            bnez    s10,0x19cdc
   19cc8:    85e2                mv      a1,s8
   19cca:    8522                mv      a0,s0
   19ccc:    b65ff0ef            jal     ra,0x19830
   19cd0:    00050d1b            sext.w  s10,a0
   19cd4:    000d1463            bnez    s10,0x19cdc
   19cd8:    ea0b8be3            beqz    s7,0x19b8e
   19cdc:    4054d49b            sraiw   s1,s1,0x5
   19ce0:    0491                addi    s1,s1,4
   19ce2:    048a                slli    s1,s1,0x2
   19ce4:    94a2                add     s1,s1,s0
   19ce6:    4484                lw      s1,8(s1)
   19ce8:    4585                li      a1,1
   19cea:    018595bb            sllw    a1,a1,s8
   19cee:    8ced                and     s1,s1,a1
   19cf0:    8522                mv      a0,s0
   19cf2:    85ee                mv      a1,s11
   19cf4:    d59ff0ef            jal     ra,0x19a4c
   19cf8:    4789                li      a5,2
   19cfa:    2481                sext.w  s1,s1
   19cfc:    00f9a023            sw      a5,0(s3)
   19d00:    c885                beqz    s1,0x19d30
   19d02:    85a2                mv      a1,s0
   19d04:    8552                mv      a0,s4
   19d06:    dbbff0ef            jal     ra,0x19ac0
   19d0a:    842a                mv      s0,a0
   19d0c:    06000c93            li      s9,96
   19d10:    47f2                lw      a5,28(sp)
   19d12:    8622                mv      a2,s0
   19d14:    85ca                mv      a1,s2
   19d16:    00fb2023            sw      a5,0(s6)
   19d1a:    8556                mv      a0,s5
   19d1c:    addff0ef            jal     ra,0x197f8
   19d20:    0009a783            lw      a5,0(s3)
   19d24:    4b85                li      s7,1
   19d26:    00fcecb3            or      s9,s9,a5
   19d2a:    0199a023            sw      s9,0(s3)
   19d2e:    b585                j       0x19b8e
   19d30:    fe0d00e3            beqz    s10,0x19d10
   19d34:    05000c93            li      s9,80
   19d38:    bfe1                j       0x19d10
   19d3a:    008c2703            lw      a4,8(s8)
   19d3e:    fcf759e3            bge     a4,a5,0x19d10
   19d42:    0a300793            li      a5,163
   19d46:    2705                addiw   a4,a4,1
   19d48:    00f9a023            sw      a5,0(s3)
   19d4c:    ce3a                sw      a4,28(sp)
   19d4e:    301010ef            jal     ra,0x1b84e
   19d52:    02200793            li      a5,34
   19d56:    c11c                sw      a5,0(a0)
   19d58:    00042a23            sw      zero,20(s0)
   19d5c:    b705                j       0x19c7c
   19d5e:    4958                lw      a4,20(a0)
   19d60:    01850793            addi    a5,a0,24
   19d64:    567d                li      a2,-1
   19d66:    070a                slli    a4,a4,0x2
   19d68:    973e                add     a4,a4,a5
   19d6a:    4394                lw      a3,0(a5)
   19d6c:    c689                beqz    a3,0x19d76
   19d6e:    36fd                addiw   a3,a3,-1
   19d70:    c394                sw      a3,0(a5)
   19d72:    4541                li      a0,16
   19d74:    8082                ret

   19d76:    0791                addi    a5,a5,4
   19d78:    fec7ae23            sw      a2,-4(a5)
   19d7c:    fee7e7e3            bltu    a5,a4,0x19d6a
   19d80:    bfcd                j       0x19d72
   19d82:    7179                addi    sp,sp,-48
   19d84:    459c                lw      a5,8(a1)
   19d86:    f022                sd      s0,32(sp)
   19d88:    01f6041b            addiw   s0,a2,31
   19d8c:    f406                sd      ra,40(sp)
   19d8e:    ec26                sd      s1,24(sp)
   19d90:    4054541b            sraiw   s0,s0,0x5
   19d94:    86ae                mv      a3,a1
   19d96:    0087dc63            bge     a5,s0,0x19dae
   19d9a:    e432                sd      a2,8(sp)
   19d9c:    84aa                mv      s1,a0
   19d9e:    948ff0ef            jal     ra,0x18ee6
   19da2:    85a2                mv      a1,s0
   19da4:    8526                mv      a0,s1
   19da6:    8dcff0ef            jal     ra,0x18e82
   19daa:    6622                ld      a2,8(sp)
   19dac:    86aa                mv      a3,a0
   19dae:    4056571b            sraiw   a4,a2,0x5
   19db2:    8a7d                andi    a2,a2,31
   19db4:    c211                beqz    a2,0x19db8
   19db6:    2705                addiw   a4,a4,1
   19db8:    cad8                sw      a4,20(a3)
   19dba:    01868793            addi    a5,a3,24
   19dbe:    070a                slli    a4,a4,0x2
   19dc0:    973e                add     a4,a4,a5
   19dc2:    55fd                li      a1,-1
   19dc4:    02e7e263            bltu    a5,a4,0x19de8
   19dc8:    ca11                beqz    a2,0x19ddc
   19dca:    02000713            li      a4,32
   19dce:    9f11                subw    a4,a4,a2
   19dd0:    ffc7a603            lw      a2,-4(a5)
   19dd4:    00e6563b            srlw    a2,a2,a4
   19dd8:    fec7ae23            sw      a2,-4(a5)
   19ddc:    70a2                ld      ra,40(sp)
   19dde:    7402                ld      s0,32(sp)
   19de0:    64e2                ld      s1,24(sp)
   19de2:    8536                mv      a0,a3
   19de4:    6145                addi    sp,sp,48
   19de6:    8082                ret

   19de8:    0791                addi    a5,a5,4
   19dea:    feb7ae23            sw      a1,-4(a5)
   19dee:    bfd9                j       0x19dc4
   19df0:    710d                addi    sp,sp,-352
   19df2:    eaa2                sd      s0,336(sp)
   19df4:    842a                mv      s0,a0
   19df6:    8542                mv      a0,a6
   19df8:    f8b2                sd      a2,112(sp)
   19dfa:    e442                sd      a6,8(sp)
   19dfc:    ee86                sd      ra,344(sp)
   19dfe:    fe4e                sd      s3,312(sp)
   19e00:    fa52                sd      s4,304(sp)
   19e02:    f25a                sd      s6,288(sp)
   19e04:    8a2e                mv      s4,a1
   19e06:    8b36                mv      s6,a3
   19e08:    e666                sd      s9,264(sp)
   19e0a:    f43a                sd      a4,40(sp)
   19e0c:    e4be                sd      a5,72(sp)
   19e0e:    e6a6                sd      s1,328(sp)
   19e10:    e2ca                sd      s2,320(sp)
   19e12:    f656                sd      s5,296(sp)
   19e14:    ee5e                sd      s7,280(sp)
   19e16:    ea62                sd      s8,272(sp)
   19e18:    e26a                sd      s10,256(sp)
   19e1a:    fdee                sd      s11,248(sp)
   19e1c:    b5a2                fsd     fs0,232(sp)
   19e1e:    b1a6                fsd     fs1,224(sp)
   19e20:    adca                fsd     fs2,216(sp)
   19e22:    a9ce                fsd     fs3,208(sp)
   19e24:    a5d2                fsd     fs4,200(sp)
   19e26:    a1d6                fsd     fs5,192(sp)
   19e28:    e69f80ef            jal     ra,0x12c90
   19e2c:    8caa                mv      s9,a0
   19e2e:    6108                ld      a0,0(a0)
   19e30:    efcf60ef            jal     ra,0x1052c
   19e34:    6822                ld      a6,8(sp)
   19e36:    000b2983            lw      s3,0(s6)
   19e3a:    d102                sw      zero,160(sp)
   19e3c:    fd02                sd      zero,184(sp)
   19e3e:    f952                sd      s4,176(sp)
   19e40:    46b5                li      a3,13
   19e42:    02b00613            li      a2,43
   19e46:    02d00593            li      a1,45
   19e4a:    02000893            li      a7,32
   19e4e:    4325                li      t1,9
   19e50:    77ca                ld      a5,176(sp)
   19e52:    0007c703            lbu     a4,0(a5)
   19e56:    06e6e263            bltu    a3,a4,0x19eba
   19e5a:    06677663            bgeu    a4,t1,0x19ec6
   19e5e:    cf35                beqz    a4,0x19eda
   19e60:    f802                sd      zero,48(sp)
   19e62:    77ca                ld      a5,176(sp)
   19e64:    03000713            li      a4,48
   19e68:    4b81                li      s7,0
   19e6a:    0007c683            lbu     a3,0(a5)
   19e6e:    0ce69963            bne     a3,a4,0x19f40
   19e72:    0017c783            lbu     a5,1(a5)
   19e76:    05800713            li      a4,88
   19e7a:    00e78863            beq     a5,a4,0x19e8a
   19e7e:    07800693            li      a3,120
   19e82:    03000713            li      a4,48
   19e86:    0ad79363            bne     a5,a3,0x19f2c
   19e8a:    77c2                ld      a5,48(sp)
   19e8c:    76a2                ld      a3,40(sp)
   19e8e:    1938                addi    a4,sp,184
   19e90:    865a                mv      a2,s6
   19e92:    190c                addi    a1,sp,176
   19e94:    8522                mv      a0,s0
   19e96:    93efd0ef            jal     ra,0x16fd4
   19e9a:    d12a                sw      a0,160(sp)
   19e9c:    4799                li      a5,6
   19e9e:    04f50063            beq     a0,a5,0x19ede
   19ea2:    77c6                ld      a5,112(sp)
   19ea4:    c781                beqz    a5,0x19eac
   19ea6:    77ca                ld      a5,176(sp)
   19ea8:    7746                ld      a4,112(sp)
   19eaa:    e31c                sd      a5,0(a4)
   19eac:    77c2                ld      a5,48(sp)
   19eae:    cf85                beqz    a5,0x19ee6
   19eb0:    578a                lw      a5,160(sp)
   19eb2:    0087e793            ori     a5,a5,8
   19eb6:    d13e                sw      a5,160(sp)
   19eb8:    a03d                j       0x19ee6
   19eba:    00c70963            beq     a4,a2,0x19ecc
   19ebe:    06b70463            beq     a4,a1,0x19f26
   19ec2:    f9171fe3            bne     a4,a7,0x19e60
   19ec6:    0785                addi    a5,a5,1
   19ec8:    f93e                sd      a5,176(sp)
   19eca:    b759                j       0x19e50
   19ecc:    f802                sd      zero,48(sp)
   19ece:    00178713            addi    a4,a5,1
   19ed2:    f93a                sd      a4,176(sp)
   19ed4:    0017c783            lbu     a5,1(a5)
   19ed8:    f7c9                bnez    a5,0x19e62
   19eda:    4799                li      a5,6
   19edc:    d13e                sw      a5,160(sp)
   19ede:    77c6                ld      a5,112(sp)
   19ee0:    f952                sd      s4,176(sp)
   19ee2:    f802                sd      zero,48(sp)
   19ee4:    f3e9                bnez    a5,0x19ea6
   19ee6:    766a                ld      a2,184(sp)
   19ee8:    ca09                beqz    a2,0x19efa
   19eea:    6526                ld      a0,72(sp)
   19eec:    85ce                mv      a1,s3
   19eee:    90bff0ef            jal     ra,0x197f8
   19ef2:    75ea                ld      a1,184(sp)
   19ef4:    8522                mv      a0,s0
   19ef6:    ff1fe0ef            jal     ra,0x18ee6
   19efa:    60f6                ld      ra,344(sp)
   19efc:    6456                ld      s0,336(sp)
   19efe:    550a                lw      a0,160(sp)
   19f00:    64b6                ld      s1,328(sp)
   19f02:    6916                ld      s2,320(sp)
   19f04:    79f2                ld      s3,312(sp)
   19f06:    7a52                ld      s4,304(sp)
   19f08:    7ab2                ld      s5,296(sp)
   19f0a:    7b12                ld      s6,288(sp)
   19f0c:    6bf2                ld      s7,280(sp)
   19f0e:    6c52                ld      s8,272(sp)
   19f10:    6cb2                ld      s9,264(sp)
   19f12:    6d12                ld      s10,256(sp)
   19f14:    7dee                ld      s11,248(sp)
   19f16:    342e                fld     fs0,232(sp)
   19f18:    348e                fld     fs1,224(sp)
   19f1a:    296e                fld     fs2,216(sp)
   19f1c:    29ce                fld     fs3,208(sp)
   19f1e:    2a2e                fld     fs4,200(sp)
   19f20:    2a8e                fld     fs5,192(sp)
   19f22:    6135                addi    sp,sp,352
   19f24:    8082                ret

   19f26:    4705                li      a4,1
   19f28:    f83a                sd      a4,48(sp)
   19f2a:    b755                j       0x19ece
   19f2c:    77ca                ld      a5,176(sp)
   19f2e:    00178693            addi    a3,a5,1
   19f32:    f936                sd      a3,176(sp)
   19f34:    0017c783            lbu     a5,1(a5)
   19f38:    fee78ae3            beq     a5,a4,0x19f2c
   19f3c:    d3bd                beqz    a5,0x19ea2
   19f3e:    4b85                li      s7,1
   19f40:    010b2783            lw      a5,16(s6)
   19f44:    4681                li      a3,0
   19f46:    4c01                li      s8,0
   19f48:    e8be                sd      a5,80(sp)
   19f4a:    77ca                ld      a5,176(sp)
   19f4c:    4901                li      s2,0
   19f4e:    45a5                li      a1,9
   19f50:    e83e                sd      a5,16(sp)
   19f52:    48a1                li      a7,8
   19f54:    433d                li      t1,15
   19f56:    47a9                li      a5,10
   19f58:    774a                ld      a4,176(sp)
   19f5a:    00074a83            lbu     s5,0(a4)
   19f5e:    fd0a861b            addiw   a2,s5,-48
   19f62:    0ff67813            andi    a6,a2,255
   19f66:    0505f663            bgeu    a1,a6,0x19fb2
   19f6a:    000cb583            ld      a1,0(s9)
   19f6e:    0005049b            sext.w  s1,a0
   19f72:    8626                mv      a2,s1
   19f74:    853a                mv      a0,a4
   19f76:    e436                sd      a3,8(sp)
   19f78:    a85ff0ef            jal     ra,0x199fc
   19f7c:    66a2                ld      a3,8(sp)
   19f7e:    c931                beqz    a0,0x19fd2
   19f80:    000a879b            sext.w  a5,s5
   19f84:    8dca                mv      s11,s2
   19f86:    4701                li      a4,0
   19f88:    4c81                li      s9,0
   19f8a:    4481                li      s1,0
   19f8c:    06500613            li      a2,101
   19f90:    00c78763            beq     a5,a2,0x19f9e
   19f94:    04500613            li      a2,69
   19f98:    4d01                li      s10,0
   19f9a:    18c79a63            bne     a5,a2,0x1a12e
   19f9e:    100d9363            bnez    s11,0x1a0a4
   19fa2:    00ebe7b3            or      a5,s7,a4
   19fa6:    2781                sext.w  a5,a5
   19fa8:    efed                bnez    a5,0x1a0a2
   19faa:    4799                li      a5,6
   19fac:    d13e                sw      a5,160(sp)
   19fae:    f952                sd      s4,176(sp)
   19fb0:    bdcd                j       0x19ea2
   19fb2:    0128ca63            blt     a7,s2,0x19fc6
   19fb6:    03878c3b            mulw    s8,a5,s8
   19fba:    01860c3b            addw    s8,a2,s8
   19fbe:    0705                addi    a4,a4,1
   19fc0:    2905                addiw   s2,s2,1
   19fc2:    f93a                sd      a4,176(sp)
   19fc4:    bf51                j       0x19f58
   19fc6:    ff234ce3            blt     t1,s2,0x19fbe
   19fca:    02d786bb            mulw    a3,a5,a3
   19fce:    9eb1                addw    a3,a3,a2
   19fd0:    b7fd                j       0x19fbe
   19fd2:    754a                ld      a0,176(sp)
   19fd4:    4701                li      a4,0
   19fd6:    9526                add     a0,a0,s1
   19fd8:    f92a                sd      a0,176(sp)
   19fda:    00054783            lbu     a5,0(a0)
   19fde:    08090663            beqz    s2,0x1a06a
   19fe2:    4c81                li      s9,0
   19fe4:    8dca                mv      s11,s2
   19fe6:    fd07861b            addiw   a2,a5,-48
   19fea:    45a5                li      a1,9
   19fec:    02c5f763            bgeu    a1,a2,0x1a01a
   19ff0:    4485                li      s1,1
   19ff2:    bf69                j       0x19f8c
   19ff4:    77ca                ld      a5,176(sp)
   19ff6:    2705                addiw   a4,a4,1
   19ff8:    00178593            addi    a1,a5,1
   19ffc:    f92e                sd      a1,176(sp)
   19ffe:    0017c783            lbu     a5,1(a5)
   1a002:    fec789e3            beq     a5,a2,0x19ff4
   1a006:    fcf7861b            addiw   a2,a5,-49
   1a00a:    45a1                li      a1,8
   1a00c:    62c5eee3            bltu    a1,a2,0x1ae48
   1a010:    764a                ld      a2,176(sp)
   1a012:    8cba                mv      s9,a4
   1a014:    4d81                li      s11,0
   1a016:    e832                sd      a2,16(sp)
   1a018:    4701                li      a4,0
   1a01a:    fd07851b            addiw   a0,a5,-48
   1a01e:    0017061b            addiw   a2,a4,1
   1a022:    87aa                mv      a5,a0
   1a024:    c91d                beqz    a0,0x1a05a
   1a026:    01960cbb            addw    s9,a2,s9
   1a02a:    000d861b            sext.w  a2,s11
   1a02e:    00c7083b            addw    a6,a4,a2
   1a032:    4321                li      t1,8
   1a034:    4e41                li      t3,16
   1a036:    45a9                li      a1,10
   1a038:    02c81c63            bne     a6,a2,0x1a070
   1a03c:    001d889b            addiw   a7,s11,1
   1a040:    00ed863b            addw    a2,s11,a4
   1a044:    00e88dbb            addw    s11,a7,a4
   1a048:    4721                li      a4,8
   1a04a:    04c74363            blt     a4,a2,0x1a090
   1a04e:    4729                li      a4,10
   1a050:    03870c3b            mulw    s8,a4,s8
   1a054:    4601                li      a2,0
   1a056:    01878c3b            addw    s8,a5,s8
   1a05a:    77ca                ld      a5,176(sp)
   1a05c:    00178713            addi    a4,a5,1
   1a060:    f93a                sd      a4,176(sp)
   1a062:    0017c783            lbu     a5,1(a5)
   1a066:    8732                mv      a4,a2
   1a068:    bfbd                j       0x19fe6
   1a06a:    03000613            li      a2,48
   1a06e:    bf51                j       0x1a002
   1a070:    0016051b            addiw   a0,a2,1
   1a074:    00c34763            blt     t1,a2,0x1a082
   1a078:    03858c3b            mulw    s8,a1,s8
   1a07c:    0005061b            sext.w  a2,a0
   1a080:    bf65                j       0x1a038
   1a082:    0005061b            sext.w  a2,a0
   1a086:    fece4be3            blt     t3,a2,0x1a07c
   1a08a:    02d586bb            mulw    a3,a1,a3
   1a08e:    b7fd                j       0x1a07c
   1a090:    4741                li      a4,16
   1a092:    4601                li      a2,0
   1a094:    fdb743e3            blt     a4,s11,0x1a05a
   1a098:    4aa9                li      s5,10
   1a09a:    02da86bb            mulw    a3,s5,a3
   1a09e:    9ebd                addw    a3,a3,a5
   1a0a0:    bf6d                j       0x1a05a
   1a0a2:    4d81                li      s11,0
   1a0a4:    7a4a                ld      s4,176(sp)
   1a0a6:    02b00613            li      a2,43
   1a0aa:    001a0793            addi    a5,s4,1
   1a0ae:    f93e                sd      a5,176(sp)
   1a0b0:    001a4783            lbu     a5,1(s4)
   1a0b4:    0ec78163            beq     a5,a2,0x1a196
   1a0b8:    02d00613            li      a2,45
   1a0bc:    0ec78463            beq     a5,a2,0x1a1a4
   1a0c0:    2781                sext.w  a5,a5
   1a0c2:    4801                li      a6,0
   1a0c4:    fd07861b            addiw   a2,a5,-48
   1a0c8:    45a5                li      a1,9
   1a0ca:    0ec5ec63            bltu    a1,a2,0x1a1c2
   1a0ce:    03000613            li      a2,48
   1a0d2:    0cc78b63            beq     a5,a2,0x1a1a8
   1a0d6:    fcf7861b            addiw   a2,a5,-49
   1a0da:    45a1                li      a1,8
   1a0dc:    4d01                li      s10,0
   1a0de:    04c5e863            bltu    a1,a2,0x1a12e
   1a0e2:    734a                ld      t1,176(sp)
   1a0e4:    fd07851b            addiw   a0,a5,-48
   1a0e8:    4e25                li      t3,9
   1a0ea:    4ea9                li      t4,10
   1a0ec:    77ca                ld      a5,176(sp)
   1a0ee:    00178593            addi    a1,a5,1
   1a0f2:    f92e                sd      a1,176(sp)
   1a0f4:    0017c603            lbu     a2,1(a5)
   1a0f8:    0006079b            sext.w  a5,a2
   1a0fc:    fd06061b            addiw   a2,a2,-48
   1a100:    0ff67613            andi    a2,a2,255
   1a104:    0ace7963            bgeu    t3,a2,0x1a1b6
   1a108:    6615                lui     a2,0x5
   1a10a:    406585b3            sub     a1,a1,t1
   1a10e:    e1f60613            addi    a2,a2,-481 # 0x4e1f
   1a112:    4321                li      t1,8
   1a114:    8d32                mv      s10,a2
   1a116:    00b34863            blt     t1,a1,0x1a126
   1a11a:    00050d1b            sext.w  s10,a0
   1a11e:    00a65463            bge     a2,a0,0x1a126
   1a122:    00060d1b            sext.w  s10,a2
   1a126:    00080463            beqz    a6,0x1a12e
   1a12a:    41a00d3b            negw    s10,s10
   1a12e:    0e0d9363            bnez    s11,0x1a214
   1a132:    00ebe733            or      a4,s7,a4
   1a136:    2701                sext.w  a4,a4
   1a138:    d60715e3            bnez    a4,0x19ea2
   1a13c:    e60497e3            bnez    s1,0x19faa
   1a140:    04e00713            li      a4,78
   1a144:    08e78a63            beq     a5,a4,0x1a1d8
   1a148:    08f74063            blt     a4,a5,0x1a1c8
   1a14c:    04900713            li      a4,73
   1a150:    e4e79de3            bne     a5,a4,0x19faa
   1a154:    0001d5b7            lui     a1,0x1d
   1a158:    13858593            addi    a1,a1,312 # 0x1d138
   1a15c:    1908                addi    a0,sp,176
   1a15e:    bb4fd0ef            jal     ra,0x17512
   1a162:    e40504e3            beqz    a0,0x19faa
   1a166:    77ca                ld      a5,176(sp)
   1a168:    0001d5b7            lui     a1,0x1d
   1a16c:    14058593            addi    a1,a1,320 # 0x1d140
   1a170:    17fd                addi    a5,a5,-1
   1a172:    1908                addi    a0,sp,176
   1a174:    f93e                sd      a5,176(sp)
   1a176:    b9cfd0ef            jal     ra,0x17512
   1a17a:    e501                bnez    a0,0x1a182
   1a17c:    77ca                ld      a5,176(sp)
   1a17e:    0785                addi    a5,a5,1
   1a180:    f93e                sd      a5,176(sp)
   1a182:    478d                li      a5,3
   1a184:    d13e                sw      a5,160(sp)
   1a186:    008b2783            lw      a5,8(s6)
   1a18a:    7722                ld      a4,40(sp)
   1a18c:    2785                addiw   a5,a5,1
   1a18e:    c31c                sw      a5,0(a4)
   1a190:    44049f63            bnez    s1,0x1a5ee
   1a194:    b339                j       0x19ea2
   1a196:    4801                li      a6,0
   1a198:    002a0793            addi    a5,s4,2
   1a19c:    f93e                sd      a5,176(sp)
   1a19e:    002a4783            lbu     a5,2(s4)
   1a1a2:    b70d                j       0x1a0c4
   1a1a4:    4805                li      a6,1
   1a1a6:    bfcd                j       0x1a198
   1a1a8:    77ca                ld      a5,176(sp)
   1a1aa:    00178593            addi    a1,a5,1
   1a1ae:    f92e                sd      a1,176(sp)
   1a1b0:    0017c783            lbu     a5,1(a5)
   1a1b4:    bf39                j       0x1a0d2
   1a1b6:    02ae853b            mulw    a0,t4,a0
   1a1ba:    9fa9                addw    a5,a5,a0
   1a1bc:    fd07851b            addiw   a0,a5,-48
   1a1c0:    b735                j       0x1a0ec
   1a1c2:    f952                sd      s4,176(sp)
   1a1c4:    4d01                li      s10,0
   1a1c6:    b7a5                j       0x1a12e
   1a1c8:    06900713            li      a4,105
   1a1cc:    f8e784e3            beq     a5,a4,0x1a154
   1a1d0:    06e00713            li      a4,110
   1a1d4:    dce79be3            bne     a5,a4,0x19faa
   1a1d8:    0001d5b7            lui     a1,0x1d
   1a1dc:    14858593            addi    a1,a1,328 # 0x1d148
   1a1e0:    1908                addi    a0,sp,176
   1a1e2:    b30fd0ef            jal     ra,0x17512
   1a1e6:    dc0502e3            beqz    a0,0x19faa
   1a1ea:    4791                li      a5,4
   1a1ec:    d13e                sw      a5,160(sp)
   1a1ee:    008b2783            lw      a5,8(s6)
   1a1f2:    7722                ld      a4,40(sp)
   1a1f4:    2785                addiw   a5,a5,1
   1a1f6:    c31c                sw      a5,0(a4)
   1a1f8:    77ca                ld      a5,176(sp)
   1a1fa:    0007c703            lbu     a4,0(a5)
   1a1fe:    02800793            li      a5,40
   1a202:    f8f712e3            bne     a4,a5,0x1a186
   1a206:    6626                ld      a2,72(sp)
   1a208:    85da                mv      a1,s6
   1a20a:    1908                addi    a0,sp,176
   1a20c:    b3afd0ef            jal     ra,0x17546
   1a210:    d12a                sw      a0,160(sp)
   1a212:    bf95                j       0x1a186
   1a214:    4785                li      a5,1
   1a216:    d13e                sw      a5,160(sp)
   1a218:    00cb2783            lw      a5,12(s6)
   1a21c:    419d0bbb            subw    s7,s10,s9
   1a220:    cc5e                sw      s7,24(sp)
   1a222:    8b8d                andi    a5,a5,3
   1a224:    4709                li      a4,2
   1a226:    12e78863            beq     a5,a4,0x1a356
   1a22a:    470d                li      a4,3
   1a22c:    12e78963            beq     a5,a4,0x1a35e
   1a230:    0017b793            seqz    a5,a5
   1a234:    e43e                sd      a5,8(sp)
   1a236:    00091363            bnez    s2,0x1a23c
   1a23a:    896e                mv      s2,s11
   1a23c:    4741                li      a4,16
   1a23e:    87ee                mv      a5,s11
   1a240:    01b75363            bge     a4,s11,0x1a246
   1a244:    47c1                li      a5,16
   1a246:    d21c07d3            fcvt.d.wu    fa5,s8
   1a24a:    4725                li      a4,9
   1a24c:    00078a1b            sext.w  s4,a5
   1a250:    e2078653            fmv.x.d    a2,fa5
   1a254:    8ab2                mv      s5,a2
   1a256:    03b75163            bge     a4,s11,0x1a278
   1a25a:    37dd                addiw   a5,a5,-9
   1a25c:    6775                lui     a4,0x1d
   1a25e:    078e                slli    a5,a5,0x3
   1a260:    74070713            addi    a4,a4,1856 # 0x1d740
   1a264:    97ba                add     a5,a5,a4
   1a266:    d21687d3            fcvt.d.wu    fa5,a3
   1a26a:    2398                fld     fa4,0(a5)
   1a26c:    f20606d3            fmv.d.x    fa3,a2
   1a270:    7ae6f7c3            fmadd.d    fa5,fa3,fa4,fa5
   1a274:    e2078ad3            fmv.x.d    s5,fa5
   1a278:    03500793            li      a5,53
   1a27c:    1d37cd63            blt     a5,s3,0x1a456
   1a280:    47bd                li      a5,15
   1a282:    1db7ca63            blt     a5,s11,0x1a456
   1a286:    0c0b9f63            bnez    s7,0x1a364
   1a28a:    67a2                ld      a5,8(sp)
   1a28c:    66a6                ld      a3,72(sp)
   1a28e:    7622                ld      a2,40(sp)
   1a290:    f20a8553            fmv.d.x    fa0,s5
   1a294:    0a010813            addi    a6,sp,160
   1a298:    4705                li      a4,1
   1a29a:    85da                mv      a1,s6
   1a29c:    8522                mv      a0,s0
   1a29e:    8a1ff0ef            jal     ra,0x19b3e
   1a2a2:    4781                li      a5,0
   1a2a4:    be051fe3            bnez    a0,0x19ea2
   1a2a8:    414d8a3b            subw    s4,s11,s4
   1a2ac:    00fa073b            addw    a4,s4,a5
   1a2b0:    24e05663            blez    a4,0x1a4fc
   1a2b4:    00f77793            andi    a5,a4,15
   1a2b8:    cf89                beqz    a5,0x1a2d2
   1a2ba:    66f5                lui     a3,0x1d
   1a2bc:    078e                slli    a5,a5,0x3
   1a2be:    74068693            addi    a3,a3,1856 # 0x1d740
   1a2c2:    97b6                add     a5,a5,a3
   1a2c4:    f20a8753            fmv.d.x    fa4,s5
   1a2c8:    239c                fld     fa5,0(a5)
   1a2ca:    12e7f7d3            fmul.d    fa5,fa5,fa4
   1a2ce:    e2078ad3            fmv.x.d    s5,fa5
   1a2d2:    9b41                andi    a4,a4,-16
   1a2d4:    18071363            bnez    a4,0x1a45a
   1a2d8:    4481                li      s1,0
   1a2da:    f20a8553            fmv.d.x    fa0,s5
   1a2de:    112c                addi    a1,sp,168
   1a2e0:    1150                addi    a2,sp,164
   1a2e2:    8522                mv      a0,s0
   1a2e4:    b7aff0ef            jal     ra,0x1965e
   1a2e8:    57aa                lw      a5,168(sp)
   1a2ea:    fd2a                sd      a0,184(sp)
   1a2ec:    9cbd                addw    s1,s1,a5
   1a2ee:    d526                sw      s1,168(sp)
   1a2f0:    549a                lw      s1,164(sp)
   1a2f2:    413485bb            subw    a1,s1,s3
   1a2f6:    84ae                mv      s1,a1
   1a2f8:    00b05863            blez    a1,0x1a308
   1a2fc:    f50ff0ef            jal     ra,0x19a4c
   1a300:    57aa                lw      a5,168(sp)
   1a302:    d34e                sw      s3,164(sp)
   1a304:    9cbd                addw    s1,s1,a5
   1a306:    d526                sw      s1,168(sp)
   1a308:    55aa                lw      a1,168(sp)
   1a30a:    579a                lw      a5,164(sp)
   1a30c:    008b2703            lw      a4,8(s6)
   1a310:    00f584bb            addw    s1,a1,a5
   1a314:    41348abb            subw    s5,s1,s3
   1a318:    2705                addiw   a4,a4,1
   1a31a:    84d6                mv      s1,s5
   1a31c:    315743e3            blt     a4,s5,0x1ae22
   1a320:    004b2a03            lw      s4,4(s6)
   1a324:    2f4ad963            bge     s5,s4,0x1a616
   1a328:    4145863b            subw    a2,a1,s4
   1a32c:    8ab2                mv      s5,a2
   1a32e:    28c05a63            blez    a2,0x1a5c2
   1a332:    75ea                ld      a1,184(sp)
   1a334:    8522                mv      a0,s0
   1a336:    fdbfe0ef            jal     ra,0x19310
   1a33a:    579a                lw      a5,164(sp)
   1a33c:    fd2a                sd      a0,184(sp)
   1a33e:    015787bb            addw    a5,a5,s5
   1a342:    d33e                sw      a5,164(sp)
   1a344:    67c6                ld      a5,80(sp)
   1a346:    d552                sw      s4,168(sp)
   1a348:    c781                beqz    a5,0x1a350
   1a34a:    2485                addiw   s1,s1,1
   1a34c:    2944c663            blt     s1,s4,0x1a5d8
   1a350:    8ad2                mv      s5,s4
   1a352:    4485                li      s1,1
   1a354:    a4d1                j       0x1a618
   1a356:    7742                ld      a4,48(sp)
   1a358:    4789                li      a5,2
   1a35a:    9f99                subw    a5,a5,a4
   1a35c:    bde1                j       0x1a234
   1a35e:    77c2                ld      a5,48(sp)
   1a360:    2785                addiw   a5,a5,1
   1a362:    bdc9                j       0x1a234
   1a364:    0d705863            blez    s7,0x1a434
   1a368:    47d9                li      a5,22
   1a36a:    0777ca63            blt     a5,s7,0x1a3de
   1a36e:    6779                lui     a4,0x1e
   1a370:    85870713            addi    a4,a4,-1960 # 0x1d858
   1a374:    002b9793            slli    a5,s7,0x2
   1a378:    97ba                add     a5,a5,a4
   1a37a:    4384                lw      s1,0(a5)
   1a37c:    000a879b            sext.w  a5,s5
   1a380:    d73e                sw      a5,172(sp)
   1a382:    420ad713            srai    a4,s5,0x20
   1a386:    c3b9                beqz    a5,0x1a3cc
   1a388:    1168                addi    a0,sp,172
   1a38a:    d0bfe0ef            jal     ra,0x19094
   1a38e:    03500713            li      a4,53
   1a392:    40a7053b            subw    a0,a4,a0
   1a396:    6775                lui     a4,0x1d
   1a398:    74070713            addi    a4,a4,1856 # 0x1d740
   1a39c:    003b9793            slli    a5,s7,0x3
   1a3a0:    97ba                add     a5,a5,a4
   1a3a2:    239c                fld     fa5,0(a5)
   1a3a4:    f20a8753            fmv.d.x    fa4,s5
   1a3a8:    00a4873b            addw    a4,s1,a0
   1a3ac:    0a010813            addi    a6,sp,160
   1a3b0:    12e7f7d3            fmul.d    fa5,fa5,fa4
   1a3b4:    67a2                ld      a5,8(sp)
   1a3b6:    03672713            slti    a4,a4,54
   1a3ba:    66a6                ld      a3,72(sp)
   1a3bc:    7622                ld      a2,40(sp)
   1a3be:    85da                mv      a1,s6
   1a3c0:    e2078353            fmv.x.d    t1,fa5
   1a3c4:    22f78553            fmv.d    fa0,fa5
   1a3c8:    8a9a                mv      s5,t1
   1a3ca:    bdc9                j       0x1a29c
   1a3cc:    001007b7            lui     a5,0x100
   1a3d0:    8fd9                or      a5,a5,a4
   1a3d2:    1168                addi    a0,sp,172
   1a3d4:    d73e                sw      a5,172(sp)
   1a3d6:    cbffe0ef            jal     ra,0x19094
   1a3da:    4755                li      a4,21
   1a3dc:    bf5d                j       0x1a392
   1a3de:    02500713            li      a4,37
   1a3e2:    41b7073b            subw    a4,a4,s11
   1a3e6:    87de                mv      a5,s7
   1a3e8:    ed7740e3            blt     a4,s7,0x1a2a8
   1a3ec:    47bd                li      a5,15
   1a3ee:    41b7873b            subw    a4,a5,s11
   1a3f2:    66f5                lui     a3,0x1d
   1a3f4:    87ba                mv      a5,a4
   1a3f6:    74068693            addi    a3,a3,1856 # 0x1d740
   1a3fa:    070e                slli    a4,a4,0x3
   1a3fc:    9736                add     a4,a4,a3
   1a3fe:    231c                fld     fa5,0(a4)
   1a400:    f20a8753            fmv.d.x    fa4,s5
   1a404:    419d073b            subw    a4,s10,s9
   1a408:    40f707bb            subw    a5,a4,a5
   1a40c:    12e7f7d3            fmul.d    fa5,fa5,fa4
   1a410:    078e                slli    a5,a5,0x3
   1a412:    97b6                add     a5,a5,a3
   1a414:    2398                fld     fa4,0(a5)
   1a416:    12e7f7d3            fmul.d    fa5,fa5,fa4
   1a41a:    e2078553            fmv.x.d    a0,fa5
   1a41e:    0a010813            addi    a6,sp,160
   1a422:    67a2                ld      a5,8(sp)
   1a424:    8aaa                mv      s5,a0
   1a426:    4701                li      a4,0
   1a428:    66a6                ld      a3,72(sp)
   1a42a:    7622                ld      a2,40(sp)
   1a42c:    85da                mv      a1,s6
   1a42e:    22f78553            fmv.d    fa0,fa5
   1a432:    b5ad                j       0x1a29c
   1a434:    5729                li      a4,-22
   1a436:    87de                mv      a5,s7
   1a438:    e6ebc8e3            blt     s7,a4,0x1a2a8
   1a43c:    41ac87bb            subw    a5,s9,s10
   1a440:    6775                lui     a4,0x1d
   1a442:    078e                slli    a5,a5,0x3
   1a444:    74070713            addi    a4,a4,1856 # 0x1d740
   1a448:    97ba                add     a5,a5,a4
   1a44a:    239c                fld     fa5,0(a5)
   1a44c:    f20a8753            fmv.d.x    fa4,s5
   1a450:    1af777d3            fdiv.d    fa5,fa4,fa5
   1a454:    b7d9                j       0x1a41a
   1a456:    87de                mv      a5,s7
   1a458:    bd81                j       0x1a2a8
   1a45a:    4047559b            sraiw   a1,a4,0x4
   1a45e:    80100537            lui     a0,0x80100
   1a462:    67f9                lui     a5,0x1e
   1a464:    587d                li      a6,-1
   1a466:    872e                mv      a4,a1
   1a468:    4481                li      s1,0
   1a46a:    157d                addi    a0,a0,-1
   1a46c:    3ff00e37            lui     t3,0x3ff00
   1a470:    433d                li      t1,15
   1a472:    83078693            addi    a3,a5,-2000 # 0x1d830
   1a476:    02085813            srli    a6,a6,0x20
   1a47a:    420ad613            srai    a2,s5,0x20
   1a47e:    00a677b3            and     a5,a2,a0
   1a482:    01c7e7b3            or      a5,a5,t3
   1a486:    0146561b            srliw   a2,a2,0x14
   1a48a:    7ff67613            andi    a2,a2,2047
   1a48e:    c014849b            addiw   s1,s1,-1023
   1a492:    1782                slli    a5,a5,0x20
   1a494:    9cb1                addw    s1,s1,a2
   1a496:    9381                srli    a5,a5,0x20
   1a498:    02b34663            blt     t1,a1,0x1a4c4
   1a49c:    0047561b            srliw   a2,a4,0x4
   1a4a0:    55c1                li      a1,-16
   1a4a2:    02b6063b            mulw    a2,a2,a1
   1a4a6:    1a82                slli    s5,s5,0x20
   1a4a8:    1782                slli    a5,a5,0x20
   1a4aa:    020ada93            srli    s5,s5,0x20
   1a4ae:    00faeab3            or      s5,s5,a5
   1a4b2:    87b6                mv      a5,a3
   1a4b4:    4681                li      a3,0
   1a4b6:    9f31                addw    a4,a4,a2
   1a4b8:    8656                mv      a2,s5
   1a4ba:    e31d                bnez    a4,0x1a4e0
   1a4bc:    e0068fe3            beqz    a3,0x1a2da
   1a4c0:    8ab2                mv      s5,a2
   1a4c2:    bd21                j       0x1a2da
   1a4c4:    1782                slli    a5,a5,0x20
   1a4c6:    010afab3            and     s5,s5,a6
   1a4ca:    00faeab3            or      s5,s5,a5
   1a4ce:    f20a8753            fmv.d.x    fa4,s5
   1a4d2:    329c                fld     fa5,32(a3)
   1a4d4:    35c1                addiw   a1,a1,-16
   1a4d6:    12e7f7d3            fmul.d    fa5,fa5,fa4
   1a4da:    e2078ad3            fmv.x.d    s5,fa5
   1a4de:    bf71                j       0x1a47a
   1a4e0:    00177593            andi    a1,a4,1
   1a4e4:    c989                beqz    a1,0x1a4f6
   1a4e6:    f2060753            fmv.d.x    fa4,a2
   1a4ea:    239c                fld     fa5,0(a5)
   1a4ec:    4685                li      a3,1
   1a4ee:    12f777d3            fmul.d    fa5,fa4,fa5
   1a4f2:    e2078653            fmv.x.d    a2,fa5
   1a4f6:    8705                srai    a4,a4,0x1
   1a4f8:    07a1                addi    a5,a5,8
   1a4fa:    b7c1                j       0x1a4ba
   1a4fc:    dc070ee3            beqz    a4,0x1a2d8
   1a500:    40e007bb            negw    a5,a4
   1a504:    00f7f713            andi    a4,a5,15
   1a508:    cf09                beqz    a4,0x1a522
   1a50a:    66f5                lui     a3,0x1d
   1a50c:    070e                slli    a4,a4,0x3
   1a50e:    74068693            addi    a3,a3,1856 # 0x1d740
   1a512:    9736                add     a4,a4,a3
   1a514:    f20a8753            fmv.d.x    fa4,s5
   1a518:    231c                fld     fa5,0(a4)
   1a51a:    1af777d3            fdiv.d    fa5,fa4,fa5
   1a51e:    e2078ad3            fmv.x.d    s5,fa5
   1a522:    9bc1                andi    a5,a5,-16
   1a524:    da078ae3            beqz    a5,0x1a2d8
   1a528:    4047d59b            sraiw   a1,a5,0x4
   1a52c:    80100537            lui     a0,0x80100
   1a530:    6779                lui     a4,0x1e
   1a532:    587d                li      a6,-1
   1a534:    87ae                mv      a5,a1
   1a536:    4481                li      s1,0
   1a538:    157d                addi    a0,a0,-1
   1a53a:    3ff00e37            lui     t3,0x3ff00
   1a53e:    433d                li      t1,15
   1a540:    80870693            addi    a3,a4,-2040 # 0x1d808
   1a544:    02085813            srli    a6,a6,0x20
   1a548:    420ad613            srai    a2,s5,0x20
   1a54c:    00a67733            and     a4,a2,a0
   1a550:    01c76733            or      a4,a4,t3
   1a554:    0146561b            srliw   a2,a2,0x14
   1a558:    7ff67613            andi    a2,a2,2047
   1a55c:    c014849b            addiw   s1,s1,-1023
   1a560:    1702                slli    a4,a4,0x20
   1a562:    9cb1                addw    s1,s1,a2
   1a564:    9301                srli    a4,a4,0x20
   1a566:    04b34063            blt     t1,a1,0x1a5a6
   1a56a:    0047d61b            srliw   a2,a5,0x4
   1a56e:    55c1                li      a1,-16
   1a570:    02b6063b            mulw    a2,a2,a1
   1a574:    1a82                slli    s5,s5,0x20
   1a576:    1702                slli    a4,a4,0x20
   1a578:    020ada93            srli    s5,s5,0x20
   1a57c:    00eaeab3            or      s5,s5,a4
   1a580:    8736                mv      a4,a3
   1a582:    4681                li      a3,0
   1a584:    9fb1                addw    a5,a5,a2
   1a586:    8656                mv      a2,s5
   1a588:    db95                beqz    a5,0x1a4bc
   1a58a:    0017f593            andi    a1,a5,1
   1a58e:    c989                beqz    a1,0x1a5a0
   1a590:    f2060753            fmv.d.x    fa4,a2
   1a594:    231c                fld     fa5,0(a4)
   1a596:    4685                li      a3,1
   1a598:    12f777d3            fmul.d    fa5,fa4,fa5
   1a59c:    e2078653            fmv.x.d    a2,fa5
   1a5a0:    8785                srai    a5,a5,0x1
   1a5a2:    0721                addi    a4,a4,8
   1a5a4:    b7d5                j       0x1a588
   1a5a6:    1702                slli    a4,a4,0x20
   1a5a8:    010afab3            and     s5,s5,a6
   1a5ac:    00eaeab3            or      s5,s5,a4
   1a5b0:    f20a8753            fmv.d.x    fa4,s5
   1a5b4:    329c                fld     fa5,32(a3)
   1a5b6:    35c1                addiw   a1,a1,-16
   1a5b8:    12e7f7d3            fmul.d    fa5,fa5,fa4
   1a5bc:    e2078ad3            fmv.x.d    s5,fa5
   1a5c0:    b761                j       0x1a548
   1a5c2:    d80601e3            beqz    a2,0x1a344
   1a5c6:    00c7873b            addw    a4,a5,a2
   1a5ca:    d33a                sw      a4,164(sp)
   1a5cc:    756a                ld      a0,184(sp)
   1a5ce:    02e04f63            bgtz    a4,0x1a60c
   1a5d2:    57fd                li      a5,-1
   1a5d4:    02f75763            bge     a4,a5,0x1a602
   1a5d8:    77ea                ld      a5,184(sp)
   1a5da:    0007aa23            sw      zero,20(a5)
   1a5de:    0007ac23            sw      zero,24(a5)
   1a5e2:    77a2                ld      a5,40(sp)
   1a5e4:    0147a023            sw      s4,0(a5)
   1a5e8:    05000793            li      a5,80
   1a5ec:    d13e                sw      a5,160(sp)
   1a5ee:    67c6                ld      a5,80(sp)
   1a5f0:    776a                ld      a4,184(sp)
   1a5f2:    02078ae3            beqz    a5,0x1ae26
   1a5f6:    00072a23            sw      zero,20(a4)
   1a5fa:    05000793            li      a5,80
   1a5fe:    d13e                sw      a5,160(sp)
   1a600:    b04d                j       0x19ea2
   1a602:    4785                li      a5,1
   1a604:    d33e                sw      a5,164(sp)
   1a606:    c95c                sw      a5,20(a0)
   1a608:    cd1c                sw      a5,24(a0)
   1a60a:    bb2d                j       0x1a344
   1a60c:    40ba05bb            subw    a1,s4,a1
   1a610:    c3cff0ef            jal     ra,0x19a4c
   1a614:    bb05                j       0x1a344
   1a616:    4481                li      s1,0
   1a618:    65c2                ld      a1,16(sp)
   1a61a:    8762                mv      a4,s8
   1a61c:    86ee                mv      a3,s11
   1a61e:    864a                mv      a2,s2
   1a620:    8522                mv      a0,s0
   1a622:    975fe0ef            jal     ra,0x18f96
   1a626:    f0aa                sd      a0,96(sp)
   1a628:    4781                li      a5,0
   1a62a:    000bd463            bgez    s7,0x1a632
   1a62e:    41ac87bb            subw    a5,s9,s10
   1a632:    ecbe                sd      a5,88(sp)
   1a634:    47e2                lw      a5,24(sp)
   1a636:    000bd363            bgez    s7,0x1a63c
   1a63a:    4781                li      a5,0
   1a63c:    2781                sext.w  a5,a5
   1a63e:    f4be                sd      a5,104(sp)
   1a640:    000207b7            lui     a5,0x20
   1a644:    d487b907            fld     fs2,-696(a5) # 0x1fd48
   1a648:    000207b7            lui     a5,0x20
   1a64c:    d507b987            fld     fs3,-688(a5) # 0x1fd50
   1a650:    000207b7            lui     a5,0x20
   1a654:    d407ba07            fld     fs4,-704(a5) # 0x1fd40
   1a658:    000207b7            lui     a5,0x20
   1a65c:    d587ba87            fld     fs5,-680(a5) # 0x1fd58
   1a660:    4901                li      s2,0
   1a662:    7786                ld      a5,96(sp)
   1a664:    8522                mv      a0,s0
   1a666:    478c                lw      a1,8(a5)
   1a668:    81bfe0ef            jal     ra,0x18e82
   1a66c:    7786                ld      a5,96(sp)
   1a66e:    fc2a                sd      a0,56(sp)
   1a670:    0541                addi    a0,a0,16
   1a672:    4bd0                lw      a2,20(a5)
   1a674:    01078593            addi    a1,a5,16
   1a678:    0609                addi    a2,a2,2
   1a67a:    060a                slli    a2,a2,0x2
   1a67c:    c9ff80ef            jal     ra,0x1331a
   1a680:    77ea                ld      a5,184(sp)
   1a682:    8522                mv      a0,s0
   1a684:    478c                lw      a1,8(a5)
   1a686:    ffcfe0ef            jal     ra,0x18e82
   1a68a:    75ea                ld      a1,184(sp)
   1a68c:    8c2a                mv      s8,a0
   1a68e:    0541                addi    a0,a0,16
   1a690:    49d0                lw      a2,20(a1)
   1a692:    05c1                addi    a1,a1,16
   1a694:    0609                addi    a2,a2,2
   1a696:    060a                slli    a2,a2,0x2
   1a698:    c83f80ef            jal     ra,0x1331a
   1a69c:    579a                lw      a5,164(sp)
   1a69e:    5daa                lw      s11,168(sp)
   1a6a0:    4585                li      a1,1
   1a6a2:    4127863b            subw    a2,a5,s2
   1a6a6:    012d873b            addw    a4,s11,s2
   1a6aa:    e0be                sd      a5,64(sp)
   1a6ac:    8522                mv      a0,s0
   1a6ae:    0006079b            sext.w  a5,a2
   1a6b2:    f032                sd      a2,32(sp)
   1a6b4:    e83e                sd      a5,16(sp)
   1a6b6:    8d3a                mv      s10,a4
   1a6b8:    ec3a                sd      a4,24(sp)
   1a6ba:    a53fe0ef            jal     ra,0x1910c
   1a6be:    6762                ld      a4,24(sp)
   1a6c0:    8caa                mv      s9,a0
   1a6c2:    7602                ld      a2,32(sp)
   1a6c4:    6786                ld      a5,64(sp)
   1a6c6:    1c074763            bltz    a4,0x1a894
   1a6ca:    6766                ld      a4,88(sp)
   1a6cc:    75a6                ld      a1,104(sp)
   1a6ce:    00ed0d3b            addw    s10,s10,a4
   1a6d2:    01b787bb            addw    a5,a5,s11
   1a6d6:    0019871b            addiw   a4,s3,1
   1a6da:    413786bb            subw    a3,a5,s3
   1a6de:    40c7063b            subw    a2,a4,a2
   1a6e2:    0146d563            bge     a3,s4,0x1a6ec
   1a6e6:    414687bb            subw    a5,a3,s4
   1a6ea:    9e3d                addw    a2,a2,a5
   1a6ec:    00cd083b            addw    a6,s10,a2
   1a6f0:    00c58dbb            addw    s11,a1,a2
   1a6f4:    86c2                mv      a3,a6
   1a6f6:    87ee                mv      a5,s11
   1a6f8:    8642                mv      a2,a6
   1a6fa:    010dd363            bge     s11,a6,0x1a700
   1a6fe:    866e                mv      a2,s11
   1a700:    0006059b            sext.w  a1,a2
   1a704:    876a                mv      a4,s10
   1a706:    01a5d363            bge     a1,s10,0x1a70c
   1a70a:    8732                mv      a4,a2
   1a70c:    0007061b            sext.w  a2,a4
   1a710:    00c05863            blez    a2,0x1a720
   1a714:    40e6883b            subw    a6,a3,a4
   1a718:    40e78dbb            subw    s11,a5,a4
   1a71c:    40ed0d3b            subw    s10,s10,a4
   1a720:    67e6                ld      a5,88(sp)
   1a722:    02f05663            blez    a5,0x1a74e
   1a726:    863e                mv      a2,a5
   1a728:    85e6                mv      a1,s9
   1a72a:    8522                mv      a0,s0
   1a72c:    f042                sd      a6,32(sp)
   1a72e:    b4bfe0ef            jal     ra,0x19278
   1a732:    8662                mv      a2,s8
   1a734:    85aa                mv      a1,a0
   1a736:    8caa                mv      s9,a0
   1a738:    8522                mv      a0,s0
   1a73a:    9effe0ef            jal     ra,0x19128
   1a73e:    ec2a                sd      a0,24(sp)
   1a740:    85e2                mv      a1,s8
   1a742:    8522                mv      a0,s0
   1a744:    fa2fe0ef            jal     ra,0x18ee6
   1a748:    67e2                ld      a5,24(sp)
   1a74a:    7802                ld      a6,32(sp)
   1a74c:    8c3e                mv      s8,a5
   1a74e:    4128063b            subw    a2,a6,s2
   1a752:    14c05663            blez    a2,0x1a89e
   1a756:    85e2                mv      a1,s8
   1a758:    8522                mv      a0,s0
   1a75a:    bb7fe0ef            jal     ra,0x19310
   1a75e:    8c2a                mv      s8,a0
   1a760:    01705863            blez    s7,0x1a770
   1a764:    7626                ld      a2,104(sp)
   1a766:    75e2                ld      a1,56(sp)
   1a768:    8522                mv      a0,s0
   1a76a:    b0ffe0ef            jal     ra,0x19278
   1a76e:    fc2a                sd      a0,56(sp)
   1a770:    01b05863            blez    s11,0x1a780
   1a774:    75e2                ld      a1,56(sp)
   1a776:    866e                mv      a2,s11
   1a778:    8522                mv      a0,s0
   1a77a:    b97fe0ef            jal     ra,0x19310
   1a77e:    fc2a                sd      a0,56(sp)
   1a780:    01a05863            blez    s10,0x1a790
   1a784:    85e6                mv      a1,s9
   1a786:    866a                mv      a2,s10
   1a788:    8522                mv      a0,s0
   1a78a:    b87fe0ef            jal     ra,0x19310
   1a78e:    8caa                mv      s9,a0
   1a790:    7662                ld      a2,56(sp)
   1a792:    85e2                mv      a1,s8
   1a794:    8522                mv      a0,s0
   1a796:    c85fe0ef            jal     ra,0x1941a
   1a79a:    4958                lw      a4,20(a0)
   1a79c:    4785                li      a5,1
   1a79e:    8d2a                mv      s10,a0
   1a7a0:    00e7c563            blt     a5,a4,0x1a7aa
   1a7a4:    4d1c                lw      a5,24(a0)
   1a7a6:    2a078363            beqz    a5,0x1aa4c
   1a7aa:    010d2903            lw      s2,16(s10)
   1a7ae:    85e6                mv      a1,s9
   1a7b0:    000d2823            sw      zero,16(s10)
   1a7b4:    856a                mv      a0,s10
   1a7b6:    c33fe0ef            jal     ra,0x193e8
   1a7ba:    67a2                ld      a5,8(sp)
   1a7bc:    14078c63            beqz    a5,0x1a914
   1a7c0:    2ea04c63            bgtz    a0,0x1aab8
   1a7c4:    0017f713            andi    a4,a5,1
   1a7c8:    012746b3            xor     a3,a4,s2
   1a7cc:    13270c63            beq     a4,s2,0x1a904
   1a7d0:    0c090f63            beqz    s2,0x1a8ae
   1a7d4:    02100793            li      a5,33
   1a7d8:    d13e                sw      a5,160(sp)
   1a7da:    000207b7            lui     a5,0x20
   1a7de:    d487b487            fld     fs1,-696(a5) # 0x1fd48
   1a7e2:    02000793            li      a5,32
   1a7e6:    8936                mv      s2,a3
   1a7e8:    22948453            fmv.d    fs0,fs1
   1a7ec:    4d81                li      s11,0
   1a7ee:    ec3e                sd      a5,24(sp)
   1a7f0:    e802                sd      zero,16(sp)
   1a7f2:    579a                lw      a5,164(sp)
   1a7f4:    572a                lw      a4,168(sp)
   1a7f6:    9f3d                addw    a4,a4,a5
   1a7f8:    fcba                sd      a4,120(sp)
   1a7fa:    e09d                bnez    s1,0x1a820
   1a7fc:    0337d263            bge     a5,s3,0x1a820
   1a800:    75ea                ld      a1,184(sp)
   1a802:    40f987bb            subw    a5,s3,a5
   1a806:    0007861b            sext.w  a2,a5
   1a80a:    8522                mv      a0,s0
   1a80c:    f03e                sd      a5,32(sp)
   1a80e:    b03fe0ef            jal     ra,0x19310
   1a812:    572a                lw      a4,168(sp)
   1a814:    7782                ld      a5,32(sp)
   1a816:    fd2a                sd      a0,184(sp)
   1a818:    d34e                sw      s3,164(sp)
   1a81a:    40f707bb            subw    a5,a4,a5
   1a81e:    d53e                sw      a5,168(sp)
   1a820:    22948553            fmv.d    fa0,fs1
   1a824:    0970                addi    a2,sp,156
   1a826:    092c                addi    a1,sp,152
   1a828:    8522                mv      a0,s0
   1a82a:    e35fe0ef            jal     ra,0x1965e
   1a82e:    466a                lw      a2,152(sp)
   1a830:    e0aa                sd      a0,64(sp)
   1a832:    36065863            bgez    a2,0x1aba2
   1a836:    40c005bb            negw    a1,a2
   1a83a:    a12ff0ef            jal     ra,0x19a4c
   1a83e:    77ea                ld      a5,184(sp)
   1a840:    6742                ld      a4,16(sp)
   1a842:    f03e                sd      a5,32(sp)
   1a844:    4bdc                lw      a5,20(a5)
   1a846:    3e070863            beqz    a4,0x1ac36
   1a84a:    7702                ld      a4,32(sp)
   1a84c:    37fd                addiw   a5,a5,-1
   1a84e:    0791                addi    a5,a5,4
   1a850:    078a                slli    a5,a5,0x2
   1a852:    97ba                add     a5,a5,a4
   1a854:    4788                lw      a0,8(a5)
   1a856:    ff0fe0ef            jal     ra,0x19046
   1a85a:    6606                ld      a2,64(sp)
   1a85c:    75ea                ld      a1,184(sp)
   1a85e:    8522                mv      a0,s0
   1a860:    bbbfe0ef            jal     ra,0x1941a
   1a864:    fd2a                sd      a0,184(sp)
   1a866:    36049763            bnez    s1,0x1abd4
   1a86a:    7782                ld      a5,32(sp)
   1a86c:    4958                lw      a4,20(a0)
   1a86e:    4bdc                lw      a5,20(a5)
   1a870:    37fd                addiw   a5,a5,-1
   1a872:    34e7c063            blt     a5,a4,0x1abb2
   1a876:    3b4a8b63            beq     s5,s4,0x1ac2c
   1a87a:    75ea                ld      a1,184(sp)
   1a87c:    4605                li      a2,1
   1a87e:    8522                mv      a0,s0
   1a880:    a91fe0ef            jal     ra,0x19310
   1a884:    57aa                lw      a5,168(sp)
   1a886:    fd2a                sd      a0,184(sp)
   1a888:    3afd                addiw   s5,s5,-1
   1a88a:    37fd                addiw   a5,a5,-1
   1a88c:    d53e                sw      a5,168(sp)
   1a88e:    4d81                li      s11,0
   1a890:    4901                li      s2,0
   1a892:    a689                j       0x1abd4
   1a894:    7726                ld      a4,104(sp)
   1a896:    41a705bb            subw    a1,a4,s10
   1a89a:    6d66                ld      s10,88(sp)
   1a89c:    bd1d                j       0x1a6d2
   1a89e:    ec0601e3            beqz    a2,0x1a760
   1a8a2:    410905bb            subw    a1,s2,a6
   1a8a6:    8562                mv      a0,s8
   1a8a8:    9a4ff0ef            jal     ra,0x19a4c
   1a8ac:    bd55                j       0x1a760
   1a8ae:    47c5                li      a5,17
   1a8b0:    d13e                sw      a5,160(sp)
   1a8b2:    054a8763            beq     s5,s4,0x1a900
   1a8b6:    776a                ld      a4,184(sp)
   1a8b8:    8dce                mv      s11,s3
   1a8ba:    467d                li      a2,31
   1a8bc:    0761                addi    a4,a4,24
   1a8be:    853a                mv      a0,a4
   1a8c0:    01b64f63            blt     a2,s11,0x1a8de
   1a8c4:    4705                li      a4,1
   1a8c6:    03b74363            blt     a4,s11,0x1a8ec
   1a8ca:    3afd                addiw   s5,s5,-1
   1a8cc:    d556                sw      s5,168(sp)
   1a8ce:    75ea                ld      a1,184(sp)
   1a8d0:    864e                mv      a2,s3
   1a8d2:    8522                mv      a0,s0
   1a8d4:    d34e                sw      s3,164(sp)
   1a8d6:    cacff0ef            jal     ra,0x19d82
   1a8da:    fd2a                sd      a0,184(sp)
   1a8dc:    aa85                j       0x1aa4c
   1a8de:    0711                addi    a4,a4,4
   1a8e0:    ffc72583            lw      a1,-4(a4)
   1a8e4:    ed91                bnez    a1,0x1a900
   1a8e6:    2905                addiw   s2,s2,1
   1a8e8:    3d81                addiw   s11,s11,-32
   1a8ea:    bfd9                j       0x1a8c0
   1a8ec:    090a                slli    s2,s2,0x2
   1a8ee:    954a                add     a0,a0,s2
   1a8f0:    ec36                sd      a3,24(sp)
   1a8f2:    fa2fe0ef            jal     ra,0x19094
   1a8f6:    fffd879b            addiw   a5,s11,-1
   1a8fa:    66e2                ld      a3,24(sp)
   1a8fc:    fcf557e3            bge     a0,a5,0x1a8ca
   1a900:    8936                mv      s2,a3
   1a902:    a2e1                j       0x1aaca
   1a904:    47c1                li      a5,16
   1a906:    e319                bnez    a4,0x1a90c
   1a908:    02000793            li      a5,32
   1a90c:    0017e793            ori     a5,a5,1
   1a910:    d13e                sw      a5,160(sp)
   1a912:    aa2d                j       0x1aa4c
   1a914:    04055463            bgez    a0,0x1a95c
   1a918:    47c5                li      a5,17
   1a91a:    00091463            bnez    s2,0x1a922
   1a91e:    02100793            li      a5,33
   1a922:    d13e                sw      a5,160(sp)
   1a924:    12091463            bnez    s2,0x1aa4c
   1a928:    6742                ld      a4,16(sp)
   1a92a:    4785                li      a5,1
   1a92c:    12e7c063            blt     a5,a4,0x1aa4c
   1a930:    10049f63            bnez    s1,0x1aa4e
   1a934:    074a8a63            beq     s5,s4,0x1a9a8
   1a938:    85ea                mv      a1,s10
   1a93a:    4605                li      a2,1
   1a93c:    8522                mv      a0,s0
   1a93e:    9d3fe0ef            jal     ra,0x19310
   1a942:    85e6                mv      a1,s9
   1a944:    8d2a                mv      s10,a0
   1a946:    aa3fe0ef            jal     ra,0x193e8
   1a94a:    04a05f63            blez    a0,0x1a9a8
   1a94e:    47c5                li      a5,17
   1a950:    d13e                sw      a5,160(sp)
   1a952:    57aa                lw      a5,168(sp)
   1a954:    413787bb            subw    a5,a5,s3
   1a958:    d53e                sw      a5,168(sp)
   1a95a:    bf95                j       0x1a8ce
   1a95c:    14051e63            bnez    a0,0x1aab8
   1a960:    0c090263            beqz    s2,0x1aa24
   1a964:    c8bd                beqz    s1,0x1a9da
   1a966:    571a                lw      a4,164(sp)
   1a968:    766a                ld      a2,184(sp)
   1a96a:    55fd                li      a1,-1
   1a96c:    40575693            srai    a3,a4,0x5
   1a970:    01860793            addi    a5,a2,24
   1a974:    068a                slli    a3,a3,0x2
   1a976:    96be                add     a3,a3,a5
   1a978:    04d7ec63            bltu    a5,a3,0x1a9d0
   1a97c:    8b7d                andi    a4,a4,31
   1a97e:    cb11                beqz    a4,0x1a992
   1a980:    439c                lw      a5,0(a5)
   1a982:    56fd                li      a3,-1
   1a984:    00e6973b            sllw    a4,a3,a4
   1a988:    8fd9                or      a5,a5,a4
   1a98a:    2781                sext.w  a5,a5
   1a98c:    577d                li      a4,-1
   1a98e:    04e79663            bne     a5,a4,0x1a9da
   1a992:    4785                li      a5,1
   1a994:    01498a3b            addw    s4,s3,s4
   1a998:    ca5c                sw      a5,20(a2)
   1a99a:    ce1c                sw      a5,24(a2)
   1a99c:    d33e                sw      a5,164(sp)
   1a99e:    3a7d                addiw   s4,s4,-1
   1a9a0:    02100793            li      a5,33
   1a9a4:    d552                sw      s4,168(sp)
   1a9a6:    d13e                sw      a5,160(sp)
   1a9a8:    559a                lw      a1,164(sp)
   1a9aa:    40b984bb            subw    s1,s3,a1
   1a9ae:    8926                mv      s2,s1
   1a9b0:    ccd9                beqz    s1,0x1aa4e
   1a9b2:    756a                ld      a0,184(sp)
   1a9b4:    46905263            blez    s1,0x1ae18
   1a9b8:    85aa                mv      a1,a0
   1a9ba:    8626                mv      a2,s1
   1a9bc:    8522                mv      a0,s0
   1a9be:    953fe0ef            jal     ra,0x19310
   1a9c2:    fd2a                sd      a0,184(sp)
   1a9c4:    57aa                lw      a5,168(sp)
   1a9c6:    4481                li      s1,0
   1a9c8:    4127893b            subw    s2,a5,s2
   1a9cc:    d54a                sw      s2,168(sp)
   1a9ce:    a041                j       0x1aa4e
   1a9d0:    0791                addi    a5,a5,4
   1a9d2:    ffc7a503            lw      a0,-4(a5)
   1a9d6:    fab501e3            beq     a0,a1,0x1a978
   1a9da:    47c5                li      a5,17
   1a9dc:    d13e                sw      a5,160(sp)
   1a9de:    67c2                ld      a5,16(sp)
   1a9e0:    0137d363            bge     a5,s3,0x1a9e6
   1a9e4:    d0f1                beqz    s1,0x1a9a8
   1a9e6:    75ea                ld      a1,184(sp)
   1a9e8:    4d9c                lw      a5,24(a1)
   1a9ea:    8b85                andi    a5,a5,1
   1a9ec:    c3a5                beqz    a5,0x1aa4c
   1a9ee:    0a090c63            beqz    s2,0x1aaa6
   1a9f2:    8522                mv      a0,s0
   1a9f4:    8ccff0ef            jal     ra,0x19ac0
   1a9f8:    495c                lw      a5,20(a0)
   1a9fa:    fd2a                sd      a0,184(sp)
   1a9fc:    591a                lw      s2,164(sp)
   1a9fe:    37fd                addiw   a5,a5,-1
   1aa00:    0791                addi    a5,a5,4
   1aa02:    078a                slli    a5,a5,0x2
   1aa04:    953e                add     a0,a0,a5
   1aa06:    4508                lw      a0,8(a0)
   1aa08:    4120093b            negw    s2,s2
   1aa0c:    01f97913            andi    s2,s2,31
   1aa10:    e36fe0ef            jal     ra,0x19046
   1aa14:    01250563            beq     a0,s2,0x1aa1e
   1aa18:    579a                lw      a5,164(sp)
   1aa1a:    2785                addiw   a5,a5,1
   1aa1c:    d33e                sw      a5,164(sp)
   1aa1e:    02100793            li      a5,33
   1aa22:    b5fd                j       0x1a910
   1aa24:    6742                ld      a4,16(sp)
   1aa26:    4785                li      a5,1
   1aa28:    06f71c63            bne     a4,a5,0x1aaa0
   1aa2c:    d13a                sw      a4,160(sp)
   1aa2e:    f34a92e3            bne     s5,s4,0x1a952
   1aa32:    77ea                ld      a5,184(sp)
   1aa34:    02100713            li      a4,33
   1aa38:    d13a                sw      a4,160(sp)
   1aa3a:    66c2                ld      a3,16(sp)
   1aa3c:    4bd8                lw      a4,20(a5)
   1aa3e:    00d71763            bne     a4,a3,0x1aa4c
   1aa42:    4f9c                lw      a5,24(a5)
   1aa44:    00d79463            bne     a5,a3,0x1aa4c
   1aa48:    4785                li      a5,1
   1aa4a:    e8be                sd      a5,80(sp)
   1aa4c:    dcb1                beqz    s1,0x1a9a8
   1aa4e:    57aa                lw      a5,168(sp)
   1aa50:    7722                ld      a4,40(sp)
   1aa52:    85e2                mv      a1,s8
   1aa54:    8522                mv      a0,s0
   1aa56:    c31c                sw      a5,0(a4)
   1aa58:    c8efe0ef            jal     ra,0x18ee6
   1aa5c:    75e2                ld      a1,56(sp)
   1aa5e:    8522                mv      a0,s0
   1aa60:    c86fe0ef            jal     ra,0x18ee6
   1aa64:    85e6                mv      a1,s9
   1aa66:    8522                mv      a0,s0
   1aa68:    c7efe0ef            jal     ra,0x18ee6
   1aa6c:    7586                ld      a1,96(sp)
   1aa6e:    8522                mv      a0,s0
   1aa70:    c76fe0ef            jal     ra,0x18ee6
   1aa74:    85ea                mv      a1,s10
   1aa76:    8522                mv      a0,s0
   1aa78:    c6efe0ef            jal     ra,0x18ee6
   1aa7c:    008b2703            lw      a4,8(s6)
   1aa80:    57aa                lw      a5,168(sp)
   1aa82:    f0f75763            bge     a4,a5,0x1a190
   1aa86:    77ea                ld      a5,184(sp)
   1aa88:    0007aa23            sw      zero,20(a5)
   1aa8c:    0a300793            li      a5,163
   1aa90:    d13e                sw      a5,160(sp)
   1aa92:    5bd000ef            jal     ra,0x1b84e
   1aa96:    02200793            li      a5,34
   1aa9a:    c11c                sw      a5,0(a0)
   1aa9c:    eeaff06f            j       0x1a186
   1aaa0:    02100793            li      a5,33
   1aaa4:    bf25                j       0x1a9dc
   1aaa6:    6742                ld      a4,16(sp)
   1aaa8:    4785                li      a5,1
   1aaaa:    02f70563            beq     a4,a5,0x1aad4
   1aaae:    852e                mv      a0,a1
   1aab0:    aaeff0ef            jal     ra,0x19d5e
   1aab4:    47c5                li      a5,17
   1aab6:    bda9                j       0x1a910
   1aab8:    85e6                mv      a1,s9
   1aaba:    856a                mv      a0,s10
   1aabc:    c81fe0ef            jal     ra,0x1973c
   1aac0:    a33507d3            fle.d    a5,fa0,fs3
   1aac4:    cf99                beqz    a5,0x1aae2
   1aac6:    08091963            bnez    s2,0x1ab58
   1aaca:    c0dd                beqz    s1,0x1ab70
   1aacc:    6742                ld      a4,16(sp)
   1aace:    4785                li      a5,1
   1aad0:    0ae7ca63            blt     a5,a4,0x1ab84
   1aad4:    77ea                ld      a5,184(sp)
   1aad6:    d552                sw      s4,168(sp)
   1aad8:    0007aa23            sw      zero,20(a5)
   1aadc:    05000793            li      a5,80
   1aae0:    bd05                j       0x1a910
   1aae2:    13457453            fmul.d    fs0,fa0,fs4
   1aae6:    04090663            beqz    s2,0x1ab32
   1aaea:    47c1                li      a5,16
   1aaec:    ec3e                sd      a5,24(sp)
   1aaee:    e802                sd      zero,16(sp)
   1aaf0:    a35417d3            flt.d    a5,fs0,fs5
   1aaf4:    c3dd                beqz    a5,0x1ab9a
   1aaf6:    c20417d3            fcvt.w.d    a5,fs0,rtz
   1aafa:    66a2                ld      a3,8(sp)
   1aafc:    4705                li      a4,1
   1aafe:    d20787d3            fcvt.d.w    fa5,a5
   1ab02:    00078d9b            sext.w  s11,a5
   1ab06:    0af47453            fsub.d    fs0,fs0,fa5
   1ab0a:    02e68a63            beq     a3,a4,0x1ab3e
   1ab0e:    4709                li      a4,2
   1ab10:    02e68e63            beq     a3,a4,0x1ab4c
   1ab14:    00020737            lui     a4,0x20
   1ab18:    d4073787            fld     fa5,-704(a4) # 0x1fd40
   1ab1c:    a2878753            fle.d    a4,fa5,fs0
   1ab20:    cb05                beqz    a4,0x1ab50
   1ab22:    6762                ld      a4,24(sp)
   1ab24:    00178d9b            addiw   s11,a5,1
   1ab28:    03000793            li      a5,48
   1ab2c:    9f99                subw    a5,a5,a4
   1ab2e:    ec3e                sd      a5,24(sp)
   1ab30:    a005                j       0x1ab50
   1ab32:    02000793            li      a5,32
   1ab36:    ec3e                sd      a5,24(sp)
   1ab38:    4785                li      a5,1
   1ab3a:    e83e                sd      a5,16(sp)
   1ab3c:    bf55                j       0x1aaf0
   1ab3e:    6742                ld      a4,16(sp)
   1ab40:    cb01                beqz    a4,0x1ab50
   1ab42:    f20007d3            fmv.d.x    fa5,zero
   1ab46:    a2879753            flt.d    a4,fa5,fs0
   1ab4a:    bfd9                j       0x1ab20
   1ab4c:    6742                ld      a4,16(sp)
   1ab4e:    db75                beqz    a4,0x1ab42
   1ab50:    d20d84d3            fcvt.d.w    fs1,s11
   1ab54:    4901                li      s2,0
   1ab56:    b971                j       0x1a7f2
   1ab58:    000207b7            lui     a5,0x20
   1ab5c:    d487b487            fld     fs1,-696(a5) # 0x1fd48
   1ab60:    02000793            li      a5,32
   1ab64:    4d81                li      s11,0
   1ab66:    22948453            fmv.d    fs0,fs1
   1ab6a:    ec3e                sd      a5,24(sp)
   1ab6c:    4901                li      s2,0
   1ab6e:    b149                j       0x1a7f0
   1ab70:    47c1                li      a5,16
   1ab72:    ec3e                sd      a5,24(sp)
   1ab74:    4785                li      a5,1
   1ab76:    4d81                li      s11,0
   1ab78:    232904d3            fmv.d    fs1,fs2
   1ab7c:    23290453            fmv.d    fs0,fs2
   1ab80:    e83e                sd      a5,16(sp)
   1ab82:    b985                j       0x1a7f2
   1ab84:    000207b7            lui     a5,0x20
   1ab88:    d487b487            fld     fs1,-696(a5) # 0x1fd48
   1ab8c:    47c1                li      a5,16
   1ab8e:    e826                sd      s1,16(sp)
   1ab90:    4d81                li      s11,0
   1ab92:    22948453            fmv.d    fs0,fs1
   1ab96:    ec3e                sd      a5,24(sp)
   1ab98:    b9a9                j       0x1a7f2
   1ab9a:    228404d3            fmv.d    fs1,fs0
   1ab9e:    4d81                li      s11,0
   1aba0:    bf55                j       0x1ab54
   1aba2:    c8060ee3            beqz    a2,0x1a83e
   1aba6:    6586                ld      a1,64(sp)
   1aba8:    8522                mv      a0,s0
   1abaa:    f66fe0ef            jal     ra,0x19310
   1abae:    e0aa                sd      a0,64(sp)
   1abb0:    b179                j       0x1a83e
   1abb2:    0791                addi    a5,a5,4
   1abb4:    078a                slli    a5,a5,0x2
   1abb6:    953e                add     a0,a0,a5
   1abb8:    4508                lw      a0,8(a0)
   1abba:    e53e                sd      a5,136(sp)
   1abbc:    c8afe0ef            jal     ra,0x19046
   1abc0:    7702                ld      a4,32(sp)
   1abc2:    67aa                ld      a5,136(sp)
   1abc4:    e12a                sd      a0,128(sp)
   1abc6:    97ba                add     a5,a5,a4
   1abc8:    4788                lw      a0,8(a5)
   1abca:    c7cfe0ef            jal     ra,0x19046
   1abce:    670a                ld      a4,128(sp)
   1abd0:    cae543e3            blt     a0,a4,0x1a876
   1abd4:    6586                ld      a1,64(sp)
   1abd6:    8522                mv      a0,s0
   1abd8:    b0efe0ef            jal     ra,0x18ee6
   1abdc:    7582                ld      a1,32(sp)
   1abde:    8522                mv      a0,s0
   1abe0:    b06fe0ef            jal     ra,0x18ee6
   1abe4:    e60914e3            bnez    s2,0x1aa4c
   1abe8:    571a                lw      a4,164(sp)
   1abea:    57aa                lw      a5,168(sp)
   1abec:    9fb9                addw    a5,a5,a4
   1abee:    7766                ld      a4,120(sp)
   1abf0:    1ce79c63            bne     a5,a4,0x1adc8
   1abf4:    1c0d8a63            beqz    s11,0x1adc8
   1abf8:    000207b7            lui     a5,0x20
   1abfc:    d907b787            fld     fa5,-624(a5) # 0x1fd90
   1ac00:    000207b7            lui     a5,0x20
   1ac04:    12f4f4d3            fmul.d    fs1,fs1,fa5
   1ac08:    d407b787            fld     fa5,-704(a5) # 0x1fd40
   1ac0c:    0af477d3            fsub.d    fa5,fs0,fa5
   1ac10:    22949753            fneg.d    fa4,fs1
   1ac14:    a2e797d3            flt.d    a5,fa5,fa4
   1ac18:    18078c63            beqz    a5,0x1adb0
   1ac1c:    a28497d3            flt.d    a5,fs1,fs0
   1ac20:    1a078463            beqz    a5,0x1adc8
   1ac24:    578a                lw      a5,160(sp)
   1ac26:    6762                ld      a4,24(sp)
   1ac28:    8fd9                or      a5,a5,a4
   1ac2a:    b1dd                j       0x1a910
   1ac2c:    579a                lw      a5,164(sp)
   1ac2e:    64c2                ld      s1,16(sp)
   1ac30:    37fd                addiw   a5,a5,-1
   1ac32:    d33e                sw      a5,164(sp)
   1ac34:    b745                j       0x1abd4
   1ac36:    6706                ld      a4,64(sp)
   1ac38:    4b58                lw      a4,20(a4)
   1ac3a:    10e7d563            bge     a5,a4,0x1ad44
   1ac3e:    7882                ld      a7,32(sp)
   1ac40:    6306                ld      t1,64(sp)
   1ac42:    00832583            lw      a1,8(t1) # 0x10008
   1ac46:    8522                mv      a0,s0
   1ac48:    e146                sd      a7,128(sp)
   1ac4a:    e81a                sd      t1,16(sp)
   1ac4c:    a36fe0ef            jal     ra,0x18e82
   1ac50:    6342                ld      t1,16(sp)
   1ac52:    688a                ld      a7,128(sp)
   1ac54:    872a                mv      a4,a0
   1ac56:    01432783            lw      a5,20(t1)
   1ac5a:    0561                addi    a0,a0,24
   1ac5c:    6e41                lui     t3,0x10
   1ac5e:    fef52e23            sw      a5,-4(a0) # 0xffffffff800ffffc
   1ac62:    0148a603            lw      a2,20(a7) # 0x10014
   1ac66:    01830813            addi    a6,t1,24
   1ac6a:    01888e93            addi    t4,a7,24
   1ac6e:    060a                slli    a2,a2,0x2
   1ac70:    00c505b3            add     a1,a0,a2
   1ac74:    4781                li      a5,0
   1ac76:    1e7d                addi    t3,t3,-1
   1ac78:    00082683            lw      a3,0(a6)
   1ac7c:    000eaf03            lw      t5,0(t4)
   1ac80:    0511                addi    a0,a0,4
   1ac82:    01c6ffb3            and     t6,a3,t3
   1ac86:    01cf7633            and     a2,t5,t3
   1ac8a:    00cf863b            addw    a2,t6,a2
   1ac8e:    9fb1                addw    a5,a5,a2
   1ac90:    0106d69b            srliw   a3,a3,0x10
   1ac94:    010f5f1b            srliw   t5,t5,0x10
   1ac98:    0107d61b            srliw   a2,a5,0x10
   1ac9c:    01e686bb            addw    a3,a3,t5
   1aca0:    9eb1                addw    a3,a3,a2
   1aca2:    0106961b            slliw   a2,a3,0x10
   1aca6:    00fe77b3            and     a5,t3,a5
   1acaa:    8fd1                or      a5,a5,a2
   1acac:    fef52e23            sw      a5,-4(a0)
   1acb0:    0811                addi    a6,a6,4
   1acb2:    0e91                addi    t4,t4,4
   1acb4:    0106d79b            srliw   a5,a3,0x10
   1acb8:    fcb560e3            bltu    a0,a1,0x1ac78
   1acbc:    01432603            lw      a2,20(t1)
   1acc0:    0148a683            lw      a3,20(a7)
   1acc4:    9e15                subw    a2,a2,a3
   1acc6:    060a                slli    a2,a2,0x2
   1acc8:    962e                add     a2,a2,a1
   1acca:    65c1                lui     a1,0x10
   1accc:    15fd                addi    a1,a1,-1
   1acce:    06c56e63            bltu    a0,a2,0x1ad4a
   1acd2:    c7b9                beqz    a5,0x1ad20
   1acd4:    4754                lw      a3,12(a4)
   1acd6:    4b5c                lw      a5,20(a4)
   1acd8:    02f69b63            bne     a3,a5,0x1ad0e
   1acdc:    470c                lw      a1,8(a4)
   1acde:    8522                mv      a0,s0
   1ace0:    e83a                sd      a4,16(sp)
   1ace2:    2585                addiw   a1,a1,1
   1ace4:    99efe0ef            jal     ra,0x18e82
   1ace8:    6742                ld      a4,16(sp)
   1acea:    87aa                mv      a5,a0
   1acec:    0541                addi    a0,a0,16
   1acee:    4b50                lw      a2,20(a4)
   1acf0:    01070593            addi    a1,a4,16
   1acf4:    e83e                sd      a5,16(sp)
   1acf6:    0609                addi    a2,a2,2
   1acf8:    060a                slli    a2,a2,0x2
   1acfa:    e13a                sd      a4,128(sp)
   1acfc:    e1ef80ef            jal     ra,0x1331a
   1ad00:    670a                ld      a4,128(sp)
   1ad02:    8522                mv      a0,s0
   1ad04:    85ba                mv      a1,a4
   1ad06:    9e0fe0ef            jal     ra,0x18ee6
   1ad0a:    67c2                ld      a5,16(sp)
   1ad0c:    873e                mv      a4,a5
   1ad0e:    4b5c                lw      a5,20(a4)
   1ad10:    0017869b            addiw   a3,a5,1
   1ad14:    0791                addi    a5,a5,4
   1ad16:    078a                slli    a5,a5,0x2
   1ad18:    cb54                sw      a3,20(a4)
   1ad1a:    97ba                add     a5,a5,a4
   1ad1c:    4685                li      a3,1
   1ad1e:    c794                sw      a3,8(a5)
   1ad20:    7682                ld      a3,32(sp)
   1ad22:    4b5c                lw      a5,20(a4)
   1ad24:    fd3a                sd      a4,184(sp)
   1ad26:    4ad4                lw      a3,20(a3)
   1ad28:    37fd                addiw   a5,a5,-1
   1ad2a:    04d7c763            blt     a5,a3,0x1ad78
   1ad2e:    e8a5                bnez    s1,0x1ad9e
   1ad30:    756a                ld      a0,184(sp)
   1ad32:    4585                li      a1,1
   1ad34:    2a85                addiw   s5,s5,1
   1ad36:    d17fe0ef            jal     ra,0x19a4c
   1ad3a:    57aa                lw      a5,168(sp)
   1ad3c:    4d81                li      s11,0
   1ad3e:    2785                addiw   a5,a5,1
   1ad40:    d53e                sw      a5,168(sp)
   1ad42:    bd49                j       0x1abd4
   1ad44:    6886                ld      a7,64(sp)
   1ad46:    7302                ld      t1,32(sp)
   1ad48:    bded                j       0x1ac42
   1ad4a:    00082883            lw      a7,0(a6)
   1ad4e:    0511                addi    a0,a0,4
   1ad50:    0811                addi    a6,a6,4
   1ad52:    00b8f6b3            and     a3,a7,a1
   1ad56:    9ebd                addw    a3,a3,a5
   1ad58:    0106d79b            srliw   a5,a3,0x10
   1ad5c:    0108d89b            srliw   a7,a7,0x10
   1ad60:    011787bb            addw    a5,a5,a7
   1ad64:    0107989b            slliw   a7,a5,0x10
   1ad68:    8eed                and     a3,a3,a1
   1ad6a:    0116e6b3            or      a3,a3,a7
   1ad6e:    fed52e23            sw      a3,-4(a0)
   1ad72:    0107d79b            srliw   a5,a5,0x10
   1ad76:    bfa1                j       0x1acce
   1ad78:    0791                addi    a5,a5,4
   1ad7a:    078a                slli    a5,a5,0x2
   1ad7c:    00f705b3            add     a1,a4,a5
   1ad80:    4588                lw      a0,8(a1)
   1ad82:    e13e                sd      a5,128(sp)
   1ad84:    ac2fe0ef            jal     ra,0x19046
   1ad88:    7702                ld      a4,32(sp)
   1ad8a:    678a                ld      a5,128(sp)
   1ad8c:    e82a                sd      a0,16(sp)
   1ad8e:    97ba                add     a5,a5,a4
   1ad90:    4788                lw      a0,8(a5)
   1ad92:    ab4fe0ef            jal     ra,0x19046
   1ad96:    6742                ld      a4,16(sp)
   1ad98:    f8a74be3            blt     a4,a0,0x1ad2e
   1ad9c:    bd25                j       0x1abd4
   1ad9e:    579a                lw      a5,164(sp)
   1ada0:    0017849b            addiw   s1,a5,1
   1ada4:    d326                sw      s1,164(sp)
   1ada6:    413484b3            sub     s1,s1,s3
   1adaa:    009034b3            snez    s1,s1
   1adae:    b51d                j       0x1abd4
   1adb0:    a2f497d3            flt.d    a5,fs1,fa5
   1adb4:    cb91                beqz    a5,0x1adc8
   1adb6:    000207b7            lui     a5,0x20
   1adba:    d487b787            fld     fa5,-696(a5) # 0x1fd48
   1adbe:    0a97f4d3            fsub.d    fs1,fa5,fs1
   1adc2:    a29417d3            flt.d    a5,fs0,fs1
   1adc6:    bda9                j       0x1ac20
   1adc8:    e095                bnez    s1,0x1adec
   1adca:    776a                ld      a4,184(sp)
   1adcc:    4901                li      s2,0
   1adce:    01870793            addi    a5,a4,24
   1add2:    4b58                lw      a4,20(a4)
   1add4:    070a                slli    a4,a4,0x2
   1add6:    973e                add     a4,a4,a5
   1add8:    00e7fa63            bgeu    a5,a4,0x1adec
   1addc:    4394                lw      a3,0(a5)
   1adde:    ca8d                beqz    a3,0x1ae10
   1ade0:    1168                addi    a0,sp,172
   1ade2:    d736                sw      a3,172(sp)
   1ade4:    ab0fe0ef            jal     ra,0x19094
   1ade8:    0125093b            addw    s2,a0,s2
   1adec:    85e2                mv      a1,s8
   1adee:    8522                mv      a0,s0
   1adf0:    8f6fe0ef            jal     ra,0x18ee6
   1adf4:    75e2                ld      a1,56(sp)
   1adf6:    8522                mv      a0,s0
   1adf8:    8eefe0ef            jal     ra,0x18ee6
   1adfc:    85e6                mv      a1,s9
   1adfe:    8522                mv      a0,s0
   1ae00:    8e6fe0ef            jal     ra,0x18ee6
   1ae04:    85ea                mv      a1,s10
   1ae06:    8522                mv      a0,s0
   1ae08:    8defe0ef            jal     ra,0x18ee6
   1ae0c:    857ff06f            j       0x1a662
   1ae10:    0209091b            addiw   s2,s2,32
   1ae14:    0791                addi    a5,a5,4
   1ae16:    b7c9                j       0x1add8
   1ae18:    413585bb            subw    a1,a1,s3
   1ae1c:    c31fe0ef            jal     ra,0x19a4c
   1ae20:    b655                j       0x1a9c4
   1ae22:    4481                li      s1,0
   1ae24:    b18d                j       0x1aa86
   1ae26:    578a                lw      a5,160(sp)
   1ae28:    4b58                lw      a4,20(a4)
   1ae2a:    9be1                andi    a5,a5,-8
   1ae2c:    00e05463            blez    a4,0x1ae34
   1ae30:    4709                li      a4,2
   1ae32:    e8ba                sd      a4,80(sp)
   1ae34:    6746                ld      a4,80(sp)
   1ae36:    8fd9                or      a5,a5,a4
   1ae38:    0307f713            andi    a4,a5,48
   1ae3c:    fc070163            beqz    a4,0x1a5fe
   1ae40:    0407e793            ori     a5,a5,64
   1ae44:    fbaff06f            j       0x1a5fe
   1ae48:    06500613            li      a2,101
   1ae4c:    00c78763            beq     a5,a2,0x1ae5a
   1ae50:    04500613            li      a2,69
   1ae54:    4485                li      s1,1
   1ae56:    acc79e63            bne     a5,a2,0x1a132
   1ae5a:    4c81                li      s9,0
   1ae5c:    4485                li      s1,1
   1ae5e:    944ff06f            j       0x19fa2
   1ae62:    6a1c                ld      a5,16(a2)
   1ae64:    711d                addi    sp,sp,-96
   1ae66:    fc4e                sd      s3,56(sp)
   1ae68:    ec86                sd      ra,88(sp)
   1ae6a:    e8a2                sd      s0,80(sp)
   1ae6c:    e4a6                sd      s1,72(sp)
   1ae6e:    e0ca                sd      s2,64(sp)
   1ae70:    f852                sd      s4,48(sp)
   1ae72:    f456                sd      s5,40(sp)
   1ae74:    f05a                sd      s6,32(sp)
   1ae76:    ec5e                sd      s7,24(sp)
   1ae78:    e862                sd      s8,16(sp)
   1ae7a:    e466                sd      s9,8(sp)
   1ae7c:    e06a                sd      s10,0(sp)
   1ae7e:    89b2                mv      s3,a2
   1ae80:    c7fd                beqz    a5,0x1af6e
   1ae82:    00063b03            ld      s6,0(a2)
   1ae86:    8a2a                mv      s4,a0
   1ae88:    842e                mv      s0,a1
   1ae8a:    4a81                li      s5,0
   1ae8c:    4901                li      s2,0
   1ae8e:    4b8d                li      s7,3
   1ae90:    4c09                li      s8,2
   1ae92:    06090663            beqz    s2,0x1aefe
   1ae96:    00c42d03            lw      s10,12(s0)
   1ae9a:    09a96f63            bltu    s2,s10,0x1af38
   1ae9e:    01045703            lhu     a4,16(s0)
   1aea2:    48077793            andi    a5,a4,1152
   1aea6:    cbc9                beqz    a5,0x1af38
   1aea8:    5004                lw      s1,32(s0)
   1aeaa:    6c0c                ld      a1,24(s0)
   1aeac:    601c                ld      a5,0(s0)
   1aeae:    029b84bb            mulw    s1,s7,s1
   1aeb2:    8f8d                sub     a5,a5,a1
   1aeb4:    00078c9b            sext.w  s9,a5
   1aeb8:    001c8693            addi    a3,s9,1
   1aebc:    96ca                add     a3,a3,s2
   1aebe:    0384c4bb            divw    s1,s1,s8
   1aec2:    00d4f663            bgeu    s1,a3,0x1aece
   1aec6:    0017849b            addiw   s1,a5,1
   1aeca:    012484bb            addw    s1,s1,s2
   1aece:    40077713            andi    a4,a4,1024
   1aed2:    cf5d                beqz    a4,0x1af90
   1aed4:    85a6                mv      a1,s1
   1aed6:    8552                mv      a0,s4
   1aed8:    e87f70ef            jal     ra,0x12d5e
   1aedc:    8d2a                mv      s10,a0
   1aede:    e515                bnez    a0,0x1af0a
   1aee0:    47b1                li      a5,12
   1aee2:    00fa2023            sw      a5,0(s4)
   1aee6:    01045783            lhu     a5,16(s0)
   1aeea:    557d                li      a0,-1
   1aeec:    0407e793            ori     a5,a5,64
   1aef0:    00f41823            sh      a5,16(s0)
   1aef4:    0009b823            sd      zero,16(s3)
   1aef8:    0009a423            sw      zero,8(s3)
   1aefc:    a8a5                j       0x1af74
   1aefe:    000b3a83            ld      s5,0(s6)
   1af02:    008b3903            ld      s2,8(s6)
   1af06:    0b41                addi    s6,s6,16
   1af08:    b769                j       0x1ae92
   1af0a:    6c0c                ld      a1,24(s0)
   1af0c:    8666                mv      a2,s9
   1af0e:    c0cf80ef            jal     ra,0x1331a
   1af12:    01045783            lhu     a5,16(s0)
   1af16:    b7f7f793            andi    a5,a5,-1153
   1af1a:    0807e793            ori     a5,a5,128
   1af1e:    00f41823            sh      a5,16(s0)
   1af22:    01a43c23            sd      s10,24(s0)
   1af26:    d004                sw      s1,32(s0)
   1af28:    9d66                add     s10,s10,s9
   1af2a:    419484bb            subw    s1,s1,s9
   1af2e:    01a43023            sd      s10,0(s0)
   1af32:    c444                sw      s1,12(s0)
   1af34:    00090d1b            sext.w  s10,s2
   1af38:    0009049b            sext.w  s1,s2
   1af3c:    01a97363            bgeu    s2,s10,0x1af42
   1af40:    8d26                mv      s10,s1
   1af42:    6008                ld      a0,0(s0)
   1af44:    866a                mv      a2,s10
   1af46:    85d6                mv      a1,s5
   1af48:    c88f80ef            jal     ra,0x133d0
   1af4c:    445c                lw      a5,12(s0)
   1af4e:    9aa6                add     s5,s5,s1
   1af50:    40990933            sub     s2,s2,s1
   1af54:    41a787bb            subw    a5,a5,s10
   1af58:    c45c                sw      a5,12(s0)
   1af5a:    601c                ld      a5,0(s0)
   1af5c:    9d3e                add     s10,s10,a5
   1af5e:    0109b783            ld      a5,16(s3)
   1af62:    01a43023            sd      s10,0(s0)
   1af66:    8f85                sub     a5,a5,s1
   1af68:    00f9b823            sd      a5,16(s3)
   1af6c:    f39d                bnez    a5,0x1ae92
   1af6e:    0009a423            sw      zero,8(s3)
   1af72:    4501                li      a0,0
   1af74:    60e6                ld      ra,88(sp)
   1af76:    6446                ld      s0,80(sp)
   1af78:    64a6                ld      s1,72(sp)
   1af7a:    6906                ld      s2,64(sp)
   1af7c:    79e2                ld      s3,56(sp)
   1af7e:    7a42                ld      s4,48(sp)
   1af80:    7aa2                ld      s5,40(sp)
   1af82:    7b02                ld      s6,32(sp)
   1af84:    6be2                ld      s7,24(sp)
   1af86:    6c42                ld      s8,16(sp)
   1af88:    6ca2                ld      s9,8(sp)
   1af8a:    6d02                ld      s10,0(sp)
   1af8c:    6125                addi    sp,sp,96
   1af8e:    8082                ret

   1af90:    8626                mv      a2,s1
   1af92:    8552                mv      a0,s4
   1af94:    c96f80ef            jal     ra,0x1342a
   1af98:    8d2a                mv      s10,a0
   1af9a:    f541                bnez    a0,0x1af22
   1af9c:    6c0c                ld      a1,24(s0)
   1af9e:    8552                mv      a0,s4
   1afa0:    dc9fb0ef            jal     ra,0x16d68
   1afa4:    bf35                j       0x1aee0
   1afa6:    0105d783            lhu     a5,16(a1) # 0x10010
   1afaa:    7105                addi    sp,sp,-480
   1afac:    e7a6                sd      s1,456(sp)
   1afae:    e3ca                sd      s2,448(sp)
   1afb0:    fb52                sd      s4,432(sp)
   1afb2:    f756                sd      s5,424(sp)
   1afb4:    ef86                sd      ra,472(sp)
   1afb6:    eba2                sd      s0,464(sp)
   1afb8:    ff4e                sd      s3,440(sp)
   1afba:    f35a                sd      s6,416(sp)
   1afbc:    ef5e                sd      s7,408(sp)
   1afbe:    eb62                sd      s8,400(sp)
   1afc0:    e766                sd      s9,392(sp)
   1afc2:    e36a                sd      s10,384(sp)
   1afc4:    feee                sd      s11,376(sp)
   1afc6:    0807f793            andi    a5,a5,128
   1afca:    892a                mv      s2,a0
   1afcc:    84ae                mv      s1,a1
   1afce:    8a32                mv      s4,a2
   1afd0:    8ab6                mv      s5,a3
   1afd2:    c395                beqz    a5,0x1aff6
   1afd4:    6d9c                ld      a5,24(a1)
   1afd6:    e385                bnez    a5,0x1aff6
   1afd8:    04000593            li      a1,64
   1afdc:    d83f70ef            jal     ra,0x12d5e
   1afe0:    e088                sd      a0,0(s1)
   1afe2:    ec88                sd      a0,24(s1)
   1afe4:    e511                bnez    a0,0x1aff0
   1afe6:    47b1                li      a5,12
   1afe8:    00f92023            sw      a5,0(s2)
   1afec:    5bfd                li      s7,-1
   1afee:    af95                j       0x1b762
   1aff0:    04000793            li      a5,64
   1aff4:    d09c                sw      a5,32(s1)
   1aff6:    67f9                lui     a5,0x1e
   1aff8:    8b878793            addi    a5,a5,-1864 # 0x1d8b8
   1affc:    e8be                sd      a5,80(sp)
   1affe:    67f9                lui     a5,0x1e
   1b000:    a3878793            addi    a5,a5,-1480 # 0x1da38
   1b004:    f43e                sd      a5,40(sp)
   1b006:    67f9                lui     a5,0x1e
   1b008:    0f010b13            addi    s6,sp,240
   1b00c:    a2878793            addi    a5,a5,-1496 # 0x1da28
   1b010:    f8da                sd      s6,112(sp)
   1b012:    e102                sd      zero,128(sp)
   1b014:    dc82                sw      zero,120(sp)
   1b016:    8dda                mv      s11,s6
   1b018:    f002                sd      zero,32(sp)
   1b01a:    e802                sd      zero,16(sp)
   1b01c:    ec02                sd      zero,24(sp)
   1b01e:    fc02                sd      zero,56(sp)
   1b020:    4b81                li      s7,0
   1b022:    f83e                sd      a5,48(sp)
   1b024:    8452                mv      s0,s4
   1b026:    02500693            li      a3,37
   1b02a:    00044783            lbu     a5,0(s0)
   1b02e:    c399                beqz    a5,0x1b034
   1b030:    08d79063            bne     a5,a3,0x1b0b0
   1b034:    414409bb            subw    s3,s0,s4
   1b038:    02098b63            beqz    s3,0x1b06e
   1b03c:    678a                ld      a5,128(sp)
   1b03e:    014db023            sd      s4,0(s11)
   1b042:    013db423            sd      s3,8(s11)
   1b046:    97ce                add     a5,a5,s3
   1b048:    e13e                sd      a5,128(sp)
   1b04a:    57e6                lw      a5,120(sp)
   1b04c:    0dc1                addi    s11,s11,16
   1b04e:    0017869b            addiw   a3,a5,1
   1b052:    dcb6                sw      a3,120(sp)
   1b054:    479d                li      a5,7
   1b056:    00d7da63            bge     a5,a3,0x1b06a
   1b05a:    1890                addi    a2,sp,112
   1b05c:    85a6                mv      a1,s1
   1b05e:    854a                mv      a0,s2
   1b060:    e03ff0ef            jal     ra,0x1ae62
   1b064:    6e051963            bnez    a0,0x1b756
   1b068:    8dda                mv      s11,s6
   1b06a:    013b8bbb            addw    s7,s7,s3
   1b06e:    00044783            lbu     a5,0(s0)
   1b072:    72078b63            beqz    a5,0x1b7a8
   1b076:    00140693            addi    a3,s0,1
   1b07a:    060103a3            sb      zero,103(sp)
   1b07e:    547d                li      s0,-1
   1b080:    4981                li      s3,0
   1b082:    4d01                li      s10,0
   1b084:    05a00c93            li      s9,90
   1b088:    4c29                li      s8,10
   1b08a:    00168a13            addi    s4,a3,1
   1b08e:    0006c683            lbu     a3,0(a3)
   1b092:    4525                li      a0,9
   1b094:    02a00813            li      a6,42
   1b098:    fe06861b            addiw   a2,a3,-32
   1b09c:    0006059b            sext.w  a1,a2
   1b0a0:    5ebce963            bltu    s9,a1,0x1b692
   1b0a4:    67c6                ld      a5,80(sp)
   1b0a6:    1602                slli    a2,a2,0x20
   1b0a8:    8279                srli    a2,a2,0x1e
   1b0aa:    963e                add     a2,a2,a5
   1b0ac:    4210                lw      a2,0(a2)
   1b0ae:    8602                jr      a2
   1b0b0:    0405                addi    s0,s0,1
   1b0b2:    bfa5                j       0x1b02a
   1b0b4:    0001d637            lui     a2,0x1d
   1b0b8:    35060793            addi    a5,a2,848 # 0x1d350
   1b0bc:    f03e                sd      a5,32(sp)
   1b0be:    008a8793            addi    a5,s5,8 # 0xfffffffffffff008
   1b0c2:    e43e                sd      a5,8(sp)
   1b0c4:    020d7613            andi    a2,s10,32
   1b0c8:    4c060e63            beqz    a2,0x1b5a4
   1b0cc:    000aba83            ld      s5,0(s5)
   1b0d0:    001d7613            andi    a2,s10,1
   1b0d4:    ca19                beqz    a2,0x1b0ea
   1b0d6:    000a8a63            beqz    s5,0x1b0ea
   1b0da:    03000613            li      a2,48
   1b0de:    06c10423            sb      a2,104(sp)
   1b0e2:    06d104a3            sb      a3,105(sp)
   1b0e6:    002d6d13            ori     s10,s10,2
   1b0ea:    bffd7d13            andi    s10,s10,-1025
   1b0ee:    aca9                j       0x1b348
   1b0f0:    854a                mv      a0,s2
   1b0f2:    ba5f70ef            jal     ra,0x12c96
   1b0f6:    651c                ld      a5,8(a0)
   1b0f8:    853e                mv      a0,a5
   1b0fa:    fc3e                sd      a5,56(sp)
   1b0fc:    c30f50ef            jal     ra,0x1052c
   1b100:    ec2a                sd      a0,24(sp)
   1b102:    854a                mv      a0,s2
   1b104:    b93f70ef            jal     ra,0x12c96
   1b108:    691c                ld      a5,16(a0)
   1b10a:    e83e                sd      a5,16(sp)
   1b10c:    67e2                ld      a5,24(sp)
   1b10e:    cb81                beqz    a5,0x1b11e
   1b110:    67c2                ld      a5,16(sp)
   1b112:    c791                beqz    a5,0x1b11e
   1b114:    0007c683            lbu     a3,0(a5)
   1b118:    c299                beqz    a3,0x1b11e
   1b11a:    400d6d13            ori     s10,s10,1024
   1b11e:    86d2                mv      a3,s4
   1b120:    b7ad                j       0x1b08a
   1b122:    06714683            lbu     a3,103(sp)
   1b126:    fee5                bnez    a3,0x1b11e
   1b128:    02000693            li      a3,32
   1b12c:    06d103a3            sb      a3,103(sp)
   1b130:    b7fd                j       0x1b11e
   1b132:    001d6d13            ori     s10,s10,1
   1b136:    b7e5                j       0x1b11e
   1b138:    000aa983            lw      s3,0(s5)
   1b13c:    0aa1                addi    s5,s5,8
   1b13e:    fe09d0e3            bgez    s3,0x1b11e
   1b142:    413009bb            negw    s3,s3
   1b146:    004d6d13            ori     s10,s10,4
   1b14a:    bfd1                j       0x1b11e
   1b14c:    02b00693            li      a3,43
   1b150:    bff1                j       0x1b12c
   1b152:    000a4683            lbu     a3,0(s4)
   1b156:    001a0613            addi    a2,s4,1
   1b15a:    03069c63            bne     a3,a6,0x1b192
   1b15e:    000aa403            lw      s0,0(s5)
   1b162:    008a8693            addi    a3,s5,8
   1b166:    02041793            slli    a5,s0,0x20
   1b16a:    0007d363            bgez    a5,0x1b170
   1b16e:    547d                li      s0,-1
   1b170:    2401                sext.w  s0,s0
   1b172:    8ab6                mv      s5,a3
   1b174:    8a32                mv      s4,a2
   1b176:    b765                j       0x1b11e
   1b178:    028c043b            mulw    s0,s8,s0
   1b17c:    0605                addi    a2,a2,1
   1b17e:    fff64683            lbu     a3,-1(a2)
   1b182:    9c2d                addw    s0,s0,a1
   1b184:    fd06889b            addiw   a7,a3,-48
   1b188:    85c6                mv      a1,a7
   1b18a:    ff1577e3            bgeu    a0,a7,0x1b178
   1b18e:    8a32                mv      s4,a2
   1b190:    b721                j       0x1b098
   1b192:    4401                li      s0,0
   1b194:    bfc5                j       0x1b184
   1b196:    080d6d13            ori     s10,s10,128
   1b19a:    b751                j       0x1b11e
   1b19c:    8652                mv      a2,s4
   1b19e:    4981                li      s3,0
   1b1a0:    033c09bb            mulw    s3,s8,s3
   1b1a4:    fd06869b            addiw   a3,a3,-48
   1b1a8:    0605                addi    a2,a2,1
   1b1aa:    013689bb            addw    s3,a3,s3
   1b1ae:    fff64683            lbu     a3,-1(a2)
   1b1b2:    fd06859b            addiw   a1,a3,-48
   1b1b6:    feb575e3            bgeu    a0,a1,0x1b1a0
   1b1ba:    bfd1                j       0x1b18e
   1b1bc:    000a4603            lbu     a2,0(s4)
   1b1c0:    06800693            li      a3,104
   1b1c4:    00d61663            bne     a2,a3,0x1b1d0
   1b1c8:    0a05                addi    s4,s4,1
   1b1ca:    200d6d13            ori     s10,s10,512
   1b1ce:    bf81                j       0x1b11e
   1b1d0:    040d6d13            ori     s10,s10,64
   1b1d4:    b7a9                j       0x1b11e
   1b1d6:    000a4603            lbu     a2,0(s4)
   1b1da:    06c00693            li      a3,108
   1b1de:    00d61663            bne     a2,a3,0x1b1ea
   1b1e2:    0a05                addi    s4,s4,1
   1b1e4:    020d6d13            ori     s10,s10,32
   1b1e8:    bf1d                j       0x1b11e
   1b1ea:    010d6d13            ori     s10,s10,16
   1b1ee:    bf05                j       0x1b11e
   1b1f0:    000aa683            lw      a3,0(s5)
   1b1f4:    008a8793            addi    a5,s5,8
   1b1f8:    e43e                sd      a5,8(sp)
   1b1fa:    08d10423            sb      a3,136(sp)
   1b1fe:    060103a3            sb      zero,103(sp)
   1b202:    4405                li      s0,1
   1b204:    4a81                li      s5,0
   1b206:    08810c13            addi    s8,sp,136
   1b20a:    a2a5                j       0x1b372
   1b20c:    010d6d13            ori     s10,s10,16
   1b210:    008a8793            addi    a5,s5,8
   1b214:    e43e                sd      a5,8(sp)
   1b216:    020d7693            andi    a3,s10,32
   1b21a:    c2bd                beqz    a3,0x1b280
   1b21c:    000aba83            ld      s5,0(s5)
   1b220:    580adc63            bgez    s5,0x1b7b8
   1b224:    02d00693            li      a3,45
   1b228:    41500ab3            neg     s5,s5
   1b22c:    06d103a3            sb      a3,103(sp)
   1b230:    4605                li      a2,1
   1b232:    56fd                li      a3,-1
   1b234:    85ea                mv      a1,s10
   1b236:    3ad41063            bne     s0,a3,0x1b5d6
   1b23a:    4685                li      a3,1
   1b23c:    58d60163            beq     a2,a3,0x1b7be
   1b240:    4689                li      a3,2
   1b242:    40d60c63            beq     a2,a3,0x1b65a
   1b246:    11f0                addi    a2,sp,236
   1b248:    007af593            andi    a1,s5,7
   1b24c:    03058593            addi    a1,a1,48
   1b250:    feb60fa3            sb      a1,-1(a2)
   1b254:    003ada93            srli    s5,s5,0x3
   1b258:    fff60c13            addi    s8,a2,-1
   1b25c:    380a9663            bnez    s5,0x1b5e8
   1b260:    001d7513            andi    a0,s10,1
   1b264:    c909                beqz    a0,0x1b276
   1b266:    03000513            li      a0,48
   1b26a:    00a58663            beq     a1,a0,0x1b276
   1b26e:    feac0fa3            sb      a0,-1(s8)
   1b272:    ffe60c13            addi    s8,a2,-2
   1b276:    8aa2                mv      s5,s0
   1b278:    11e0                addi    s0,sp,236
   1b27a:    4184043b            subw    s0,s0,s8
   1b27e:    a8d5                j       0x1b372
   1b280:    010d7693            andi    a3,s10,16
   1b284:    fec1                bnez    a3,0x1b21c
   1b286:    040d7693            andi    a3,s10,64
   1b28a:    c681                beqz    a3,0x1b292
   1b28c:    000a9a83            lh      s5,0(s5)
   1b290:    bf41                j       0x1b220
   1b292:    200d7693            andi    a3,s10,512
   1b296:    c681                beqz    a3,0x1b29e
   1b298:    000a8a83            lb      s5,0(s5)
   1b29c:    b751                j       0x1b220
   1b29e:    000aaa83            lw      s5,0(s5)
   1b2a2:    bfbd                j       0x1b220
   1b2a4:    020d7613            andi    a2,s10,32
   1b2a8:    000ab683            ld      a3,0(s5)
   1b2ac:    0aa1                addi    s5,s5,8
   1b2ae:    c601                beqz    a2,0x1b2b6
   1b2b0:    0176b023            sd      s7,0(a3)
   1b2b4:    bb85                j       0x1b024
   1b2b6:    010d7613            andi    a2,s10,16
   1b2ba:    fa7d                bnez    a2,0x1b2b0
   1b2bc:    040d7613            andi    a2,s10,64
   1b2c0:    c601                beqz    a2,0x1b2c8
   1b2c2:    01769023            sh      s7,0(a3)
   1b2c6:    bbb9                j       0x1b024
   1b2c8:    200d7793            andi    a5,s10,512
   1b2cc:    c781                beqz    a5,0x1b2d4
   1b2ce:    01768023            sb      s7,0(a3)
   1b2d2:    bb89                j       0x1b024
   1b2d4:    0176a023            sw      s7,0(a3)
   1b2d8:    b3b1                j       0x1b024
   1b2da:    010d6d13            ori     s10,s10,16
   1b2de:    008a8793            addi    a5,s5,8
   1b2e2:    e43e                sd      a5,8(sp)
   1b2e4:    020d7693            andi    a3,s10,32
   1b2e8:    ca89                beqz    a3,0x1b2fa
   1b2ea:    000aba83            ld      s5,0(s5)
   1b2ee:    bffd7d13            andi    s10,s10,-1025
   1b2f2:    4601                li      a2,0
   1b2f4:    060103a3            sb      zero,103(sp)
   1b2f8:    bf2d                j       0x1b232
   1b2fa:    010d7693            andi    a3,s10,16
   1b2fe:    f6f5                bnez    a3,0x1b2ea
   1b300:    040d7693            andi    a3,s10,64
   1b304:    000aaa83            lw      s5,0(s5)
   1b308:    c689                beqz    a3,0x1b312
   1b30a:    1ac2                slli    s5,s5,0x30
   1b30c:    030ada93            srli    s5,s5,0x30
   1b310:    bff9                j       0x1b2ee
   1b312:    200d7693            andi    a3,s10,512
   1b316:    c681                beqz    a3,0x1b31e
   1b318:    0ffafa93            andi    s5,s5,255
   1b31c:    bfc9                j       0x1b2ee
   1b31e:    1a82                slli    s5,s5,0x20
   1b320:    020ada93            srli    s5,s5,0x20
   1b324:    b7e9                j       0x1b2ee
   1b326:    76e1                lui     a3,0xffff8
   1b328:    8306c693            xori    a3,a3,-2000
   1b32c:    008a8793            addi    a5,s5,8
   1b330:    06d11423            sh      a3,104(sp)
   1b334:    000aba83            ld      s5,0(s5)
   1b338:    0001d6b7            lui     a3,0x1d
   1b33c:    e43e                sd      a5,8(sp)
   1b33e:    35068793            addi    a5,a3,848 # 0x1d350
   1b342:    002d6d13            ori     s10,s10,2
   1b346:    f03e                sd      a5,32(sp)
   1b348:    4609                li      a2,2
   1b34a:    b76d                j       0x1b2f4
   1b34c:    008a8793            addi    a5,s5,8
   1b350:    e43e                sd      a5,8(sp)
   1b352:    060103a3            sb      zero,103(sp)
   1b356:    567d                li      a2,-1
   1b358:    000abc03            ld      s8,0(s5)
   1b35c:    1ec40663            beq     s0,a2,0x1b548
   1b360:    8622                mv      a2,s0
   1b362:    4581                li      a1,0
   1b364:    8562                mv      a0,s8
   1b366:    f9bf70ef            jal     ra,0x13300
   1b36a:    4a81                li      s5,0
   1b36c:    c119                beqz    a0,0x1b372
   1b36e:    4185043b            subw    s0,a0,s8
   1b372:    8656                mv      a2,s5
   1b374:    008ad363            bge     s5,s0,0x1b37a
   1b378:    8622                mv      a2,s0
   1b37a:    06714583            lbu     a1,103(sp)
   1b37e:    00060c9b            sext.w  s9,a2
   1b382:    c199                beqz    a1,0x1b388
   1b384:    00160c9b            addiw   s9,a2,1
   1b388:    002d7613            andi    a2,s10,2
   1b38c:    0006079b            sext.w  a5,a2
   1b390:    e0be                sd      a5,64(sp)
   1b392:    c391                beqz    a5,0x1b396
   1b394:    2c89                addiw   s9,s9,2
   1b396:    084d7793            andi    a5,s10,132
   1b39a:    e4be                sd      a5,72(sp)
   1b39c:    e7a1                bnez    a5,0x1b3e4
   1b39e:    4199883b            subw    a6,s3,s9
   1b3a2:    05005163            blez    a6,0x1b3e4
   1b3a6:    4341                li      t1,16
   1b3a8:    4e1d                li      t3,7
   1b3aa:    55e6                lw      a1,120(sp)
   1b3ac:    77c2                ld      a5,48(sp)
   1b3ae:    660a                ld      a2,128(sp)
   1b3b0:    0015851b            addiw   a0,a1,1
   1b3b4:    00fdb023            sd      a5,0(s11)
   1b3b8:    85aa                mv      a1,a0
   1b3ba:    010d8893            addi    a7,s11,16
   1b3be:    2f034263            blt     t1,a6,0x1b6a2
   1b3c2:    010db423            sd      a6,8(s11)
   1b3c6:    9832                add     a6,a6,a2
   1b3c8:    e142                sd      a6,128(sp)
   1b3ca:    dcaa                sw      a0,120(sp)
   1b3cc:    461d                li      a2,7
   1b3ce:    8dc6                mv      s11,a7
   1b3d0:    00a65a63            bge     a2,a0,0x1b3e4
   1b3d4:    1890                addi    a2,sp,112
   1b3d6:    85a6                mv      a1,s1
   1b3d8:    854a                mv      a0,s2
   1b3da:    a89ff0ef            jal     ra,0x1ae62
   1b3de:    36051c63            bnez    a0,0x1b756
   1b3e2:    8dda                mv      s11,s6
   1b3e4:    06714603            lbu     a2,103(sp)
   1b3e8:    ca1d                beqz    a2,0x1b41e
   1b3ea:    06710593            addi    a1,sp,103
   1b3ee:    00bdb023            sd      a1,0(s11)
   1b3f2:    4585                li      a1,1
   1b3f4:    5666                lw      a2,120(sp)
   1b3f6:    00bdb423            sd      a1,8(s11)
   1b3fa:    658a                ld      a1,128(sp)
   1b3fc:    0016051b            addiw   a0,a2,1
   1b400:    dcaa                sw      a0,120(sp)
   1b402:    0585                addi    a1,a1,1
   1b404:    e12e                sd      a1,128(sp)
   1b406:    461d                li      a2,7
   1b408:    0dc1                addi    s11,s11,16
   1b40a:    00a65a63            bge     a2,a0,0x1b41e
   1b40e:    1890                addi    a2,sp,112
   1b410:    85a6                mv      a1,s1
   1b412:    854a                mv      a0,s2
   1b414:    a4fff0ef            jal     ra,0x1ae62
   1b418:    32051f63            bnez    a0,0x1b756
   1b41c:    8dda                mv      s11,s6
   1b41e:    6786                ld      a5,64(sp)
   1b420:    cb95                beqz    a5,0x1b454
   1b422:    10ac                addi    a1,sp,104
   1b424:    00bdb023            sd      a1,0(s11)
   1b428:    4589                li      a1,2
   1b42a:    5666                lw      a2,120(sp)
   1b42c:    00bdb423            sd      a1,8(s11)
   1b430:    658a                ld      a1,128(sp)
   1b432:    0016051b            addiw   a0,a2,1
   1b436:    dcaa                sw      a0,120(sp)
   1b438:    0589                addi    a1,a1,2
   1b43a:    e12e                sd      a1,128(sp)
   1b43c:    461d                li      a2,7
   1b43e:    0dc1                addi    s11,s11,16
   1b440:    00a65a63            bge     a2,a0,0x1b454
   1b444:    1890                addi    a2,sp,112
   1b446:    85a6                mv      a1,s1
   1b448:    854a                mv      a0,s2
   1b44a:    a19ff0ef            jal     ra,0x1ae62
   1b44e:    30051463            bnez    a0,0x1b756
   1b452:    8dda                mv      s11,s6
   1b454:    67a6                ld      a5,72(sp)
   1b456:    08000613            li      a2,128
   1b45a:    04c79563            bne     a5,a2,0x1b4a4
   1b45e:    4199883b            subw    a6,s3,s9
   1b462:    05005163            blez    a6,0x1b4a4
   1b466:    4341                li      t1,16
   1b468:    4e1d                li      t3,7
   1b46a:    55e6                lw      a1,120(sp)
   1b46c:    77a2                ld      a5,40(sp)
   1b46e:    660a                ld      a2,128(sp)
   1b470:    0015851b            addiw   a0,a1,1
   1b474:    00fdb023            sd      a5,0(s11)
   1b478:    85aa                mv      a1,a0
   1b47a:    010d8893            addi    a7,s11,16
   1b47e:    25034763            blt     t1,a6,0x1b6cc
   1b482:    010db423            sd      a6,8(s11)
   1b486:    9832                add     a6,a6,a2
   1b488:    e142                sd      a6,128(sp)
   1b48a:    dcaa                sw      a0,120(sp)
   1b48c:    461d                li      a2,7
   1b48e:    8dc6                mv      s11,a7
   1b490:    00a65a63            bge     a2,a0,0x1b4a4
   1b494:    1890                addi    a2,sp,112
   1b496:    85a6                mv      a1,s1
   1b498:    854a                mv      a0,s2
   1b49a:    9c9ff0ef            jal     ra,0x1ae62
   1b49e:    2a051c63            bnez    a0,0x1b756
   1b4a2:    8dda                mv      s11,s6
   1b4a4:    408a8abb            subw    s5,s5,s0
   1b4a8:    05505163            blez    s5,0x1b4ea
   1b4ac:    48c1                li      a7,16
   1b4ae:    431d                li      t1,7
   1b4b0:    55e6                lw      a1,120(sp)
   1b4b2:    77a2                ld      a5,40(sp)
   1b4b4:    660a                ld      a2,128(sp)
   1b4b6:    0015851b            addiw   a0,a1,1
   1b4ba:    00fdb023            sd      a5,0(s11)
   1b4be:    85aa                mv      a1,a0
   1b4c0:    010d8813            addi    a6,s11,16
   1b4c4:    2358c963            blt     a7,s5,0x1b6f6
   1b4c8:    015db423            sd      s5,8(s11)
   1b4cc:    9ab2                add     s5,s5,a2
   1b4ce:    e156                sd      s5,128(sp)
   1b4d0:    dcaa                sw      a0,120(sp)
   1b4d2:    461d                li      a2,7
   1b4d4:    8dc2                mv      s11,a6
   1b4d6:    00a65a63            bge     a2,a0,0x1b4ea
   1b4da:    1890                addi    a2,sp,112
   1b4dc:    85a6                mv      a1,s1
   1b4de:    854a                mv      a0,s2
   1b4e0:    983ff0ef            jal     ra,0x1ae62
   1b4e4:    26051963            bnez    a0,0x1b756
   1b4e8:    8dda                mv      s11,s6
   1b4ea:    668a                ld      a3,128(sp)
   1b4ec:    008db423            sd      s0,8(s11)
   1b4f0:    018db023            sd      s8,0(s11)
   1b4f4:    9436                add     s0,s0,a3
   1b4f6:    56e6                lw      a3,120(sp)
   1b4f8:    e122                sd      s0,128(sp)
   1b4fa:    010d8713            addi    a4,s11,16
   1b4fe:    0016861b            addiw   a2,a3,1
   1b502:    dcb2                sw      a2,120(sp)
   1b504:    469d                li      a3,7
   1b506:    00c6da63            bge     a3,a2,0x1b51a
   1b50a:    1890                addi    a2,sp,112
   1b50c:    85a6                mv      a1,s1
   1b50e:    854a                mv      a0,s2
   1b510:    953ff0ef            jal     ra,0x1ae62
   1b514:    24051163            bnez    a0,0x1b756
   1b518:    875a                mv      a4,s6
   1b51a:    004d7793            andi    a5,s10,4
   1b51e:    1e079f63            bnez    a5,0x1b71c
   1b522:    87ce                mv      a5,s3
   1b524:    0199d363            bge     s3,s9,0x1b52a
   1b528:    87e6                mv      a5,s9
   1b52a:    01778bbb            addw    s7,a5,s7
   1b52e:    678a                ld      a5,128(sp)
   1b530:    cb81                beqz    a5,0x1b540
   1b532:    1890                addi    a2,sp,112
   1b534:    85a6                mv      a1,s1
   1b536:    854a                mv      a0,s2
   1b538:    92bff0ef            jal     ra,0x1ae62
   1b53c:    20051d63            bnez    a0,0x1b756
   1b540:    dc82                sw      zero,120(sp)
   1b542:    6aa2                ld      s5,8(sp)
   1b544:    8dda                mv      s11,s6
   1b546:    bcf9                j       0x1b024
   1b548:    8562                mv      a0,s8
   1b54a:    fe3f40ef            jal     ra,0x1052c
   1b54e:    0005041b            sext.w  s0,a0
   1b552:    4a81                li      s5,0
   1b554:    bd39                j       0x1b372
   1b556:    010d6d13            ori     s10,s10,16
   1b55a:    008a8793            addi    a5,s5,8
   1b55e:    e43e                sd      a5,8(sp)
   1b560:    020d7693            andi    a3,s10,32
   1b564:    c689                beqz    a3,0x1b56e
   1b566:    000aba83            ld      s5,0(s5)
   1b56a:    4605                li      a2,1
   1b56c:    b361                j       0x1b2f4
   1b56e:    010d7693            andi    a3,s10,16
   1b572:    faf5                bnez    a3,0x1b566
   1b574:    040d7693            andi    a3,s10,64
   1b578:    000aaa83            lw      s5,0(s5)
   1b57c:    c689                beqz    a3,0x1b586
   1b57e:    1ac2                slli    s5,s5,0x30
   1b580:    030ada93            srli    s5,s5,0x30
   1b584:    b7dd                j       0x1b56a
   1b586:    200d7693            andi    a3,s10,512
   1b58a:    c681                beqz    a3,0x1b592
   1b58c:    0ffafa93            andi    s5,s5,255
   1b590:    bfe9                j       0x1b56a
   1b592:    1a82                slli    s5,s5,0x20
   1b594:    020ada93            srli    s5,s5,0x20
   1b598:    bfc9                j       0x1b56a
   1b59a:    0001d637            lui     a2,0x1d
   1b59e:    36860793            addi    a5,a2,872 # 0x1d368
   1b5a2:    be29                j       0x1b0bc
   1b5a4:    010d7613            andi    a2,s10,16
   1b5a8:    b20612e3            bnez    a2,0x1b0cc
   1b5ac:    040d7613            andi    a2,s10,64
   1b5b0:    000aaa83            lw      s5,0(s5)
   1b5b4:    c609                beqz    a2,0x1b5be
   1b5b6:    1ac2                slli    s5,s5,0x30
   1b5b8:    030ada93            srli    s5,s5,0x30
   1b5bc:    be11                j       0x1b0d0
   1b5be:    200d7613            andi    a2,s10,512
   1b5c2:    c601                beqz    a2,0x1b5ca
   1b5c4:    0ffafa93            andi    s5,s5,255
   1b5c8:    b621                j       0x1b0d0
   1b5ca:    1a82                slli    s5,s5,0x20
   1b5cc:    020ada93            srli    s5,s5,0x20
   1b5d0:    b601                j       0x1b0d0
   1b5d2:    85ea                mv      a1,s10
   1b5d4:    4605                li      a2,1
   1b5d6:    f7fd7d13            andi    s10,s10,-129
   1b5da:    c60a90e3            bnez    s5,0x1b23a
   1b5de:    cc51                beqz    s0,0x1b67a
   1b5e0:    4685                li      a3,1
   1b5e2:    c4d61fe3            bne     a2,a3,0x1b240
   1b5e6:    aaf9                j       0x1b7c4
   1b5e8:    8662                mv      a2,s8
   1b5ea:    b9b9                j       0x1b248
   1b5ec:    400d7c93            andi    s9,s10,1024
   1b5f0:    4601                li      a2,0
   1b5f2:    11ec                addi    a1,sp,236
   1b5f4:    48a9                li      a7,10
   1b5f6:    2c81                sext.w  s9,s9
   1b5f8:    0ff00313            li      t1,255
   1b5fc:    4825                li      a6,9
   1b5fe:    031af533            remu    a0,s5,a7
   1b602:    fff58c13            addi    s8,a1,-1
   1b606:    2605                addiw   a2,a2,1
   1b608:    0305051b            addiw   a0,a0,48
   1b60c:    fea58fa3            sb      a0,-1(a1)
   1b610:    020c8e63            beqz    s9,0x1b64c
   1b614:    67c2                ld      a5,16(sp)
   1b616:    0007c583            lbu     a1,0(a5)
   1b61a:    02c59963            bne     a1,a2,0x1b64c
   1b61e:    02658763            beq     a1,t1,0x1b64c
   1b622:    03587563            bgeu    a6,s5,0x1b64c
   1b626:    67e2                ld      a5,24(sp)
   1b628:    75e2                ld      a1,56(sp)
   1b62a:    40fc0c33            sub     s8,s8,a5
   1b62e:    863e                mv      a2,a5
   1b630:    8562                mv      a0,s8
   1b632:    bf6fe0ef            jal     ra,0x19a28
   1b636:    67c2                ld      a5,16(sp)
   1b638:    4601                li      a2,0
   1b63a:    48a9                li      a7,10
   1b63c:    0017c583            lbu     a1,1(a5)
   1b640:    0ff00313            li      t1,255
   1b644:    4825                li      a6,9
   1b646:    c199                beqz    a1,0x1b64c
   1b648:    0785                addi    a5,a5,1
   1b64a:    e83e                sd      a5,16(sp)
   1b64c:    031ad5b3            divu    a1,s5,a7
   1b650:    c35873e3            bgeu    a6,s5,0x1b276
   1b654:    8aae                mv      s5,a1
   1b656:    85e2                mv      a1,s8
   1b658:    b75d                j       0x1b5fe
   1b65a:    0ec10c13            addi    s8,sp,236
   1b65e:    7782                ld      a5,32(sp)
   1b660:    00faf613            andi    a2,s5,15
   1b664:    1c7d                addi    s8,s8,-1
   1b666:    963e                add     a2,a2,a5
   1b668:    00064603            lbu     a2,0(a2)
   1b66c:    004ada93            srli    s5,s5,0x4
   1b670:    00cc0023            sb      a2,0(s8)
   1b674:    fe0a95e3            bnez    s5,0x1b65e
   1b678:    befd                j       0x1b276
   1b67a:    0ec10c13            addi    s8,sp,236
   1b67e:    be061ce3            bnez    a2,0x1b276
   1b682:    8985                andi    a1,a1,1
   1b684:    be0589e3            beqz    a1,0x1b276
   1b688:    03000693            li      a3,48
   1b68c:    0ed105a3            sb      a3,235(sp)
   1b690:    aa35                j       0x1b7cc
   1b692:    10068b63            beqz    a3,0x1b7a8
   1b696:    08d10423            sb      a3,136(sp)
   1b69a:    060103a3            sb      zero,103(sp)
   1b69e:    e456                sd      s5,8(sp)
   1b6a0:    b68d                j       0x1b202
   1b6a2:    0641                addi    a2,a2,16
   1b6a4:    006db423            sd      t1,8(s11)
   1b6a8:    e132                sd      a2,128(sp)
   1b6aa:    dcae                sw      a1,120(sp)
   1b6ac:    00ae5d63            bge     t3,a0,0x1b6c6
   1b6b0:    1890                addi    a2,sp,112
   1b6b2:    85a6                mv      a1,s1
   1b6b4:    854a                mv      a0,s2
   1b6b6:    ecc2                sd      a6,88(sp)
   1b6b8:    faaff0ef            jal     ra,0x1ae62
   1b6bc:    ed49                bnez    a0,0x1b756
   1b6be:    6866                ld      a6,88(sp)
   1b6c0:    88da                mv      a7,s6
   1b6c2:    4e1d                li      t3,7
   1b6c4:    4341                li      t1,16
   1b6c6:    3841                addiw   a6,a6,-16
   1b6c8:    8dc6                mv      s11,a7
   1b6ca:    b1c5                j       0x1b3aa
   1b6cc:    0641                addi    a2,a2,16
   1b6ce:    006db423            sd      t1,8(s11)
   1b6d2:    e132                sd      a2,128(sp)
   1b6d4:    dcae                sw      a1,120(sp)
   1b6d6:    00ae5d63            bge     t3,a0,0x1b6f0
   1b6da:    1890                addi    a2,sp,112
   1b6dc:    85a6                mv      a1,s1
   1b6de:    854a                mv      a0,s2
   1b6e0:    e0c2                sd      a6,64(sp)
   1b6e2:    f80ff0ef            jal     ra,0x1ae62
   1b6e6:    e925                bnez    a0,0x1b756
   1b6e8:    6806                ld      a6,64(sp)
   1b6ea:    88da                mv      a7,s6
   1b6ec:    4e1d                li      t3,7
   1b6ee:    4341                li      t1,16
   1b6f0:    3841                addiw   a6,a6,-16
   1b6f2:    8dc6                mv      s11,a7
   1b6f4:    bb9d                j       0x1b46a
   1b6f6:    0641                addi    a2,a2,16
   1b6f8:    011db423            sd      a7,8(s11)
   1b6fc:    e132                sd      a2,128(sp)
   1b6fe:    dcae                sw      a1,120(sp)
   1b700:    00a35b63            bge     t1,a0,0x1b716
   1b704:    1890                addi    a2,sp,112
   1b706:    85a6                mv      a1,s1
   1b708:    854a                mv      a0,s2
   1b70a:    f58ff0ef            jal     ra,0x1ae62
   1b70e:    e521                bnez    a0,0x1b756
   1b710:    885a                mv      a6,s6
   1b712:    431d                li      t1,7
   1b714:    48c1                li      a7,16
   1b716:    3ac1                addiw   s5,s5,-16
   1b718:    8dc2                mv      s11,a6
   1b71a:    bb59                j       0x1b4b0
   1b71c:    4199843b            subw    s0,s3,s9
   1b720:    e08051e3            blez    s0,0x1b522
   1b724:    4ac1                li      s5,16
   1b726:    4d1d                li      s10,7
   1b728:    56e6                lw      a3,120(sp)
   1b72a:    678a                ld      a5,128(sp)
   1b72c:    0016861b            addiw   a2,a3,1
   1b730:    86b2                mv      a3,a2
   1b732:    048ac863            blt     s5,s0,0x1b782
   1b736:    76c2                ld      a3,48(sp)
   1b738:    e700                sd      s0,8(a4)
   1b73a:    943e                add     s0,s0,a5
   1b73c:    e314                sd      a3,0(a4)
   1b73e:    e122                sd      s0,128(sp)
   1b740:    dcb2                sw      a2,120(sp)
   1b742:    479d                li      a5,7
   1b744:    dcc7dfe3            bge     a5,a2,0x1b522
   1b748:    1890                addi    a2,sp,112
   1b74a:    85a6                mv      a1,s1
   1b74c:    854a                mv      a0,s2
   1b74e:    f14ff0ef            jal     ra,0x1ae62
   1b752:    dc0508e3            beqz    a0,0x1b522
   1b756:    0104d783            lhu     a5,16(s1)
   1b75a:    0407f793            andi    a5,a5,64
   1b75e:    880797e3            bnez    a5,0x1afec
   1b762:    60fe                ld      ra,472(sp)
   1b764:    645e                ld      s0,464(sp)
   1b766:    855e                mv      a0,s7
   1b768:    64be                ld      s1,456(sp)
   1b76a:    691e                ld      s2,448(sp)
   1b76c:    79fa                ld      s3,440(sp)
   1b76e:    7a5a                ld      s4,432(sp)
   1b770:    7aba                ld      s5,424(sp)
   1b772:    7b1a                ld      s6,416(sp)
   1b774:    6bfa                ld      s7,408(sp)
   1b776:    6c5a                ld      s8,400(sp)
   1b778:    6cba                ld      s9,392(sp)
   1b77a:    6d1a                ld      s10,384(sp)
   1b77c:    7df6                ld      s11,376(sp)
   1b77e:    613d                addi    sp,sp,480
   1b780:    8082                ret

   1b782:    75c2                ld      a1,48(sp)
   1b784:    07c1                addi    a5,a5,16
   1b786:    01573423            sd      s5,8(a4)
   1b78a:    e30c                sd      a1,0(a4)
   1b78c:    e13e                sd      a5,128(sp)
   1b78e:    dcb6                sw      a3,120(sp)
   1b790:    0741                addi    a4,a4,16
   1b792:    00cd5963            bge     s10,a2,0x1b7a4
   1b796:    1890                addi    a2,sp,112
   1b798:    85a6                mv      a1,s1
   1b79a:    854a                mv      a0,s2
   1b79c:    ec6ff0ef            jal     ra,0x1ae62
   1b7a0:    f95d                bnez    a0,0x1b756
   1b7a2:    875a                mv      a4,s6
   1b7a4:    3441                addiw   s0,s0,-16
   1b7a6:    b749                j       0x1b728
   1b7a8:    678a                ld      a5,128(sp)
   1b7aa:    d7d5                beqz    a5,0x1b756
   1b7ac:    1890                addi    a2,sp,112
   1b7ae:    85a6                mv      a1,s1
   1b7b0:    854a                mv      a0,s2
   1b7b2:    eb0ff0ef            jal     ra,0x1ae62
   1b7b6:    b745                j       0x1b756
   1b7b8:    56fd                li      a3,-1
   1b7ba:    e0d41ce3            bne     s0,a3,0x1b5d2
   1b7be:    46a5                li      a3,9
   1b7c0:    e356e6e3            bltu    a3,s5,0x1b5ec
   1b7c4:    030a8a9b            addiw   s5,s5,48
   1b7c8:    0f5105a3            sb      s5,235(sp)
   1b7cc:    0eb10c13            addi    s8,sp,235
   1b7d0:    b45d                j       0x1b276
   1b7d2:    02c585b3            mul     a1,a1,a2
   1b7d6:    1141                addi    sp,sp,-16
   1b7d8:    e022                sd      s0,0(sp)
   1b7da:    e406                sd      ra,8(sp)
   1b7dc:    d82f70ef            jal     ra,0x12d5e
   1b7e0:    842a                mv      s0,a0
   1b7e2:    cd15                beqz    a0,0x1b81e
   1b7e4:    ff853603            ld      a2,-8(a0)
   1b7e8:    04800713            li      a4,72
   1b7ec:    9a71                andi    a2,a2,-4
   1b7ee:    1661                addi    a2,a2,-8
   1b7f0:    04c76b63            bltu    a4,a2,0x1b846
   1b7f4:    02700693            li      a3,39
   1b7f8:    87aa                mv      a5,a0
   1b7fa:    00c6fc63            bgeu    a3,a2,0x1b812
   1b7fe:    00053023            sd      zero,0(a0)
   1b802:    00053423            sd      zero,8(a0)
   1b806:    03700793            li      a5,55
   1b80a:    00c7ef63            bltu    a5,a2,0x1b828
   1b80e:    01050793            addi    a5,a0,16
   1b812:    0007b023            sd      zero,0(a5)
   1b816:    0007b423            sd      zero,8(a5)
   1b81a:    0007b823            sd      zero,16(a5)
   1b81e:    8522                mv      a0,s0
   1b820:    60a2                ld      ra,8(sp)
   1b822:    6402                ld      s0,0(sp)
   1b824:    0141                addi    sp,sp,16
   1b826:    8082                ret

   1b828:    00053823            sd      zero,16(a0)
   1b82c:    00053c23            sd      zero,24(a0)
   1b830:    02050793            addi    a5,a0,32
   1b834:    fce61fe3            bne     a2,a4,0x1b812
   1b838:    02053023            sd      zero,32(a0)
   1b83c:    03050793            addi    a5,a0,48
   1b840:    02053423            sd      zero,40(a0)
   1b844:    b7f9                j       0x1b812
   1b846:    4581                li      a1,0
   1b848:    b6bf40ef            jal     ra,0x103b2
   1b84c:    bfc9                j       0x1b81e
   1b84e:    8781b503            ld      a0,-1928(gp)
   1b852:    8082                ret

   1b854:    1101                addi    sp,sp,-32
   1b856:    e822                sd      s0,16(sp)
   1b858:    e426                sd      s1,8(sp)
   1b85a:    84aa                mv      s1,a0
   1b85c:    852e                mv      a0,a1
   1b85e:    85b2                mv      a1,a2
   1b860:    ec06                sd      ra,24(sp)
   1b862:    9001ac23            sw      zero,-1768(gp)
   1b866:    0aa000ef            jal     ra,0x1b910
   1b86a:    57fd                li      a5,-1
   1b86c:    00f51663            bne     a0,a5,0x1b878
   1b870:    9181a783            lw      a5,-1768(gp)
   1b874:    c391                beqz    a5,0x1b878
   1b876:    c09c                sw      a5,0(s1)
   1b878:    60e2                ld      ra,24(sp)
   1b87a:    6442                ld      s0,16(sp)
   1b87c:    64a2                ld      s1,8(sp)
   1b87e:    6105                addi    sp,sp,32
   1b880:    8082                ret

   1b882:    1101                addi    sp,sp,-32
   1b884:    e822                sd      s0,16(sp)
   1b886:    e426                sd      s1,8(sp)
   1b888:    84aa                mv      s1,a0
   1b88a:    852e                mv      a0,a1
   1b88c:    ec06                sd      ra,24(sp)
   1b88e:    9001ac23            sw      zero,-1768(gp)
   1b892:    0c2000ef            jal     ra,0x1b954
   1b896:    57fd                li      a5,-1
   1b898:    00f51663            bne     a0,a5,0x1b8a4
   1b89c:    9181a783            lw      a5,-1768(gp)
   1b8a0:    c391                beqz    a5,0x1b8a4
   1b8a2:    c09c                sw      a5,0(s1)
   1b8a4:    60e2                ld      ra,24(sp)
   1b8a6:    6442                ld      s0,16(sp)
   1b8a8:    64a2                ld      s1,8(sp)
   1b8aa:    6105                addi    sp,sp,32
   1b8ac:    8082                ret

   1b8ae:    1141                addi    sp,sp,-16
   1b8b0:    e406                sd      ra,8(sp)
   1b8b2:    e022                sd      s0,0(sp)
   1b8b4:    4581                li      a1,0
   1b8b6:    4601                li      a2,0
   1b8b8:    4681                li      a3,0
   1b8ba:    4701                li      a4,0
   1b8bc:    4781                li      a5,0
   1b8be:    03900893            li      a7,57
   1b8c2:    00000073            ecall
   1b8c6:    842a                mv      s0,a0
   1b8c8:    00055863            bgez    a0,0x1b8d8
   1b8cc:    4080043b            negw    s0,s0
   1b8d0:    f7fff0ef            jal     ra,0x1b84e
   1b8d4:    c100                sw      s0,0(a0)
   1b8d6:    547d                li      s0,-1
   1b8d8:    0004051b            sext.w  a0,s0
   1b8dc:    60a2                ld      ra,8(sp)
   1b8de:    6402                ld      s0,0(sp)
   1b8e0:    0141                addi    sp,sp,16
   1b8e2:    8082                ret

   1b8e4:    4581                li      a1,0
   1b8e6:    4601                li      a2,0
   1b8e8:    4681                li      a3,0
   1b8ea:    4701                li      a4,0
   1b8ec:    4781                li      a5,0
   1b8ee:    05d00893            li      a7,93
   1b8f2:    00000073            ecall
   1b8f6:    00055c63            bgez    a0,0x1b90e
   1b8fa:    1141                addi    sp,sp,-16
   1b8fc:    e022                sd      s0,0(sp)
   1b8fe:    842a                mv      s0,a0
   1b900:    e406                sd      ra,8(sp)
   1b902:    4080043b            negw    s0,s0
   1b906:    f49ff0ef            jal     ra,0x1b84e
   1b90a:    c100                sw      s0,0(a0)
   1b90c:    a001                j       0x1b90c
   1b90e:    a001                j       0x1b90e
   1b910:    7135                addi    sp,sp,-160
   1b912:    e526                sd      s1,136(sp)
   1b914:    ed06                sd      ra,152(sp)
   1b916:    84ae                mv      s1,a1
   1b918:    e922                sd      s0,144(sp)
   1b91a:    858a                mv      a1,sp
   1b91c:    4601                li      a2,0
   1b91e:    4681                li      a3,0
   1b920:    4701                li      a4,0
   1b922:    4781                li      a5,0
   1b924:    05000893            li      a7,80
   1b928:    00000073            ecall
   1b92c:    842a                mv      s0,a0
   1b92e:    00055863            bgez    a0,0x1b93e
   1b932:    4080043b            negw    s0,s0
   1b936:    f19ff0ef            jal     ra,0x1b84e
   1b93a:    c100                sw      s0,0(a0)
   1b93c:    547d                li      s0,-1
   1b93e:    8526                mv      a0,s1
   1b940:    858a                mv      a1,sp
   1b942:    148000ef            jal     ra,0x1ba8a
   1b946:    0004051b            sext.w  a0,s0
   1b94a:    60ea                ld      ra,152(sp)
   1b94c:    644a                ld      s0,144(sp)
   1b94e:    64aa                ld      s1,136(sp)
   1b950:    610d                addi    sp,sp,160
   1b952:    8082                ret

   1b954:    7119                addi    sp,sp,-128
   1b956:    002c                addi    a1,sp,8
   1b958:    fc86                sd      ra,120(sp)
   1b95a:    fb7ff0ef            jal     ra,0x1b910
   1b95e:    57fd                li      a5,-1
   1b960:    00f50963            beq     a0,a5,0x1b972
   1b964:    4532                lw      a0,12(sp)
   1b966:    40d5551b            sraiw   a0,a0,0xd
   1b96a:    8905                andi    a0,a0,1
   1b96c:    70e6                ld      ra,120(sp)
   1b96e:    6109                addi    sp,sp,128
   1b970:    8082                ret

   1b972:    4501                li      a0,0
   1b974:    bfe5                j       0x1b96c
   1b976:    1141                addi    sp,sp,-16
   1b978:    e406                sd      ra,8(sp)
   1b97a:    e022                sd      s0,0(sp)
   1b97c:    4681                li      a3,0
   1b97e:    4701                li      a4,0
   1b980:    4781                li      a5,0
   1b982:    03e00893            li      a7,62
   1b986:    00000073            ecall
   1b98a:    842a                mv      s0,a0
   1b98c:    00055863            bgez    a0,0x1b99c
   1b990:    4080043b            negw    s0,s0
   1b994:    ebbff0ef            jal     ra,0x1b84e
   1b998:    c100                sw      s0,0(a0)
   1b99a:    547d                li      s0,-1
   1b99c:    8522                mv      a0,s0
   1b99e:    60a2                ld      ra,8(sp)
   1b9a0:    6402                ld      s0,0(sp)
   1b9a2:    0141                addi    sp,sp,16
   1b9a4:    8082                ret

   1b9a6:    1141                addi    sp,sp,-16
   1b9a8:    e406                sd      ra,8(sp)
   1b9aa:    e022                sd      s0,0(sp)
   1b9ac:    4681                li      a3,0
   1b9ae:    4701                li      a4,0
   1b9b0:    4781                li      a5,0
   1b9b2:    03f00893            li      a7,63
   1b9b6:    00000073            ecall
   1b9ba:    842a                mv      s0,a0
   1b9bc:    00055863            bgez    a0,0x1b9cc
   1b9c0:    4080043b            negw    s0,s0
   1b9c4:    e8bff0ef            jal     ra,0x1b84e
   1b9c8:    c100                sw      s0,0(a0)
   1b9ca:    547d                li      s0,-1
   1b9cc:    8522                mv      a0,s0
   1b9ce:    60a2                ld      ra,8(sp)
   1b9d0:    6402                ld      s0,0(sp)
   1b9d2:    0141                addi    sp,sp,16
   1b9d4:    8082                ret

   1b9d6:    1101                addi    sp,sp,-32
   1b9d8:    e822                sd      s0,16(sp)
   1b9da:    8b01b783            ld      a5,-1872(gp)
   1b9de:    e04a                sd      s2,0(sp)
   1b9e0:    ec06                sd      ra,24(sp)
   1b9e2:    e426                sd      s1,8(sp)
   1b9e4:    892a                mv      s2,a0
   1b9e6:    eb9d                bnez    a5,0x1ba1c
   1b9e8:    4501                li      a0,0
   1b9ea:    4581                li      a1,0
   1b9ec:    4601                li      a2,0
   1b9ee:    4681                li      a3,0
   1b9f0:    4701                li      a4,0
   1b9f2:    0d600893            li      a7,214
   1b9f6:    00000073            ecall
   1b9fa:    84aa                mv      s1,a0
   1b9fc:    00055e63            bgez    a0,0x1ba18
   1ba00:    e4fff0ef            jal     ra,0x1b84e
   1ba04:    409004bb            negw    s1,s1
   1ba08:    c104                sw      s1,0(a0)
   1ba0a:    557d                li      a0,-1
   1ba0c:    60e2                ld      ra,24(sp)
   1ba0e:    6442                ld      s0,16(sp)
   1ba10:    64a2                ld      s1,8(sp)
   1ba12:    6902                ld      s2,0(sp)
   1ba14:    6105                addi    sp,sp,32
   1ba16:    8082                ret

   1ba18:    8aa1b823            sd      a0,-1872(gp)
   1ba1c:    8b01b503            ld      a0,-1872(gp)
   1ba20:    4581                li      a1,0
   1ba22:    4601                li      a2,0
   1ba24:    954a                add     a0,a0,s2
   1ba26:    4681                li      a3,0
   1ba28:    4701                li      a4,0
   1ba2a:    4781                li      a5,0
   1ba2c:    0d600893            li      a7,214
   1ba30:    00000073            ecall
   1ba34:    84aa                mv      s1,a0
   1ba36:    00055863            bgez    a0,0x1ba46
   1ba3a:    409004bb            negw    s1,s1
   1ba3e:    e11ff0ef            jal     ra,0x1b84e
   1ba42:    c104                sw      s1,0(a0)
   1ba44:    54fd                li      s1,-1
   1ba46:    8b01b783            ld      a5,-1872(gp)
   1ba4a:    557d                li      a0,-1
   1ba4c:    993e                add     s2,s2,a5
   1ba4e:    fb249fe3            bne     s1,s2,0x1ba0c
   1ba52:    8a91b823            sd      s1,-1872(gp)
   1ba56:    853e                mv      a0,a5
   1ba58:    bf55                j       0x1ba0c
   1ba5a:    1141                addi    sp,sp,-16
   1ba5c:    e406                sd      ra,8(sp)
   1ba5e:    e022                sd      s0,0(sp)
   1ba60:    4681                li      a3,0
   1ba62:    4701                li      a4,0
   1ba64:    4781                li      a5,0
   1ba66:    04000893            li      a7,64
   1ba6a:    00000073            ecall
   1ba6e:    842a                mv      s0,a0
   1ba70:    00055863            bgez    a0,0x1ba80
   1ba74:    4080043b            negw    s0,s0
   1ba78:    dd7ff0ef            jal     ra,0x1b84e
   1ba7c:    c100                sw      s0,0(a0)
   1ba7e:    547d                li      s0,-1
   1ba80:    8522                mv      a0,s0
   1ba82:    60a2                ld      ra,8(sp)
   1ba84:    6402                ld      s0,0(sp)
   1ba86:    0141                addi    sp,sp,16
   1ba88:    8082                ret

   1ba8a:    619c                ld      a5,0(a1)
   1ba8c:    00f51023            sh      a5,0(a0)
   1ba90:    659c                ld      a5,8(a1)
   1ba92:    00f51123            sh      a5,2(a0)
   1ba96:    499c                lw      a5,16(a1)
   1ba98:    c15c                sw      a5,4(a0)
   1ba9a:    49dc                lw      a5,20(a1)
   1ba9c:    00f51423            sh      a5,8(a0)
   1baa0:    4d9c                lw      a5,24(a1)
   1baa2:    00f51523            sh      a5,10(a0)
   1baa6:    4ddc                lw      a5,28(a1)
   1baa8:    00f51623            sh      a5,12(a0)
   1baac:    719c                ld      a5,32(a1)
   1baae:    00f51723            sh      a5,14(a0)
   1bab2:    799c                ld      a5,48(a1)
   1bab4:    e91c                sd      a5,16(a0)
   1bab6:    61bc                ld      a5,64(a1)
   1bab8:    e93c                sd      a5,80(a0)
   1baba:    5d9c                lw      a5,56(a1)
   1babc:    e53c                sd      a5,72(a0)
   1babe:    65bc                ld      a5,72(a1)
   1bac0:    ed1c                sd      a5,24(a0)
   1bac2:    6dbc                ld      a5,88(a1)
   1bac4:    f51c                sd      a5,40(a0)
   1bac6:    75bc                ld      a5,104(a1)
   1bac8:    fd1c                sd      a5,56(a0)
   1baca:    8082                ret

   1bacc:    002027f3            frrm    a5
   1bad0:    6721                lui     a4,0x8
   1bad2:    0305d893            srli    a7,a1,0x30
   1bad6:    177d                addi    a4,a4,-1
   1bad8:    57fd                li      a5,-1
   1bada:    83c1                srli    a5,a5,0x10
   1badc:    0306d313            srli    t1,a3,0x30
   1bae0:    00e8f8b3            and     a7,a7,a4
   1bae4:    00f5f833            and     a6,a1,a5
   1bae8:    00e37333            and     t1,t1,a4
   1baec:    8ff5                and     a5,a5,a3
   1baee:    91fd                srli    a1,a1,0x3f
   1baf0:    92fd                srli    a3,a3,0x3f
   1baf2:    00e89963            bne     a7,a4,0x1bb04
   1baf6:    00a86733            or      a4,a6,a0
   1bafa:    e739                bnez    a4,0x1bb48
   1bafc:    4705                li      a4,1
   1bafe:    03131763            bne     t1,a7,0x1bb2c
   1bb02:    a019                j       0x1bb08
   1bb04:    00e31563            bne     t1,a4,0x1bb0e
   1bb08:    00c7e733            or      a4,a5,a2
   1bb0c:    e71d                bnez    a4,0x1bb3a
   1bb0e:    4705                li      a4,1
   1bb10:    00689e63            bne     a7,t1,0x1bb2c
   1bb14:    00f81c63            bne     a6,a5,0x1bb2c
   1bb18:    00c51a63            bne     a0,a2,0x1bb2c
   1bb1c:    00d58a63            beq     a1,a3,0x1bb30
   1bb20:    00089663            bnez    a7,0x1bb2c
   1bb24:    00a86733            or      a4,a6,a0
   1bb28:    00e03733            snez    a4,a4
   1bb2c:    853a                mv      a0,a4
   1bb2e:    8082                ret

   1bb30:    4701                li      a4,0
   1bb32:    bfed                j       0x1bb2c
   1bb34:    00186073            csrsi   fflags,16
   1bb38:    a02d                j       0x1bb62
   1bb3a:    6721                lui     a4,0x8
   1bb3c:    177d                addi    a4,a4,-1
   1bb3e:    02e89063            bne     a7,a4,0x1bb5e
   1bb42:    00a86733            or      a4,a6,a0
   1bb46:    cf01                beqz    a4,0x1bb5e
   1bb48:    02f85813            srli    a6,a6,0x2f
   1bb4c:    fe0804e3            beqz    a6,0x1bb34
   1bb50:    6721                lui     a4,0x8
   1bb52:    177d                addi    a4,a4,-1
   1bb54:    4505                li      a0,1
   1bb56:    00e31863            bne     t1,a4,0x1bb66
   1bb5a:    8e5d                or      a2,a2,a5
   1bb5c:    c609                beqz    a2,0x1bb66
   1bb5e:    93bd                srli    a5,a5,0x2f
   1bb60:    dbf1                beqz    a5,0x1bb34
   1bb62:    4505                li      a0,1
   1bb64:    8082                ret

   1bb66:    8082                ret

   1bb68:    002027f3            frrm    a5
   1bb6c:    68a1                lui     a7,0x8
   1bb6e:    0305d813            srli    a6,a1,0x30
   1bb72:    18fd                addi    a7,a7,-1
   1bb74:    57fd                li      a5,-1
   1bb76:    83c1                srli    a5,a5,0x10
   1bb78:    0306d713            srli    a4,a3,0x30
   1bb7c:    01187833            and     a6,a6,a7
   1bb80:    00f5f333            and     t1,a1,a5
   1bb84:    01177733            and     a4,a4,a7
   1bb88:    8ff5                and     a5,a5,a3
   1bb8a:    91fd                srli    a1,a1,0x3f
   1bb8c:    92fd                srli    a3,a3,0x3f
   1bb8e:    01181a63            bne     a6,a7,0x1bba2
   1bb92:    00a368b3            or      a7,t1,a0
   1bb96:    06088d63            beqz    a7,0x1bc10
   1bb9a:    00186073            csrsi   fflags,16
   1bb9e:    57f9                li      a5,-2
   1bba0:    a81d                j       0x1bbd6
   1bba2:    01171663            bne     a4,a7,0x1bbae
   1bba6:    00c7e8b3            or      a7,a5,a2
   1bbaa:    fe0898e3            bnez    a7,0x1bb9a
   1bbae:    06081363            bnez    a6,0x1bc14
   1bbb2:    00a368b3            or      a7,t1,a0
   1bbb6:    0018b893            seqz    a7,a7
   1bbba:    e709                bnez    a4,0x1bbc4
   1bbbc:    00c7ee33            or      t3,a5,a2
   1bbc0:    040e0063            beqz    t3,0x1bc00
   1bbc4:    00089b63            bnez    a7,0x1bbda
   1bbc8:    00d59463            bne     a1,a3,0x1bbd0
   1bbcc:    01075b63            bge     a4,a6,0x1bbe2
   1bbd0:    4785                li      a5,1
   1bbd2:    c191                beqz    a1,0x1bbd6
   1bbd4:    57fd                li      a5,-1
   1bbd6:    853e                mv      a0,a5
   1bbd8:    8082                ret

   1bbda:    57fd                li      a5,-1
   1bbdc:    deed                beqz    a3,0x1bbd6
   1bbde:    4785                li      a5,1
   1bbe0:    bfdd                j       0x1bbd6
   1bbe2:    00e85563            bge     a6,a4,0x1bbec
   1bbe6:    57fd                li      a5,-1
   1bbe8:    f9fd                bnez    a1,0x1bbde
   1bbea:    b7f5                j       0x1bbd6
   1bbec:    fe67e2e3            bltu    a5,t1,0x1bbd0
   1bbf0:    00f31c63            bne     t1,a5,0x1bc08
   1bbf4:    fca66ee3            bltu    a2,a0,0x1bbd0
   1bbf8:    4781                li      a5,0
   1bbfa:    fcc57ee3            bgeu    a0,a2,0x1bbd6
   1bbfe:    b7e5                j       0x1bbe6
   1bc00:    4781                li      a5,0
   1bc02:    fc089ae3            bnez    a7,0x1bbd6
   1bc06:    b7e9                j       0x1bbd0
   1bc08:    fcf36fe3            bltu    t1,a5,0x1bbe6
   1bc0c:    4781                li      a5,0
   1bc0e:    b7e1                j       0x1bbd6
   1bc10:    f9070be3            beq     a4,a6,0x1bba6
   1bc14:    fb55                bnez    a4,0x1bbc8
   1bc16:    4881                li      a7,0
   1bc18:    b755                j       0x1bbbc
   1bc1a:    002027f3            frrm    a5
   1bc1e:    68a1                lui     a7,0x8
   1bc20:    0305d813            srli    a6,a1,0x30
   1bc24:    18fd                addi    a7,a7,-1
   1bc26:    57fd                li      a5,-1
   1bc28:    83c1                srli    a5,a5,0x10
   1bc2a:    0306d713            srli    a4,a3,0x30
   1bc2e:    01187833            and     a6,a6,a7
   1bc32:    00f5f333            and     t1,a1,a5
   1bc36:    01177733            and     a4,a4,a7
   1bc3a:    8ff5                and     a5,a5,a3
   1bc3c:    91fd                srli    a1,a1,0x3f
   1bc3e:    92fd                srli    a3,a3,0x3f
   1bc40:    01181a63            bne     a6,a7,0x1bc54
   1bc44:    00a368b3            or      a7,t1,a0
   1bc48:    06088d63            beqz    a7,0x1bcc2
   1bc4c:    00186073            csrsi   fflags,16
   1bc50:    4789                li      a5,2
   1bc52:    a81d                j       0x1bc88
   1bc54:    01171663            bne     a4,a7,0x1bc60
   1bc58:    00c7e8b3            or      a7,a5,a2
   1bc5c:    fe0898e3            bnez    a7,0x1bc4c
   1bc60:    06081363            bnez    a6,0x1bcc6
   1bc64:    00a368b3            or      a7,t1,a0
   1bc68:    0018b893            seqz    a7,a7
   1bc6c:    e709                bnez    a4,0x1bc76
   1bc6e:    00c7ee33            or      t3,a5,a2
   1bc72:    040e0063            beqz    t3,0x1bcb2
   1bc76:    00089b63            bnez    a7,0x1bc8c
   1bc7a:    00d59463            bne     a1,a3,0x1bc82
   1bc7e:    01075b63            bge     a4,a6,0x1bc94
   1bc82:    4785                li      a5,1
   1bc84:    c191                beqz    a1,0x1bc88
   1bc86:    57fd                li      a5,-1
   1bc88:    853e                mv      a0,a5
   1bc8a:    8082                ret

   1bc8c:    57fd                li      a5,-1
   1bc8e:    deed                beqz    a3,0x1bc88
   1bc90:    4785                li      a5,1
   1bc92:    bfdd                j       0x1bc88
   1bc94:    00e85563            bge     a6,a4,0x1bc9e
   1bc98:    57fd                li      a5,-1
   1bc9a:    f9fd                bnez    a1,0x1bc90
   1bc9c:    b7f5                j       0x1bc88
   1bc9e:    fe67e2e3            bltu    a5,t1,0x1bc82
   1bca2:    00f31c63            bne     t1,a5,0x1bcba
   1bca6:    fca66ee3            bltu    a2,a0,0x1bc82
   1bcaa:    4781                li      a5,0
   1bcac:    fcc57ee3            bgeu    a0,a2,0x1bc88
   1bcb0:    b7e5                j       0x1bc98
   1bcb2:    4781                li      a5,0
   1bcb4:    fc089ae3            bnez    a7,0x1bc88
   1bcb8:    b7e9                j       0x1bc82
   1bcba:    fcf36fe3            bltu    t1,a5,0x1bc98
   1bcbe:    4781                li      a5,0
   1bcc0:    b7e1                j       0x1bc88
   1bcc2:    f9070be3            beq     a4,a6,0x1bc58
   1bcc6:    fb55                bnez    a4,0x1bc7a
   1bcc8:    4881                li      a7,0
   1bcca:    b755                j       0x1bc6e
   1bccc:    711d                addi    sp,sp,-96
   1bcce:    f05a                sd      s6,32(sp)
   1bcd0:    e466                sd      s9,8(sp)
   1bcd2:    ec86                sd      ra,88(sp)
   1bcd4:    e8a2                sd      s0,80(sp)
   1bcd6:    e4a6                sd      s1,72(sp)
   1bcd8:    e0ca                sd      s2,64(sp)
   1bcda:    fc4e                sd      s3,56(sp)
   1bcdc:    f852                sd      s4,48(sp)
   1bcde:    f456                sd      s5,40(sp)
   1bce0:    ec5e                sd      s7,24(sp)
   1bce2:    e862                sd      s8,16(sp)
   1bce4:    8cb2                mv      s9,a2
   1bce6:    8b36                mv      s6,a3
   1bce8:    002029f3            frrm    s3
   1bcec:    6721                lui     a4,0x8
   1bcee:    0305da93            srli    s5,a1,0x30
   1bcf2:    177d                addi    a4,a4,-1
   1bcf4:    01059913            slli    s2,a1,0x10
   1bcf8:    00eaf7b3            and     a5,s5,a4
   1bcfc:    2981                sext.w  s3,s3
   1bcfe:    01095913            srli    s2,s2,0x10
   1bd02:    03f5db93            srli    s7,a1,0x3f
   1bd06:    c79d                beqz    a5,0x1bd34
   1bd08:    00078a9b            sext.w  s5,a5
   1bd0c:    8a2a                mv      s4,a0
   1bd0e:    08ea8463            beq     s5,a4,0x1bd96
   1bd12:    090e                slli    s2,s2,0x3
   1bd14:    03d55713            srli    a4,a0,0x3d
   1bd18:    01276733            or      a4,a4,s2
   1bd1c:    7af1                lui     s5,0xffffc
   1bd1e:    4905                li      s2,1
   1bd20:    194e                slli    s2,s2,0x33
   1bd22:    0a85                addi    s5,s5,1
   1bd24:    01276933            or      s2,a4,s2
   1bd28:    00351a13            slli    s4,a0,0x3
   1bd2c:    9abe                add     s5,s5,a5
   1bd2e:    4c01                li      s8,0
   1bd30:    4481                li      s1,0
   1bd32:    a89d                j       0x1bda8
   1bd34:    00a967b3            or      a5,s2,a0
   1bd38:    842a                mv      s0,a0
   1bd3a:    cbe1                beqz    a5,0x1be0a
   1bd3c:    04090163            beqz    s2,0x1bd7e
   1bd40:    854a                mv      a0,s2
   1bd42:    188010ef            jal     ra,0x1ceca
   1bd46:    2501                sext.w  a0,a0
   1bd48:    ff150713            addi    a4,a0,-15
   1bd4c:    03c00693            li      a3,60
   1bd50:    0007079b            sext.w  a5,a4
   1bd54:    02e6cb63            blt     a3,a4,0x1bd8a
   1bd58:    03d00713            li      a4,61
   1bd5c:    00378a1b            addiw   s4,a5,3
   1bd60:    40f707bb            subw    a5,a4,a5
   1bd64:    01491933            sll     s2,s2,s4
   1bd68:    00f457b3            srl     a5,s0,a5
   1bd6c:    0127e933            or      s2,a5,s2
   1bd70:    01441a33            sll     s4,s0,s4
   1bd74:    7af1                lui     s5,0xffffc
   1bd76:    0ac5                addi    s5,s5,17
   1bd78:    40aa8ab3            sub     s5,s5,a0
   1bd7c:    bf4d                j       0x1bd2e
   1bd7e:    14c010ef            jal     ra,0x1ceca
   1bd82:    2501                sext.w  a0,a0
   1bd84:    04050513            addi    a0,a0,64
   1bd88:    b7c1                j       0x1bd48
   1bd8a:    fc37891b            addiw   s2,a5,-61
   1bd8e:    01241933            sll     s2,s0,s2
   1bd92:    4a01                li      s4,0
   1bd94:    b7c5                j       0x1bd74
   1bd96:    00a967b3            or      a5,s2,a0
   1bd9a:    cfad                beqz    a5,0x1be14
   1bd9c:    01091793            slli    a5,s2,0x10
   1bda0:    4c0d                li      s8,3
   1bda2:    44c1                li      s1,16
   1bda4:    f807c6e3            bltz    a5,0x1bd30
   1bda8:    6621                lui     a2,0x8
   1bdaa:    030b5513            srli    a0,s6,0x30
   1bdae:    167d                addi    a2,a2,-1
   1bdb0:    010b1413            slli    s0,s6,0x10
   1bdb4:    00c57733            and     a4,a0,a2
   1bdb8:    87e6                mv      a5,s9
   1bdba:    8041                srli    s0,s0,0x10
   1bdbc:    03fb5b13            srli    s6,s6,0x3f
   1bdc0:    cf31                beqz    a4,0x1be1c
   1bdc2:    0007051b            sext.w  a0,a4
   1bdc6:    0ac50a63            beq     a0,a2,0x1be7a
   1bdca:    040e                slli    s0,s0,0x3
   1bdcc:    03dcd693            srli    a3,s9,0x3d
   1bdd0:    8ec1                or      a3,a3,s0
   1bdd2:    7571                lui     a0,0xffffc
   1bdd4:    4405                li      s0,1
   1bdd6:    144e                slli    s0,s0,0x33
   1bdd8:    0505                addi    a0,a0,1
   1bdda:    8c55                or      s0,s0,a3
   1bddc:    003c9793            slli    a5,s9,0x3
   1bde0:    953a                add     a0,a0,a4
   1bde2:    4701                li      a4,0
   1bde4:    002c1693            slli    a3,s8,0x2
   1bde8:    8ed9                or      a3,a3,a4
   1bdea:    9aaa                add     s5,s5,a0
   1bdec:    16fd                addi    a3,a3,-1
   1bdee:    45b9                li      a1,14
   1bdf0:    016bc633            xor     a2,s7,s6
   1bdf4:    001a8813            addi    a6,s5,1 # 0xffffffffffffc001
   1bdf8:    0ed5e563            bltu    a1,a3,0x1bee2
   1bdfc:    65f9                lui     a1,0x1e
   1bdfe:    068a                slli    a3,a3,0x2
   1be00:    a4858593            addi    a1,a1,-1464 # 0x1da48
   1be04:    96ae                add     a3,a3,a1
   1be06:    4294                lw      a3,0(a3)
   1be08:    8682                jr      a3
   1be0a:    4901                li      s2,0
   1be0c:    4a01                li      s4,0
   1be0e:    4a81                li      s5,0
   1be10:    4c05                li      s8,1
   1be12:    bf39                j       0x1bd30
   1be14:    4901                li      s2,0
   1be16:    4a01                li      s4,0
   1be18:    4c09                li      s8,2
   1be1a:    bf19                j       0x1bd30
   1be1c:    019467b3            or      a5,s0,s9
   1be20:    c7bd                beqz    a5,0x1be8e
   1be22:    cc1d                beqz    s0,0x1be60
   1be24:    8522                mv      a0,s0
   1be26:    0a4010ef            jal     ra,0x1ceca
   1be2a:    2501                sext.w  a0,a0
   1be2c:    ff150793            addi    a5,a0,-15 # 0xffffffffffffbff1
   1be30:    03c00693            li      a3,60
   1be34:    0007871b            sext.w  a4,a5
   1be38:    02f6cb63            blt     a3,a5,0x1be6e
   1be3c:    03d00693            li      a3,61
   1be40:    0037079b            addiw   a5,a4,3
   1be44:    40e6873b            subw    a4,a3,a4
   1be48:    00f41433            sll     s0,s0,a5
   1be4c:    00ecd733            srl     a4,s9,a4
   1be50:    8c59                or      s0,s0,a4
   1be52:    00fc97b3            sll     a5,s9,a5
   1be56:    7771                lui     a4,0xffffc
   1be58:    0745                addi    a4,a4,17
   1be5a:    40a70533            sub     a0,a4,a0
   1be5e:    b751                j       0x1bde2
   1be60:    8566                mv      a0,s9
   1be62:    068010ef            jal     ra,0x1ceca
   1be66:    2501                sext.w  a0,a0
   1be68:    04050513            addi    a0,a0,64
   1be6c:    b7c1                j       0x1be2c
   1be6e:    fc37041b            addiw   s0,a4,-61
   1be72:    008c9433            sll     s0,s9,s0
   1be76:    4781                li      a5,0
   1be78:    bff9                j       0x1be56
   1be7a:    01946733            or      a4,s0,s9
   1be7e:    cf09                beqz    a4,0x1be98
   1be80:    01041713            slli    a4,s0,0x10
   1be84:    00074e63            bltz    a4,0x1bea0
   1be88:    470d                li      a4,3
   1be8a:    44c1                li      s1,16
   1be8c:    bfa1                j       0x1bde4
   1be8e:    4401                li      s0,0
   1be90:    4781                li      a5,0
   1be92:    4501                li      a0,0
   1be94:    4705                li      a4,1
   1be96:    b7b9                j       0x1bde4
   1be98:    4401                li      s0,0
   1be9a:    4781                li      a5,0
   1be9c:    4709                li      a4,2
   1be9e:    b799                j       0x1bde4
   1bea0:    470d                li      a4,3
   1bea2:    b789                j       0x1bde4
   1bea4:    4405                li      s0,1
   1bea6:    6721                lui     a4,0x8
   1bea8:    143e                slli    s0,s0,0x2f
   1beaa:    4501                li      a0,0
   1beac:    177d                addi    a4,a4,-1
   1beae:    4601                li      a2,0
   1beb0:    44c1                li      s1,16
   1beb2:    0442                slli    s0,s0,0x10
   1beb4:    1746                slli    a4,a4,0x31
   1beb6:    8305                srli    a4,a4,0x1
   1beb8:    8041                srli    s0,s0,0x10
   1beba:    03f61593            slli    a1,a2,0x3f
   1bebe:    8c59                or      s0,s0,a4
   1bec0:    8dc1                or      a1,a1,s0
   1bec2:    c099                beqz    s1,0x1bec8
   1bec4:    0014a073            csrs    fflags,s1
   1bec8:    60e6                ld      ra,88(sp)
   1beca:    6446                ld      s0,80(sp)
   1becc:    64a6                ld      s1,72(sp)
   1bece:    6906                ld      s2,64(sp)
   1bed0:    79e2                ld      s3,56(sp)
   1bed2:    7a42                ld      s4,48(sp)
   1bed4:    7aa2                ld      s5,40(sp)
   1bed6:    7b02                ld      s6,32(sp)
   1bed8:    6be2                ld      s7,24(sp)
   1beda:    6c42                ld      s8,16(sp)
   1bedc:    6ca2                ld      s9,8(sp)
   1bede:    6125                addi    sp,sp,96
   1bee0:    8082                ret

   1bee2:    557d                li      a0,-1
   1bee4:    01490b33            add     s6,s2,s4
   1bee8:    008783b3            add     t2,a5,s0
   1beec:    9101                srli    a0,a0,0x20
   1beee:    020a5f13            srli    t5,s4,0x20
   1bef2:    0207d693            srli    a3,a5,0x20
   1bef6:    014b3fb3            sltu    t6,s6,s4
   1befa:    00f3b2b3            sltu    t0,t2,a5
   1befe:    00aa7a33            and     s4,s4,a0
   1bf02:    8fe9                and     a5,a5,a0
   1bf04:    034788b3            mul     a7,a5,s4
   1bf08:    000f8e1b            sext.w  t3,t6
   1bf0c:    0002859b            sext.w  a1,t0
   1bf10:    02ff07b3            mul     a5,t5,a5
   1bf14:    02df0733            mul     a4,t5,a3
   1bf18:    034686b3            mul     a3,a3,s4
   1bf1c:    0208da13            srli    s4,a7,0x20
   1bf20:    96be                add     a3,a3,a5
   1bf22:    9a36                add     s4,s4,a3
   1bf24:    00fa7563            bgeu    s4,a5,0x1bf2e
   1bf28:    4785                li      a5,1
   1bf2a:    1782                slli    a5,a5,0x20
   1bf2c:    973e                add     a4,a4,a5
   1bf2e:    020a5f13            srli    t5,s4,0x20
   1bf32:    9f3a                add     t5,t5,a4
   1bf34:    577d                li      a4,-1
   1bf36:    9301                srli    a4,a4,0x20
   1bf38:    00ea7533            and     a0,s4,a4
   1bf3c:    00e8f8b3            and     a7,a7,a4
   1bf40:    1502                slli    a0,a0,0x20
   1bf42:    00eb77b3            and     a5,s6,a4
   1bf46:    020b5a13            srli    s4,s6,0x20
   1bf4a:    00e3f733            and     a4,t2,a4
   1bf4e:    9546                add     a0,a0,a7
   1bf50:    0203d893            srli    a7,t2,0x20
   1bf54:    02e786b3            mul     a3,a5,a4
   1bf58:    02ea0733            mul     a4,s4,a4
   1bf5c:    031a0a33            mul     s4,s4,a7
   1bf60:    02f888b3            mul     a7,a7,a5
   1bf64:    0206d793            srli    a5,a3,0x20
   1bf68:    98ba                add     a7,a7,a4
   1bf6a:    97c6                add     a5,a5,a7
   1bf6c:    00e7f563            bgeu    a5,a4,0x1bf76
   1bf70:    4705                li      a4,1
   1bf72:    1702                slli    a4,a4,0x20
   1bf74:    9a3a                add     s4,s4,a4
   1bf76:    577d                li      a4,-1
   1bf78:    9301                srli    a4,a4,0x20
   1bf7a:    0207d313            srli    t1,a5,0x20
   1bf7e:    8ff9                and     a5,a5,a4
   1bf80:    1782                slli    a5,a5,0x20
   1bf82:    8ef9                and     a3,a3,a4
   1bf84:    02045b93            srli    s7,s0,0x20
   1bf88:    00d788b3            add     a7,a5,a3
   1bf8c:    8c79                and     s0,s0,a4
   1bf8e:    02095793            srli    a5,s2,0x20
   1bf92:    00e97933            and     s2,s2,a4
   1bf96:    02878eb3            mul     t4,a5,s0
   1bf9a:    03240c33            mul     s8,s0,s2
   1bf9e:    037787b3            mul     a5,a5,s7
   1bfa2:    032b8bb3            mul     s7,s7,s2
   1bfa6:    020c5913            srli    s2,s8,0x20
   1bfaa:    9bf6                add     s7,s7,t4
   1bfac:    995e                add     s2,s2,s7
   1bfae:    01d97563            bgeu    s2,t4,0x1bfb8
   1bfb2:    4705                li      a4,1
   1bfb4:    1702                slli    a4,a4,0x20
   1bfb6:    97ba                add     a5,a5,a4
   1bfb8:    02095693            srli    a3,s2,0x20
   1bfbc:    97b6                add     a5,a5,a3
   1bfbe:    56fd                li      a3,-1
   1bfc0:    9281                srli    a3,a3,0x20
   1bfc2:    00d97733            and     a4,s2,a3
   1bfc6:    00dc7c33            and     s8,s8,a3
   1bfca:    01e886b3            add     a3,a7,t5
   1bfce:    01e6b8b3            sltu    a7,a3,t5
   1bfd2:    9346                add     t1,t1,a7
   1bfd4:    40b005bb            negw    a1,a1
   1bfd8:    9a1a                add     s4,s4,t1
   1bfda:    0165f5b3            and     a1,a1,s6
   1bfde:    41c0033b            negw    t1,t3
   1bfe2:    95d2                add     a1,a1,s4
   1bfe4:    011a38b3            sltu    a7,s4,a7
   1bfe8:    007373b3            and     t2,t1,t2
   1bfec:    005ff433            and     s0,t6,t0
   1bff0:    00b38333            add     t1,t2,a1
   1bff4:    9446                add     s0,s0,a7
   1bff6:    0145ba33            sltu    s4,a1,s4
   1bffa:    9452                add     s0,s0,s4
   1bffc:    00b335b3            sltu    a1,t1,a1
   1c000:    40a68e33            sub     t3,a3,a0
   1c004:    41e308b3            sub     a7,t1,t5
   1c008:    1702                slli    a4,a4,0x20
   1c00a:    95a2                add     a1,a1,s0
   1c00c:    01c6b433            sltu    s0,a3,t3
   1c010:    01133eb3            sltu    t4,t1,a7
   1c014:    9762                add     a4,a4,s8
   1c016:    408888b3            sub     a7,a7,s0
   1c01a:    4401                li      s0,0
   1c01c:    01c6f663            bgeu    a3,t3,0x1c028
   1c020:    406f0333            sub     t1,t5,t1
   1c024:    00133413            seqz    s0,t1
   1c028:    01d46333            or      t1,s0,t4
   1c02c:    00f58433            add     s0,a1,a5
   1c030:    40ee05b3            sub     a1,t3,a4
   1c034:    40f886b3            sub     a3,a7,a5
   1c038:    00be37b3            sltu    a5,t3,a1
   1c03c:    00d8b8b3            sltu    a7,a7,a3
   1c040:    40f707b3            sub     a5,a4,a5
   1c044:    4e81                li      t4,0
   1c046:    00be7463            bgeu    t3,a1,0x1c04e
   1c04a:    0016be93            seqz    t4,a3
   1c04e:    96be                add     a3,a3,a5
   1c050:    00e6b733            sltu    a4,a3,a4
   1c054:    943a                add     s0,s0,a4
   1c056:    40640433            sub     s0,s0,t1
   1c05a:    011ee8b3            or      a7,t4,a7
   1c05e:    41140433            sub     s0,s0,a7
   1c062:    0336d793            srli    a5,a3,0x33
   1c066:    0436                slli    s0,s0,0xd
   1c068:    8c5d                or      s0,s0,a5
   1c06a:    00d59793            slli    a5,a1,0xd
   1c06e:    8fc9                or      a5,a5,a0
   1c070:    00f037b3            snez    a5,a5
   1c074:    91cd                srli    a1,a1,0x33
   1c076:    8fcd                or      a5,a5,a1
   1c078:    06b6                slli    a3,a3,0xd
   1c07a:    00b41713            slli    a4,s0,0xb
   1c07e:    8fd5                or      a5,a5,a3
   1c080:    06075a63            bgez    a4,0x1c0f4
   1c084:    0017d713            srli    a4,a5,0x1
   1c088:    8b85                andi    a5,a5,1
   1c08a:    03f41513            slli    a0,s0,0x3f
   1c08e:    8fd9                or      a5,a5,a4
   1c090:    8fc9                or      a5,a5,a0
   1c092:    8005                srli    s0,s0,0x1
   1c094:    6711                lui     a4,0x4
   1c096:    177d                addi    a4,a4,-1
   1c098:    9742                add     a4,a4,a6
   1c09a:    0ce05263            blez    a4,0x1c15e
   1c09e:    0077f693            andi    a3,a5,7
   1c0a2:    c2a5                beqz    a3,0x1c102
   1c0a4:    4689                li      a3,2
   1c0a6:    0014e493            ori     s1,s1,1
   1c0aa:    04d98b63            beq     s3,a3,0x1c100
   1c0ae:    468d                li      a3,3
   1c0b0:    04d98463            beq     s3,a3,0x1c0f8
   1c0b4:    04099763            bnez    s3,0x1c102
   1c0b8:    00f7f693            andi    a3,a5,15
   1c0bc:    4591                li      a1,4
   1c0be:    04b68263            beq     a3,a1,0x1c102
   1c0c2:    00478693            addi    a3,a5,4
   1c0c6:    00f6b7b3            sltu    a5,a3,a5
   1c0ca:    943e                add     s0,s0,a5
   1c0cc:    87b6                mv      a5,a3
   1c0ce:    a815                j       0x1c102
   1c0d0:    865e                mv      a2,s7
   1c0d2:    844a                mv      s0,s2
   1c0d4:    87d2                mv      a5,s4
   1c0d6:    8762                mv      a4,s8
   1c0d8:    4689                li      a3,2
   1c0da:    1ed70063            beq     a4,a3,0x1c2ba
   1c0de:    468d                li      a3,3
   1c0e0:    1ed70263            beq     a4,a3,0x1c2c4
   1c0e4:    4685                li      a3,1
   1c0e6:    fad717e3            bne     a4,a3,0x1c094
   1c0ea:    4401                li      s0,0
   1c0ec:    4501                li      a0,0
   1c0ee:    a2c9                j       0x1c2b0
   1c0f0:    865a                mv      a2,s6
   1c0f2:    b7dd                j       0x1c0d8
   1c0f4:    8856                mv      a6,s5
   1c0f6:    bf79                j       0x1c094
   1c0f8:    e609                bnez    a2,0x1c102
   1c0fa:    00878693            addi    a3,a5,8
   1c0fe:    b7e1                j       0x1c0c6
   1c100:    fe6d                bnez    a2,0x1c0fa
   1c102:    00b41693            slli    a3,s0,0xb
   1c106:    0006d863            bgez    a3,0x1c116
   1c10a:    577d                li      a4,-1
   1c10c:    1752                slli    a4,a4,0x34
   1c10e:    177d                addi    a4,a4,-1
   1c110:    8c79                and     s0,s0,a4
   1c112:    6711                lui     a4,0x4
   1c114:    9742                add     a4,a4,a6
   1c116:    66a1                lui     a3,0x8
   1c118:    ffe68593            addi    a1,a3,-2 # 0x7ffe
   1c11c:    00e5c963            blt     a1,a4,0x1c12e
   1c120:    0037d513            srli    a0,a5,0x3
   1c124:    03d41793            slli    a5,s0,0x3d
   1c128:    8d5d                or      a0,a0,a5
   1c12a:    800d                srli    s0,s0,0x3
   1c12c:    b359                j       0x1beb2
   1c12e:    4789                li      a5,2
   1c130:    02f98263            beq     s3,a5,0x1c154
   1c134:    478d                li      a5,3
   1c136:    fff68713            addi    a4,a3,-1
   1c13a:    00f98a63            beq     s3,a5,0x1c14e
   1c13e:    00098963            beqz    s3,0x1c150
   1c142:    557d                li      a0,-1
   1c144:    872e                mv      a4,a1
   1c146:    0054e493            ori     s1,s1,5
   1c14a:    842a                mv      s0,a0
   1c14c:    b39d                j       0x1beb2
   1c14e:    fa75                bnez    a2,0x1c142
   1c150:    4501                li      a0,0
   1c152:    bfd5                j       0x1c146
   1c154:    d67d                beqz    a2,0x1c142
   1c156:    4501                li      a0,0
   1c158:    fff68713            addi    a4,a3,-1
   1c15c:    b7ed                j       0x1c146
   1c15e:    4685                li      a3,1
   1c160:    e731                bnez    a4,0x1c1ac
   1c162:    0077f593            andi    a1,a5,7
   1c166:    86a2                mv      a3,s0
   1c168:    cd95                beqz    a1,0x1c1a4
   1c16a:    4689                li      a3,2
   1c16c:    0014e493            ori     s1,s1,1
   1c170:    02d98863            beq     s3,a3,0x1c1a0
   1c174:    468d                li      a3,3
   1c176:    02d98063            beq     s3,a3,0x1c196
   1c17a:    86a2                mv      a3,s0
   1c17c:    02099463            bnez    s3,0x1c1a4
   1c180:    00f7f593            andi    a1,a5,15
   1c184:    4511                li      a0,4
   1c186:    00a58f63            beq     a1,a0,0x1c1a4
   1c18a:    ffc7b693            sltiu   a3,a5,-4
   1c18e:    0016c693            xori    a3,a3,1
   1c192:    96a2                add     a3,a3,s0
   1c194:    a801                j       0x1c1a4
   1c196:    86a2                mv      a3,s0
   1c198:    e611                bnez    a2,0x1c1a4
   1c19a:    ff87b693            sltiu   a3,a5,-8
   1c19e:    bfc5                j       0x1c18e
   1c1a0:    86a2                mv      a3,s0
   1c1a2:    fe65                bnez    a2,0x1c19a
   1c1a4:    92d1                srli    a3,a3,0x34
   1c1a6:    0016c693            xori    a3,a3,1
   1c1aa:    8a85                andi    a3,a3,1
   1c1ac:    4805                li      a6,1
   1c1ae:    40e80833            sub     a6,a6,a4
   1c1b2:    07400713            li      a4,116
   1c1b6:    0d074663            blt     a4,a6,0x1c282
   1c1ba:    03f00593            li      a1,63
   1c1be:    0008071b            sext.w  a4,a6
   1c1c2:    0505cb63            blt     a1,a6,0x1c218
   1c1c6:    04000593            li      a1,64
   1c1ca:    9d99                subw    a1,a1,a4
   1c1cc:    00b41533            sll     a0,s0,a1
   1c1d0:    00e7d833            srl     a6,a5,a4
   1c1d4:    00b797b3            sll     a5,a5,a1
   1c1d8:    01056533            or      a0,a0,a6
   1c1dc:    00f037b3            snez    a5,a5
   1c1e0:    8d5d                or      a0,a0,a5
   1c1e2:    00e45433            srl     s0,s0,a4
   1c1e6:    00757793            andi    a5,a0,7
   1c1ea:    c3ad                beqz    a5,0x1c24c
   1c1ec:    4789                li      a5,2
   1c1ee:    0014e493            ori     s1,s1,1
   1c1f2:    04f98c63            beq     s3,a5,0x1c24a
   1c1f6:    478d                li      a5,3
   1c1f8:    04f98563            beq     s3,a5,0x1c242
   1c1fc:    04099863            bnez    s3,0x1c24c
   1c200:    00f57793            andi    a5,a0,15
   1c204:    4711                li      a4,4
   1c206:    04e78363            beq     a5,a4,0x1c24c
   1c20a:    00450793            addi    a5,a0,4
   1c20e:    00a7b533            sltu    a0,a5,a0
   1c212:    942a                add     s0,s0,a0
   1c214:    853e                mv      a0,a5
   1c216:    a81d                j       0x1c24c
   1c218:    fc07051b            addiw   a0,a4,-64
   1c21c:    04000893            li      a7,64
   1c220:    00a45533            srl     a0,s0,a0
   1c224:    4581                li      a1,0
   1c226:    01180863            beq     a6,a7,0x1c236
   1c22a:    08000593            li      a1,128
   1c22e:    40e5873b            subw    a4,a1,a4
   1c232:    00e415b3            sll     a1,s0,a4
   1c236:    8fcd                or      a5,a5,a1
   1c238:    00f037b3            snez    a5,a5
   1c23c:    8d5d                or      a0,a0,a5
   1c23e:    4401                li      s0,0
   1c240:    b75d                j       0x1c1e6
   1c242:    e609                bnez    a2,0x1c24c
   1c244:    00850793            addi    a5,a0,8
   1c248:    b7d9                j       0x1c20e
   1c24a:    fe6d                bnez    a2,0x1c244
   1c24c:    00c41793            slli    a5,s0,0xc
   1c250:    0007dc63            bgez    a5,0x1c268
   1c254:    0014e493            ori     s1,s1,1
   1c258:    4401                li      s0,0
   1c25a:    4501                li      a0,0
   1c25c:    4705                li      a4,1
   1c25e:    c4068ae3            beqz    a3,0x1beb2
   1c262:    0024e493            ori     s1,s1,2
   1c266:    b1b1                j       0x1beb2
   1c268:    03d41793            slli    a5,s0,0x3d
   1c26c:    810d                srli    a0,a0,0x3
   1c26e:    8d5d                or      a0,a0,a5
   1c270:    800d                srli    s0,s0,0x3
   1c272:    4701                li      a4,0
   1c274:    c2068fe3            beqz    a3,0x1beb2
   1c278:    0014f793            andi    a5,s1,1
   1c27c:    c2078be3            beqz    a5,0x1beb2
   1c280:    b7cd                j       0x1c262
   1c282:    0087e533            or      a0,a5,s0
   1c286:    c115                beqz    a0,0x1c2aa
   1c288:    4789                li      a5,2
   1c28a:    0014e493            ori     s1,s1,1
   1c28e:    02f98363            beq     s3,a5,0x1c2b4
   1c292:    478d                li      a5,3
   1c294:    00f98763            beq     s3,a5,0x1c2a2
   1c298:    4795                li      a5,5
   1c29a:    00098663            beqz    s3,0x1c2a6
   1c29e:    4785                li      a5,1
   1c2a0:    a019                j       0x1c2a6
   1c2a2:    47a5                li      a5,9
   1c2a4:    fe6d                bnez    a2,0x1c29e
   1c2a6:    0037d513            srli    a0,a5,0x3
   1c2aa:    0024e493            ori     s1,s1,2
   1c2ae:    4401                li      s0,0
   1c2b0:    4701                li      a4,0
   1c2b2:    b101                j       0x1beb2
   1c2b4:    47a5                li      a5,9
   1c2b6:    fa65                bnez    a2,0x1c2a6
   1c2b8:    b7dd                j       0x1c29e
   1c2ba:    6721                lui     a4,0x8
   1c2bc:    4401                li      s0,0
   1c2be:    4501                li      a0,0
   1c2c0:    177d                addi    a4,a4,-1
   1c2c2:    bec5                j       0x1beb2
   1c2c4:    4405                li      s0,1
   1c2c6:    6721                lui     a4,0x8
   1c2c8:    143e                slli    s0,s0,0x2f
   1c2ca:    4501                li      a0,0
   1c2cc:    177d                addi    a4,a4,-1
   1c2ce:    4601                li      a2,0
   1c2d0:    b6cd                j       0x1beb2
   1c2d2:    7179                addi    sp,sp,-48
   1c2d4:    f406                sd      ra,40(sp)
   1c2d6:    f022                sd      s0,32(sp)
   1c2d8:    ec26                sd      s1,24(sp)
   1c2da:    e84a                sd      s2,16(sp)
   1c2dc:    e44e                sd      s3,8(sp)
   1c2de:    e052                sd      s4,0(sp)
   1c2e0:    002024f3            frrm    s1
   1c2e4:    52fd                li      t0,-1
   1c2e6:    0102d293            srli    t0,t0,0x10
   1c2ea:    6fa1                lui     t6,0x8
   1c2ec:    0305d313            srli    t1,a1,0x30
   1c2f0:    1ffd                addi    t6,t6,-1
   1c2f2:    0306d893            srli    a7,a3,0x30
   1c2f6:    03f5d413            srli    s0,a1,0x3f
   1c2fa:    03f6de13            srli    t3,a3,0x3f
   1c2fe:    0055f5b3            and     a1,a1,t0
   1c302:    0056f6b3            and     a3,a3,t0
   1c306:    03d55813            srli    a6,a0,0x3d
   1c30a:    01f37333            and     t1,t1,t6
   1c30e:    058e                slli    a1,a1,0x3
   1c310:    00351f13            slli    t5,a0,0x3
   1c314:    068e                slli    a3,a3,0x3
   1c316:    03d65513            srli    a0,a2,0x3d
   1c31a:    01f8f8b3            and     a7,a7,t6
   1c31e:    2481                sext.w  s1,s1
   1c320:    899a                mv      s3,t1
   1c322:    00b865b3            or      a1,a6,a1
   1c326:    8ec9                or      a3,a3,a0
   1c328:    00361e93            slli    t4,a2,0x3
   1c32c:    01f89563            bne     a7,t6,0x1c336
   1c330:    01d6e7b3            or      a5,a3,t4
   1c334:    e399                bnez    a5,0x1c33a
   1c336:    001e4e13            xori    t3,t3,1
   1c33a:    411307bb            subw    a5,t1,a7
   1c33e:    6521                lui     a0,0x8
   1c340:    0007871b            sext.w  a4,a5
   1c344:    fff50613            addi    a2,a0,-1 # 0x7fff
   1c348:    308e1763            bne     t3,s0,0x1c656
   1c34c:    0ee05e63            blez    a4,0x1c448
   1c350:    08089263            bnez    a7,0x1c3d4
   1c354:    01d6e733            or      a4,a3,t4
   1c358:    ef19                bnez    a4,0x1c376
   1c35a:    6ec31a63            bne     t1,a2,0x1ca4e
   1c35e:    01e5eeb3            or      t4,a1,t5
   1c362:    720e8763            beqz    t4,0x1ca90
   1c366:    00d59793            slli    a5,a1,0xd
   1c36a:    86ae                mv      a3,a1
   1c36c:    8efa                mv      t4,t5
   1c36e:    0407c663            bltz    a5,0x1c3ba
   1c372:    47c1                li      a5,16
   1c374:    aadd                j       0x1c56a
   1c376:    fff7871b            addiw   a4,a5,-1
   1c37a:    e331                bnez    a4,0x1c3be
   1c37c:    9efa                add     t4,t4,t5
   1c37e:    96ae                add     a3,a3,a1
   1c380:    01eebf33            sltu    t5,t4,t5
   1c384:    96fa                add     a3,a3,t5
   1c386:    00c69793            slli    a5,a3,0xc
   1c38a:    6a07dd63            bgez    a5,0x1ca44
   1c38e:    67a1                lui     a5,0x8
   1c390:    0985                addi    s3,s3,1
   1c392:    fff78713            addi    a4,a5,-1 # 0x7fff
   1c396:    28e98d63            beq     s3,a4,0x1c630
   1c39a:    557d                li      a0,-1
   1c39c:    154e                slli    a0,a0,0x33
   1c39e:    157d                addi    a0,a0,-1
   1c3a0:    8d75                and     a0,a0,a3
   1c3a2:    001ed593            srli    a1,t4,0x1
   1c3a6:    001efe93            andi    t4,t4,1
   1c3aa:    03f51693            slli    a3,a0,0x3f
   1c3ae:    01d5eeb3            or      t4,a1,t4
   1c3b2:    01d6eeb3            or      t4,a3,t4
   1c3b6:    00155693            srli    a3,a0,0x1
   1c3ba:    4701                li      a4,0
   1c3bc:    a41d                j       0x1c5e2
   1c3be:    02c31063            bne     t1,a2,0x1c3de
   1c3c2:    01e5eeb3            or      t4,a1,t5
   1c3c6:    6c0e8563            beqz    t4,0x1ca90
   1c3ca:    00d59793            slli    a5,a1,0xd
   1c3ce:    86ae                mv      a3,a1
   1c3d0:    8efa                mv      t4,t5
   1c3d2:    a851                j       0x1c466
   1c3d4:    fec307e3            beq     t1,a2,0x1c3c2
   1c3d8:    4785                li      a5,1
   1c3da:    17ce                slli    a5,a5,0x33
   1c3dc:    8edd                or      a3,a3,a5
   1c3de:    07400793            li      a5,116
   1c3e2:    04e7ce63            blt     a5,a4,0x1c43e
   1c3e6:    03f00793            li      a5,63
   1c3ea:    02e7c363            blt     a5,a4,0x1c410
   1c3ee:    04000613            li      a2,64
   1c3f2:    9e19                subw    a2,a2,a4
   1c3f4:    00c697b3            sll     a5,a3,a2
   1c3f8:    00eed533            srl     a0,t4,a4
   1c3fc:    00ce9eb3            sll     t4,t4,a2
   1c400:    8fc9                or      a5,a5,a0
   1c402:    01d03eb3            snez    t4,t4
   1c406:    01d7eeb3            or      t4,a5,t4
   1c40a:    00e6d6b3            srl     a3,a3,a4
   1c40e:    b7bd                j       0x1c37c
   1c410:    fc07079b            addiw   a5,a4,-64
   1c414:    04000513            li      a0,64
   1c418:    00f6d7b3            srl     a5,a3,a5
   1c41c:    4601                li      a2,0
   1c41e:    00a70863            beq     a4,a0,0x1c42e
   1c422:    08000613            li      a2,128
   1c426:    40e6073b            subw    a4,a2,a4
   1c42a:    00e69633            sll     a2,a3,a4
   1c42e:    01d66eb3            or      t4,a2,t4
   1c432:    01d03eb3            snez    t4,t4
   1c436:    01d7eeb3            or      t4,a5,t4
   1c43a:    4681                li      a3,0
   1c43c:    b781                j       0x1c37c
   1c43e:    01d6eeb3            or      t4,a3,t4
   1c442:    01d03eb3            snez    t4,t4
   1c446:    bfd5                j       0x1c43a
   1c448:    cf79                beqz    a4,0x1c526
   1c44a:    08031263            bnez    t1,0x1c4ce
   1c44e:    01e5e533            or      a0,a1,t5
   1c452:    ed11                bnez    a0,0x1c46e
   1c454:    89c6                mv      s3,a7
   1c456:    5ec89763            bne     a7,a2,0x1ca44
   1c45a:    01d6e7b3            or      a5,a3,t4
   1c45e:    62078163            beqz    a5,0x1ca80
   1c462:    00d69793            slli    a5,a3,0xd
   1c466:    4701                li      a4,0
   1c468:    1607cd63            bltz    a5,0x1c5e2
   1c46c:    b719                j       0x1c372
   1c46e:    557d                li      a0,-1
   1c470:    00a71a63            bne     a4,a0,0x1c484
   1c474:    9f76                add     t5,t5,t4
   1c476:    96ae                add     a3,a3,a1
   1c478:    01df3eb3            sltu    t4,t5,t4
   1c47c:    96f6                add     a3,a3,t4
   1c47e:    8efa                mv      t4,t5
   1c480:    89c6                mv      s3,a7
   1c482:    b711                j       0x1c386
   1c484:    04c88763            beq     a7,a2,0x1c4d2
   1c488:    fff7c793            not     a5,a5
   1c48c:    0007881b            sext.w  a6,a5
   1c490:    07400793            li      a5,116
   1c494:    0907c463            blt     a5,a6,0x1c51c
   1c498:    03f00793            li      a5,63
   1c49c:    0507c963            blt     a5,a6,0x1c4ee
   1c4a0:    04000513            li      a0,64
   1c4a4:    4105053b            subw    a0,a0,a6
   1c4a8:    010f5733            srl     a4,t5,a6
   1c4ac:    00a597b3            sll     a5,a1,a0
   1c4b0:    00af1f33            sll     t5,t5,a0
   1c4b4:    8fd9                or      a5,a5,a4
   1c4b6:    01e03f33            snez    t5,t5
   1c4ba:    01e7ef33            or      t5,a5,t5
   1c4be:    0105d833            srl     a6,a1,a6
   1c4c2:    9f76                add     t5,t5,t4
   1c4c4:    9836                add     a6,a6,a3
   1c4c6:    01df36b3            sltu    a3,t5,t4
   1c4ca:    96c2                add     a3,a3,a6
   1c4cc:    bf4d                j       0x1c47e
   1c4ce:    00c89a63            bne     a7,a2,0x1c4e2
   1c4d2:    01d6e7b3            or      a5,a3,t4
   1c4d6:    5a078963            beqz    a5,0x1ca88
   1c4da:    00d69793            slli    a5,a3,0xd
   1c4de:    89c6                mv      s3,a7
   1c4e0:    b759                j       0x1c466
   1c4e2:    40f0083b            negw    a6,a5
   1c4e6:    4785                li      a5,1
   1c4e8:    17ce                slli    a5,a5,0x33
   1c4ea:    8ddd                or      a1,a1,a5
   1c4ec:    b755                j       0x1c490
   1c4ee:    fc08079b            addiw   a5,a6,-64
   1c4f2:    04000713            li      a4,64
   1c4f6:    00f5d7b3            srl     a5,a1,a5
   1c4fa:    4501                li      a0,0
   1c4fc:    00e80863            beq     a6,a4,0x1c50c
   1c500:    08000513            li      a0,128
   1c504:    4105083b            subw    a6,a0,a6
   1c508:    01059533            sll     a0,a1,a6
   1c50c:    01e56f33            or      t5,a0,t5
   1c510:    01e03f33            snez    t5,t5
   1c514:    01e7ef33            or      t5,a5,t5
   1c518:    4801                li      a6,0
   1c51a:    b765                j       0x1c4c2
   1c51c:    01e5ef33            or      t5,a1,t5
   1c520:    01e03f33            snez    t5,t5
   1c524:    bfd5                j       0x1c518
   1c526:    00130e13            addi    t3,t1,1
   1c52a:    ffe50793            addi    a5,a0,-2
   1c52e:    00fe7533            and     a0,t3,a5
   1c532:    e941                bnez    a0,0x1c5c2
   1c534:    01e5e533            or      a0,a1,t5
   1c538:    04031163            bnez    t1,0x1c57a
   1c53c:    50050663            beqz    a0,0x1ca48
   1c540:    01d6e7b3            or      a5,a3,t4
   1c544:    2c078563            beqz    a5,0x1c80e
   1c548:    9efa                add     t4,t4,t5
   1c54a:    00d58833            add     a6,a1,a3
   1c54e:    01eeb6b3            sltu    a3,t4,t5
   1c552:    00d805b3            add     a1,a6,a3
   1c556:    00c59793            slli    a5,a1,0xc
   1c55a:    4e07d863            bgez    a5,0x1ca4a
   1c55e:    56fd                li      a3,-1
   1c560:    16ce                slli    a3,a3,0x33
   1c562:    16fd                addi    a3,a3,-1
   1c564:    8eed                and     a3,a3,a1
   1c566:    4781                li      a5,0
   1c568:    4985                li      s3,1
   1c56a:    007ef613            andi    a2,t4,7
   1c56e:    ea59                bnez    a2,0x1c604
   1c570:    38070163            beqz    a4,0x1c8f2
   1c574:    0017f713            andi    a4,a5,1
   1c578:    ab1d                j       0x1caae
   1c57a:    02c31f63            bne     t1,a2,0x1c5b8
   1c57e:    56050663            beqz    a0,0x1caea
   1c582:    0325d793            srli    a5,a1,0x32
   1c586:    8b85                andi    a5,a5,1
   1c588:    0017b793            seqz    a5,a5
   1c58c:    0792                slli    a5,a5,0x4
   1c58e:    00689c63            bne     a7,t1,0x1c5a6
   1c592:    01d6e633            or      a2,a3,t4
   1c596:    54060763            beqz    a2,0x1cae4
   1c59a:    00d69613            slli    a2,a3,0xd
   1c59e:    00064363            bltz    a2,0x1c5a4
   1c5a2:    47c1                li      a5,16
   1c5a4:    c519                beqz    a0,0x1c5b2
   1c5a6:    01d6e6b3            or      a3,a3,t4
   1c5aa:    32069e63            bnez    a3,0x1c8e6
   1c5ae:    86ae                mv      a3,a1
   1c5b0:    8efa                mv      t4,t5
   1c5b2:    69a1                lui     s3,0x8
   1c5b4:    19fd                addi    s3,s3,-1
   1c5b6:    bf55                j       0x1c56a
   1c5b8:    4781                li      a5,0
   1c5ba:    fec895e3            bne     a7,a2,0x1c5a4
   1c5be:    4781                li      a5,0
   1c5c0:    bfc9                j       0x1c592
   1c5c2:    02ce0263            beq     t3,a2,0x1c5e6
   1c5c6:    9efa                add     t4,t4,t5
   1c5c8:    96ae                add     a3,a3,a1
   1c5ca:    01eebf33            sltu    t5,t4,t5
   1c5ce:    9f36                add     t5,t5,a3
   1c5d0:    03ff1693            slli    a3,t5,0x3f
   1c5d4:    001ede93            srli    t4,t4,0x1
   1c5d8:    01d6eeb3            or      t4,a3,t4
   1c5dc:    89f2                mv      s3,t3
   1c5de:    001f5693            srli    a3,t5,0x1
   1c5e2:    4781                li      a5,0
   1c5e4:    b759                j       0x1c56a
   1c5e6:    c489                beqz    s1,0x1c5f0
   1c5e8:    468d                li      a3,3
   1c5ea:    00d49563            bne     s1,a3,0x1c5f4
   1c5ee:    e419                bnez    s0,0x1c5fc
   1c5f0:    89f2                mv      s3,t3
   1c5f2:    a0a1                j       0x1c63a
   1c5f4:    4689                li      a3,2
   1c5f6:    00d49363            bne     s1,a3,0x1c5fc
   1c5fa:    f87d                bnez    s0,0x1c5f0
   1c5fc:    56fd                li      a3,-1
   1c5fe:    5efd                li      t4,-1
   1c600:    89be                mv      s3,a5
   1c602:    4795                li      a5,5
   1c604:    4609                li      a2,2
   1c606:    0017e793            ori     a5,a5,1
   1c60a:    4ac48163            beq     s1,a2,0x1caac
   1c60e:    460d                li      a2,3
   1c610:    48c48a63            beq     s1,a2,0x1caa4
   1c614:    48049d63            bnez    s1,0x1caae
   1c618:    00fef613            andi    a2,t4,15
   1c61c:    4591                li      a1,4
   1c61e:    48b60863            beq     a2,a1,0x1caae
   1c622:    004e8593            addi    a1,t4,4
   1c626:    01d5beb3            sltu    t4,a1,t4
   1c62a:    96f6                add     a3,a3,t4
   1c62c:    8eae                mv      t4,a1
   1c62e:    a141                j       0x1caae
   1c630:    c489                beqz    s1,0x1c63a
   1c632:    470d                li      a4,3
   1c634:    00e49763            bne     s1,a4,0x1c642
   1c638:    e809                bnez    s0,0x1c64a
   1c63a:    4681                li      a3,0
   1c63c:    4e81                li      t4,0
   1c63e:    4795                li      a5,5
   1c640:    ac4d                j       0x1c8f2
   1c642:    4709                li      a4,2
   1c644:    00e49363            bne     s1,a4,0x1c64a
   1c648:    f86d                bnez    s0,0x1c63a
   1c64a:    56fd                li      a3,-1
   1c64c:    5efd                li      t4,-1
   1c64e:    ffe78993            addi    s3,a5,-2
   1c652:    4701                li      a4,0
   1c654:    b77d                j       0x1c602
   1c656:    0ae05a63            blez    a4,0x1c70a
   1c65a:    06089663            bnez    a7,0x1c6c6
   1c65e:    01d6e733            or      a4,a3,t4
   1c662:    ce070ce3            beqz    a4,0x1c35a
   1c666:    fff7871b            addiw   a4,a5,-1
   1c66a:    e31d                bnez    a4,0x1c690
   1c66c:    41df0eb3            sub     t4,t5,t4
   1c670:    40d586b3            sub     a3,a1,a3
   1c674:    01df3f33            sltu    t5,t5,t4
   1c678:    41e686b3            sub     a3,a3,t5
   1c67c:    00c69793            slli    a5,a3,0xc
   1c680:    3c07d263            bgez    a5,0x1ca44
   1c684:    00d69913            slli    s2,a3,0xd
   1c688:    00d95913            srli    s2,s2,0xd
   1c68c:    8a76                mv      s4,t4
   1c68e:    acdd                j       0x1c984
   1c690:    d2c309e3            beq     t1,a2,0x1c3c2
   1c694:    07400793            li      a5,116
   1c698:    06e7c463            blt     a5,a4,0x1c700
   1c69c:    03f00793            li      a5,63
   1c6a0:    02e7c963            blt     a5,a4,0x1c6d2
   1c6a4:    04000613            li      a2,64
   1c6a8:    9e19                subw    a2,a2,a4
   1c6aa:    00c697b3            sll     a5,a3,a2
   1c6ae:    00eed533            srl     a0,t4,a4
   1c6b2:    00ce9eb3            sll     t4,t4,a2
   1c6b6:    8fc9                or      a5,a5,a0
   1c6b8:    01d03eb3            snez    t4,t4
   1c6bc:    01d7eeb3            or      t4,a5,t4
   1c6c0:    00e6d6b3            srl     a3,a3,a4
   1c6c4:    b765                j       0x1c66c
   1c6c6:    cec30ee3            beq     t1,a2,0x1c3c2
   1c6ca:    4785                li      a5,1
   1c6cc:    17ce                slli    a5,a5,0x33
   1c6ce:    8edd                or      a3,a3,a5
   1c6d0:    b7d1                j       0x1c694
   1c6d2:    fc07079b            addiw   a5,a4,-64
   1c6d6:    04000513            li      a0,64
   1c6da:    00f6d7b3            srl     a5,a3,a5
   1c6de:    4601                li      a2,0
   1c6e0:    00a70863            beq     a4,a0,0x1c6f0
   1c6e4:    08000613            li      a2,128
   1c6e8:    40e6073b            subw    a4,a2,a4
   1c6ec:    00e69633            sll     a2,a3,a4
   1c6f0:    01d66eb3            or      t4,a2,t4
   1c6f4:    01d03eb3            snez    t4,t4
   1c6f8:    01d7eeb3            or      t4,a5,t4
   1c6fc:    4681                li      a3,0
   1c6fe:    b7bd                j       0x1c66c
   1c700:    01d6eeb3            or      t4,a3,t4
   1c704:    01d03eb3            snez    t4,t4
   1c708:    bfd5                j       0x1c6fc
   1c70a:    cb71                beqz    a4,0x1c7de
   1c70c:    08031563            bnez    t1,0x1c796
   1c710:    01e5e533            or      a0,a1,t5
   1c714:    ed01                bnez    a0,0x1c72c
   1c716:    32c89f63            bne     a7,a2,0x1ca54
   1c71a:    01d6e7b3            or      a5,a3,t4
   1c71e:    36078b63            beqz    a5,0x1ca94
   1c722:    00d69793            slli    a5,a3,0xd
   1c726:    89c6                mv      s3,a7
   1c728:    8472                mv      s0,t3
   1c72a:    bb35                j       0x1c466
   1c72c:    557d                li      a0,-1
   1c72e:    00a71d63            bne     a4,a0,0x1c748
   1c732:    41ee8f33            sub     t5,t4,t5
   1c736:    8e8d                sub     a3,a3,a1
   1c738:    01eebeb3            sltu    t4,t4,t5
   1c73c:    41d686b3            sub     a3,a3,t4
   1c740:    8efa                mv      t4,t5
   1c742:    89c6                mv      s3,a7
   1c744:    8472                mv      s0,t3
   1c746:    bf1d                j       0x1c67c
   1c748:    fcc889e3            beq     a7,a2,0x1c71a
   1c74c:    fff7c793            not     a5,a5
   1c750:    2781                sext.w  a5,a5
   1c752:    07400713            li      a4,116
   1c756:    06f74f63            blt     a4,a5,0x1c7d4
   1c75a:    03f00713            li      a4,63
   1c75e:    04f74463            blt     a4,a5,0x1c7a6
   1c762:    04000513            li      a0,64
   1c766:    9d1d                subw    a0,a0,a5
   1c768:    00ff5733            srl     a4,t5,a5
   1c76c:    00a59833            sll     a6,a1,a0
   1c770:    00af1f33            sll     t5,t5,a0
   1c774:    00e86833            or      a6,a6,a4
   1c778:    01e03f33            snez    t5,t5
   1c77c:    01e86f33            or      t5,a6,t5
   1c780:    00f5d7b3            srl     a5,a1,a5
   1c784:    41ee8f33            sub     t5,t4,t5
   1c788:    40f687b3            sub     a5,a3,a5
   1c78c:    01eeb6b3            sltu    a3,t4,t5
   1c790:    40d786b3            sub     a3,a5,a3
   1c794:    b775                j       0x1c740
   1c796:    f8c882e3            beq     a7,a2,0x1c71a
   1c79a:    4705                li      a4,1
   1c79c:    174e                slli    a4,a4,0x33
   1c79e:    40f007bb            negw    a5,a5
   1c7a2:    8dd9                or      a1,a1,a4
   1c7a4:    b77d                j       0x1c752
   1c7a6:    fc07881b            addiw   a6,a5,-64
   1c7aa:    04000713            li      a4,64
   1c7ae:    0105d833            srl     a6,a1,a6
   1c7b2:    4501                li      a0,0
   1c7b4:    00e78863            beq     a5,a4,0x1c7c4
   1c7b8:    08000513            li      a0,128
   1c7bc:    40f507bb            subw    a5,a0,a5
   1c7c0:    00f59533            sll     a0,a1,a5
   1c7c4:    01e56f33            or      t5,a0,t5
   1c7c8:    01e03f33            snez    t5,t5
   1c7cc:    01e86f33            or      t5,a6,t5
   1c7d0:    4781                li      a5,0
   1c7d2:    bf4d                j       0x1c784
   1c7d4:    01e5ef33            or      t5,a1,t5
   1c7d8:    01e03f33            snez    t5,t5
   1c7dc:    bfd5                j       0x1c7d0
   1c7de:    00130813            addi    a6,t1,1
   1c7e2:    ffe50793            addi    a5,a0,-2
   1c7e6:    00f877b3            and     a5,a6,a5
   1c7ea:    16079963            bnez    a5,0x1c95c
   1c7ee:    01e5e833            or      a6,a1,t5
   1c7f2:    01d6e533            or      a0,a3,t4
   1c7f6:    0a031263            bnez    t1,0x1c89a
   1c7fa:    06081063            bnez    a6,0x1c85a
   1c7fe:    24051e63            bnez    a0,0x1ca5a
   1c802:    ffe48413            addi    s0,s1,-2
   1c806:    00143413            seqz    s0,s0
   1c80a:    4581                li      a1,0
   1c80c:    4f01                li      t5,0
   1c80e:    00bf6eb3            or      t4,t5,a1
   1c812:    280e8663            beqz    t4,0x1ca9e
   1c816:    001f1613            slli    a2,t5,0x1
   1c81a:    03ff5793            srli    a5,t5,0x3f
   1c81e:    00159713            slli    a4,a1,0x1
   1c822:    00767693            andi    a3,a2,7
   1c826:    973e                add     a4,a4,a5
   1c828:    4781                li      a5,0
   1c82a:    c285                beqz    a3,0x1c84a
   1c82c:    4789                li      a5,2
   1c82e:    24f48563            beq     s1,a5,0x1ca78
   1c832:    478d                li      a5,3
   1c834:    22f48963            beq     s1,a5,0x1ca66
   1c838:    4785                li      a5,1
   1c83a:    e881                bnez    s1,0x1c84a
   1c83c:    00f67693            andi    a3,a2,15
   1c840:    4511                li      a0,4
   1c842:    ffc63613            sltiu   a2,a2,-4
   1c846:    22a69563            bne     a3,a0,0x1ca70
   1c84a:    9351                srli    a4,a4,0x34
   1c84c:    00174713            xori    a4,a4,1
   1c850:    8b05                andi    a4,a4,1
   1c852:    86ae                mv      a3,a1
   1c854:    8efa                mv      t4,t5
   1c856:    4981                li      s3,0
   1c858:    bb09                j       0x1c56a
   1c85a:    d955                beqz    a0,0x1c80e
   1c85c:    41df0733            sub     a4,t5,t4
   1c860:    00ef3633            sltu    a2,t5,a4
   1c864:    40d587b3            sub     a5,a1,a3
   1c868:    8f91                sub     a5,a5,a2
   1c86a:    00c79613            slli    a2,a5,0xc
   1c86e:    00065c63            bgez    a2,0x1c886
   1c872:    41ee8f33            sub     t5,t4,t5
   1c876:    40b68833            sub     a6,a3,a1
   1c87a:    01eeb6b3            sltu    a3,t4,t5
   1c87e:    40d805b3            sub     a1,a6,a3
   1c882:    8472                mv      s0,t3
   1c884:    b769                j       0x1c80e
   1c886:    00f76f33            or      t5,a4,a5
   1c88a:    1c0f1b63            bnez    t5,0x1ca60
   1c88e:    ffe48413            addi    s0,s1,-2
   1c892:    00143413            seqz    s0,s0
   1c896:    4581                li      a1,0
   1c898:    bf9d                j       0x1c80e
   1c89a:    02c31f63            bne     t1,a2,0x1c8d8
   1c89e:    22080f63            beqz    a6,0x1cadc
   1c8a2:    0325d793            srli    a5,a1,0x32
   1c8a6:    8b85                andi    a5,a5,1
   1c8a8:    0017b793            seqz    a5,a5
   1c8ac:    0792                slli    a5,a5,0x4
   1c8ae:    02689a63            bne     a7,t1,0x1c8e2
   1c8b2:    c511                beqz    a0,0x1c8be
   1c8b4:    00d69613            slli    a2,a3,0xd
   1c8b8:    00064363            bltz    a2,0x1c8be
   1c8bc:    47c1                li      a5,16
   1c8be:    02081263            bnez    a6,0x1c8e2
   1c8c2:    8472                mv      s0,t3
   1c8c4:    ce0517e3            bnez    a0,0x1c5b2
   1c8c8:    4685                li      a3,1
   1c8ca:    69a1                lui     s3,0x8
   1c8cc:    4e81                li      t4,0
   1c8ce:    4401                li      s0,0
   1c8d0:    16ca                slli    a3,a3,0x32
   1c8d2:    19fd                addi    s3,s3,-1
   1c8d4:    47c1                li      a5,16
   1c8d6:    a831                j       0x1c8f2
   1c8d8:    4781                li      a5,0
   1c8da:    fec892e3            bne     a7,a2,0x1c8be
   1c8de:    4781                li      a5,0
   1c8e0:    bfc9                j       0x1c8b2
   1c8e2:    cc0506e3            beqz    a0,0x1c5ae
   1c8e6:    4685                li      a3,1
   1c8e8:    69a1                lui     s3,0x8
   1c8ea:    4401                li      s0,0
   1c8ec:    16ca                slli    a3,a3,0x32
   1c8ee:    4e81                li      t4,0
   1c8f0:    19fd                addi    s3,s3,-1
   1c8f2:    00c69713            slli    a4,a3,0xc
   1c8f6:    00075c63            bgez    a4,0x1c90e
   1c8fa:    6721                lui     a4,0x8
   1c8fc:    0985                addi    s3,s3,1
   1c8fe:    fff70613            addi    a2,a4,-1 # 0x7fff
   1c902:    1ac98b63            beq     s3,a2,0x1cab8
   1c906:    577d                li      a4,-1
   1c908:    174e                slli    a4,a4,0x33
   1c90a:    177d                addi    a4,a4,-1
   1c90c:    8ef9                and     a3,a3,a4
   1c90e:    6721                lui     a4,0x8
   1c910:    03d69513            slli    a0,a3,0x3d
   1c914:    003ede93            srli    t4,t4,0x3
   1c918:    177d                addi    a4,a4,-1
   1c91a:    01d56533            or      a0,a0,t4
   1c91e:    828d                srli    a3,a3,0x3
   1c920:    00e99963            bne     s3,a4,0x1c932
   1c924:    8d55                or      a0,a0,a3
   1c926:    4681                li      a3,0
   1c928:    c509                beqz    a0,0x1c932
   1c92a:    4685                li      a3,1
   1c92c:    16be                slli    a3,a3,0x2f
   1c92e:    4501                li      a0,0
   1c930:    4401                li      s0,0
   1c932:    06c2                slli    a3,a3,0x10
   1c934:    19c6                slli    s3,s3,0x31
   1c936:    0019d993            srli    s3,s3,0x1
   1c93a:    82c1                srli    a3,a3,0x10
   1c93c:    03f41593            slli    a1,s0,0x3f
   1c940:    0136e6b3            or      a3,a3,s3
   1c944:    8dd5                or      a1,a1,a3
   1c946:    c399                beqz    a5,0x1c94c
   1c948:    0017a073            csrs    fflags,a5
   1c94c:    70a2                ld      ra,40(sp)
   1c94e:    7402                ld      s0,32(sp)
   1c950:    64e2                ld      s1,24(sp)
   1c952:    6942                ld      s2,16(sp)
   1c954:    69a2                ld      s3,8(sp)
   1c956:    6a02                ld      s4,0(sp)
   1c958:    6145                addi    sp,sp,48
   1c95a:    8082                ret

   1c95c:    41df0a33            sub     s4,t5,t4
   1c960:    40d58933            sub     s2,a1,a3
   1c964:    014f3733            sltu    a4,t5,s4
   1c968:    40e90933            sub     s2,s2,a4
   1c96c:    00c91793            slli    a5,s2,0xc
   1c970:    0607de63            bgez    a5,0x1c9ec
   1c974:    41ee8a33            sub     s4,t4,t5
   1c978:    8e8d                sub     a3,a3,a1
   1c97a:    014ebeb3            sltu    t4,t4,s4
   1c97e:    41d68933            sub     s2,a3,t4
   1c982:    8472                mv      s0,t3
   1c984:    06090963            beqz    s2,0x1c9f6
   1c988:    854a                mv      a0,s2
   1c98a:    540000ef            jal     ra,0x1ceca
   1c98e:    2501                sext.w  a0,a0
   1c990:    ff45061b            addiw   a2,a0,-12
   1c994:    03f00793            li      a5,63
   1c998:    8f32                mv      t5,a2
   1c99a:    06c7c463            blt     a5,a2,0x1ca02
   1c99e:    04000693            li      a3,64
   1c9a2:    9e91                subw    a3,a3,a2
   1c9a4:    00c91933            sll     s2,s2,a2
   1c9a8:    00da56b3            srl     a3,s4,a3
   1c9ac:    0126e733            or      a4,a3,s2
   1c9b0:    00ca1eb3            sll     t4,s4,a2
   1c9b4:    09364263            blt     a2,s3,0x1ca38
   1c9b8:    413f09bb            subw    s3,t5,s3
   1c9bc:    0019869b            addiw   a3,s3,1
   1c9c0:    03f00613            li      a2,63
   1c9c4:    04d64563            blt     a2,a3,0x1ca0e
   1c9c8:    04000613            li      a2,64
   1c9cc:    9e15                subw    a2,a2,a3
   1c9ce:    00c71f33            sll     t5,a4,a2
   1c9d2:    00ded533            srl     a0,t4,a3
   1c9d6:    00ce9633            sll     a2,t4,a2
   1c9da:    00af6f33            or      t5,t5,a0
   1c9de:    00c03633            snez    a2,a2
   1c9e2:    00cf6f33            or      t5,t5,a2
   1c9e6:    00d755b3            srl     a1,a4,a3
   1c9ea:    b515                j       0x1c80e
   1c9ec:    012a6f33            or      t5,s4,s2
   1c9f0:    f80f1ae3            bnez    t5,0x1c984
   1c9f4:    bd69                j       0x1c88e
   1c9f6:    8552                mv      a0,s4
   1c9f8:    4d2000ef            jal     ra,0x1ceca
   1c9fc:    0405051b            addiw   a0,a0,64
   1ca00:    bf41                j       0x1c990
   1ca02:    fb45069b            addiw   a3,a0,-76
   1ca06:    00da1733            sll     a4,s4,a3
   1ca0a:    4e81                li      t4,0
   1ca0c:    b765                j       0x1c9b4
   1ca0e:    fc198f1b            addiw   t5,s3,-63
   1ca12:    04000593            li      a1,64
   1ca16:    01e75f33            srl     t5,a4,t5
   1ca1a:    4601                li      a2,0
   1ca1c:    00b68763            beq     a3,a1,0x1ca2a
   1ca20:    08000613            li      a2,128
   1ca24:    9e15                subw    a2,a2,a3
   1ca26:    00c71633            sll     a2,a4,a2
   1ca2a:    00cee633            or      a2,t4,a2
   1ca2e:    00c03633            snez    a2,a2
   1ca32:    00cf6f33            or      t5,t5,a2
   1ca36:    b585                j       0x1c896
   1ca38:    56fd                li      a3,-1
   1ca3a:    16ce                slli    a3,a3,0x33
   1ca3c:    16fd                addi    a3,a3,-1
   1ca3e:    40c989b3            sub     s3,s3,a2
   1ca42:    8ef9                and     a3,a3,a4
   1ca44:    96099be3            bnez    s3,0x1c3ba
   1ca48:    85b6                mv      a1,a3
   1ca4a:    8f76                mv      t5,t4
   1ca4c:    b3c9                j       0x1c80e
   1ca4e:    86ae                mv      a3,a1
   1ca50:    8efa                mv      t4,t5
   1ca52:    bfcd                j       0x1ca44
   1ca54:    89c6                mv      s3,a7
   1ca56:    8472                mv      s0,t3
   1ca58:    b7f5                j       0x1ca44
   1ca5a:    85b6                mv      a1,a3
   1ca5c:    8f76                mv      t5,t4
   1ca5e:    b515                j       0x1c882
   1ca60:    85be                mv      a1,a5
   1ca62:    8f3a                mv      t5,a4
   1ca64:    b36d                j       0x1c80e
   1ca66:    4785                li      a5,1
   1ca68:    de0411e3            bnez    s0,0x1c84a
   1ca6c:    ff863613            sltiu   a2,a2,-8
   1ca70:    00164613            xori    a2,a2,1
   1ca74:    9732                add     a4,a4,a2
   1ca76:    bbd1                j       0x1c84a
   1ca78:    4785                li      a5,1
   1ca7a:    dc0408e3            beqz    s0,0x1c84a
   1ca7e:    b7fd                j       0x1ca6c
   1ca80:    4681                li      a3,0
   1ca82:    4e81                li      t4,0
   1ca84:    4781                li      a5,0
   1ca86:    b5b5                j       0x1c8f2
   1ca88:    4681                li      a3,0
   1ca8a:    4e81                li      t4,0
   1ca8c:    89c6                mv      s3,a7
   1ca8e:    bfdd                j       0x1ca84
   1ca90:    4681                li      a3,0
   1ca92:    bfcd                j       0x1ca84
   1ca94:    4681                li      a3,0
   1ca96:    4e81                li      t4,0
   1ca98:    89c6                mv      s3,a7
   1ca9a:    8472                mv      s0,t3
   1ca9c:    b7e5                j       0x1ca84
   1ca9e:    4681                li      a3,0
   1caa0:    4981                li      s3,0
   1caa2:    b7cd                j       0x1ca84
   1caa4:    e409                bnez    s0,0x1caae
   1caa6:    008e8593            addi    a1,t4,8
   1caaa:    beb5                j       0x1c626
   1caac:    fc6d                bnez    s0,0x1caa6
   1caae:    e40702e3            beqz    a4,0x1c8f2
   1cab2:    0027e793            ori     a5,a5,2
   1cab6:    bd35                j       0x1c8f2
   1cab8:    4e81                li      t4,0
   1caba:    cc89                beqz    s1,0x1cad4
   1cabc:    468d                li      a3,3
   1cabe:    00d49763            bne     s1,a3,0x1cacc
   1cac2:    c809                beqz    s0,0x1cad4
   1cac4:    5efd                li      t4,-1
   1cac6:    ffe70993            addi    s3,a4,-2 # 0x7ffe
   1caca:    a029                j       0x1cad4
   1cacc:    4689                li      a3,2
   1cace:    fed49be3            bne     s1,a3,0x1cac4
   1cad2:    d86d                beqz    s0,0x1cac4
   1cad4:    0057e793            ori     a5,a5,5
   1cad8:    86f6                mv      a3,t4
   1cada:    bd15                j       0x1c90e
   1cadc:    4781                li      a5,0
   1cade:    de6892e3            bne     a7,t1,0x1c8c2
   1cae2:    bbf5                j       0x1c8de
   1cae4:    ac0507e3            beqz    a0,0x1c5b2
   1cae8:    b4d9                j       0x1c5ae
   1caea:    ae689ce3            bne     a7,t1,0x1c5e2
   1caee:    bcc1                j       0x1c5be
   1caf0:    002027f3            frrm    a5
   1caf4:    6611                lui     a2,0x4
   1caf6:    00159693            slli    a3,a1,0x1
   1cafa:    01059793            slli    a5,a1,0x10
   1cafe:    92c5                srli    a3,a3,0x31
   1cb00:    ffe60713            addi    a4,a2,-2 # 0x3ffe
   1cb04:    83c1                srli    a5,a5,0x10
   1cb06:    91fd                srli    a1,a1,0x3f
   1cb08:    00d74863            blt     a4,a3,0x1cb18
   1cb0c:    e6a5                bnez    a3,0x1cb74
   1cb0e:    8fc9                or      a5,a5,a0
   1cb10:    4701                li      a4,0
   1cb12:    efb9                bnez    a5,0x1cb70
   1cb14:    853a                mv      a0,a4
   1cb16:    8082                ret

   1cb18:    01d60713            addi    a4,a2,29
   1cb1c:    02d75363            bge     a4,a3,0x1cb42
   1cb20:    80000737            lui     a4,0x80000
   1cb24:    fff74713            not     a4,a4
   1cb28:    9f2d                addw    a4,a4,a1
   1cb2a:    c5b9                beqz    a1,0x1cb78
   1cb2c:    01e60593            addi    a1,a2,30
   1cb30:    4641                li      a2,16
   1cb32:    04b69463            bne     a3,a1,0x1cb7a
   1cb36:    0117d693            srli    a3,a5,0x11
   1cb3a:    e2a1                bnez    a3,0x1cb7a
   1cb3c:    17be                slli    a5,a5,0x2f
   1cb3e:    8fc9                or      a5,a5,a0
   1cb40:    bfc9                j       0x1cb12
   1cb42:    4705                li      a4,1
   1cb44:    1742                slli    a4,a4,0x30
   1cb46:    8fd9                or      a5,a5,a4
   1cb48:    7771                lui     a4,0xffffc
   1cb4a:    2681                sext.w  a3,a3
   1cb4c:    2745                addiw   a4,a4,17
   1cb4e:    9f35                addw    a4,a4,a3
   1cb50:    00e79733            sll     a4,a5,a4
   1cb54:    8d59                or      a0,a0,a4
   1cb56:    6711                lui     a4,0x4
   1cb58:    02f7071b            addiw   a4,a4,47
   1cb5c:    40d706bb            subw    a3,a4,a3
   1cb60:    00d7d7b3            srl     a5,a5,a3
   1cb64:    0007871b            sext.w  a4,a5
   1cb68:    c199                beqz    a1,0x1cb6e
   1cb6a:    40e0073b            negw    a4,a4
   1cb6e:    d15d                beqz    a0,0x1cb14
   1cb70:    4605                li      a2,1
   1cb72:    a021                j       0x1cb7a
   1cb74:    4701                li      a4,0
   1cb76:    bfed                j       0x1cb70
   1cb78:    4641                li      a2,16
   1cb7a:    00162073            csrs    fflags,a2
   1cb7e:    bf59                j       0x1cb14
   1cb80:    1101                addi    sp,sp,-32
   1cb82:    ec06                sd      ra,24(sp)
   1cb84:    e822                sd      s0,16(sp)
   1cb86:    e426                sd      s1,8(sp)
   1cb88:    c539                beqz    a0,0x1cbd6
   1cb8a:    0005079b            sext.w  a5,a0
   1cb8e:    03f55493            srli    s1,a0,0x3f
   1cb92:    00055463            bgez    a0,0x1cb9a
   1cb96:    40f007bb            negw    a5,a5
   1cb9a:    02079413            slli    s0,a5,0x20
   1cb9e:    9001                srli    s0,s0,0x20
   1cba0:    8522                mv      a0,s0
   1cba2:    328000ef            jal     ra,0x1ceca
   1cba6:    6711                lui     a4,0x4
   1cba8:    03e7079b            addiw   a5,a4,62
   1cbac:    40a785bb            subw    a1,a5,a0
   1cbb0:    02f7071b            addiw   a4,a4,47
   1cbb4:    40b7053b            subw    a0,a4,a1
   1cbb8:    00a41533            sll     a0,s0,a0
   1cbbc:    60e2                ld      ra,24(sp)
   1cbbe:    6442                ld      s0,16(sp)
   1cbc0:    0542                slli    a0,a0,0x10
   1cbc2:    15c6                slli    a1,a1,0x31
   1cbc4:    8141                srli    a0,a0,0x10
   1cbc6:    8185                srli    a1,a1,0x1
   1cbc8:    14fe                slli    s1,s1,0x3f
   1cbca:    8dc9                or      a1,a1,a0
   1cbcc:    8dc5                or      a1,a1,s1
   1cbce:    4501                li      a0,0
   1cbd0:    64a2                ld      s1,8(sp)
   1cbd2:    6105                addi    sp,sp,32
   1cbd4:    8082                ret

   1cbd6:    4501                li      a0,0
   1cbd8:    4581                li      a1,0
   1cbda:    4481                li      s1,0
   1cbdc:    b7c5                j       0x1cbbc
   1cbde:    1101                addi    sp,sp,-32
   1cbe0:    ec06                sd      ra,24(sp)
   1cbe2:    e822                sd      s0,16(sp)
   1cbe4:    e426                sd      s1,8(sp)
   1cbe6:    e20505d3            fmv.x.d    a1,fa0
   1cbea:    002027f3            frrm    a5
   1cbee:    0345d513            srli    a0,a1,0x34
   1cbf2:    7ff57513            andi    a0,a0,2047
   1cbf6:    00150713            addi    a4,a0,1
   1cbfa:    00c59413            slli    s0,a1,0xc
   1cbfe:    7fe77713            andi    a4,a4,2046
   1cc02:    8031                srli    s0,s0,0xc
   1cc04:    03f5d493            srli    s1,a1,0x3f
   1cc08:    cb11                beqz    a4,0x1cc1c
   1cc0a:    6711                lui     a4,0x4
   1cc0c:    c0070713            addi    a4,a4,-1024 # 0x3c00
   1cc10:    00445793            srli    a5,s0,0x4
   1cc14:    953a                add     a0,a0,a4
   1cc16:    1472                slli    s0,s0,0x3c
   1cc18:    4701                li      a4,0
   1cc1a:    a8b9                j       0x1cc78
   1cc1c:    ed1d                bnez    a0,0x1cc5a
   1cc1e:    4781                li      a5,0
   1cc20:    dc65                beqz    s0,0x1cc18
   1cc22:    8522                mv      a0,s0
   1cc24:    2a6000ef            jal     ra,0x1ceca
   1cc28:    0005071b            sext.w  a4,a0
   1cc2c:    47b9                li      a5,14
   1cc2e:    02e7c063            blt     a5,a4,0x1cc4e
   1cc32:    47bd                li      a5,15
   1cc34:    9f89                subw    a5,a5,a0
   1cc36:    0315071b            addiw   a4,a0,49
   1cc3a:    00f457b3            srl     a5,s0,a5
   1cc3e:    00e41433            sll     s0,s0,a4
   1cc42:    6711                lui     a4,0x4
   1cc44:    c0c7071b            addiw   a4,a4,-1012
   1cc48:    40a7053b            subw    a0,a4,a0
   1cc4c:    b7f1                j       0x1cc18
   1cc4e:    ff15079b            addiw   a5,a0,-15
   1cc52:    00f417b3            sll     a5,s0,a5
   1cc56:    4401                li      s0,0
   1cc58:    b7ed                j       0x1cc42
   1cc5a:    c021                beqz    s0,0x1cc9a
   1cc5c:    4685                li      a3,1
   1cc5e:    03369713            slli    a4,a3,0x33
   1cc62:    8f61                and     a4,a4,s0
   1cc64:    00445793            srli    a5,s0,0x4
   1cc68:    00173713            seqz    a4,a4
   1cc6c:    16be                slli    a3,a3,0x2f
   1cc6e:    6521                lui     a0,0x8
   1cc70:    0712                slli    a4,a4,0x4
   1cc72:    8fd5                or      a5,a5,a3
   1cc74:    1472                slli    s0,s0,0x3c
   1cc76:    157d                addi    a0,a0,-1
   1cc78:    07c2                slli    a5,a5,0x10
   1cc7a:    1546                slli    a0,a0,0x31
   1cc7c:    8105                srli    a0,a0,0x1
   1cc7e:    83c1                srli    a5,a5,0x10
   1cc80:    03f49593            slli    a1,s1,0x3f
   1cc84:    8fc9                or      a5,a5,a0
   1cc86:    8ddd                or      a1,a1,a5
   1cc88:    c319                beqz    a4,0x1cc8e
   1cc8a:    00172073            csrs    fflags,a4
   1cc8e:    8522                mv      a0,s0
   1cc90:    60e2                ld      ra,24(sp)
   1cc92:    6442                ld      s0,16(sp)
   1cc94:    64a2                ld      s1,8(sp)
   1cc96:    6105                addi    sp,sp,32
   1cc98:    8082                ret

   1cc9a:    6521                lui     a0,0x8
   1cc9c:    4781                li      a5,0
   1cc9e:    157d                addi    a0,a0,-1
   1cca0:    bfa5                j       0x1cc18
   1cca2:    00202673            frrm    a2
   1cca6:    68a1                lui     a7,0x8
   1cca8:    0305d713            srli    a4,a1,0x30
   1ccac:    fff88813            addi    a6,a7,-1 # 0x7fff
   1ccb0:    03f5d693            srli    a3,a1,0x3f
   1ccb4:    05c2                slli    a1,a1,0x10
   1ccb6:    00d5d793            srli    a5,a1,0xd
   1ccba:    01077733            and     a4,a4,a6
   1ccbe:    03d55593            srli    a1,a0,0x3d
   1ccc2:    8ddd                or      a1,a1,a5
   1ccc4:    18f9                addi    a7,a7,-2
   1ccc6:    00170793            addi    a5,a4,1 # 0x4001
   1ccca:    0117f8b3            and     a7,a5,a7
   1ccce:    2601                sext.w  a2,a2
   1ccd0:    00351e93            slli    t4,a0,0x3
   1ccd4:    16088c63            beqz    a7,0x1ce4c
   1ccd8:    78f1                lui     a7,0xffffc
   1ccda:    40088893            addi    a7,a7,1024 # 0xffffffffffffc400
   1ccde:    98ba                add     a7,a7,a4
   1cce0:    7fe00793            li      a5,2046
   1cce4:    0917dc63            bge     a5,a7,0x1cd7c
   1cce8:    c229                beqz    a2,0x1cd2a
   1ccea:    478d                li      a5,3
   1ccec:    02f61b63            bne     a2,a5,0x1cd22
   1ccf0:    ce8d                beqz    a3,0x1cd2a
   1ccf2:    57fd                li      a5,-1
   1ccf4:    7fe00893            li      a7,2046
   1ccf8:    4701                li      a4,0
   1ccfa:    4315                li      t1,5
   1ccfc:    4589                li      a1,2
   1ccfe:    00136313            ori     t1,t1,1
   1cd02:    1ab60063            beq     a2,a1,0x1cea2
   1cd06:    458d                li      a1,3
   1cd08:    18b60963            beq     a2,a1,0x1ce9a
   1cd0c:    e619                bnez    a2,0x1cd1a
   1cd0e:    00f7f593            andi    a1,a5,15
   1cd12:    4511                li      a0,4
   1cd14:    00a58363            beq     a1,a0,0x1cd1a
   1cd18:    0791                addi    a5,a5,4
   1cd1a:    cf01                beqz    a4,0x1cd32
   1cd1c:    00236313            ori     t1,t1,2
   1cd20:    a809                j       0x1cd32
   1cd22:    4789                li      a5,2
   1cd24:    fcf617e3            bne     a2,a5,0x1ccf2
   1cd28:    d6e9                beqz    a3,0x1ccf2
   1cd2a:    4781                li      a5,0
   1cd2c:    7ff00893            li      a7,2047
   1cd30:    4315                li      t1,5
   1cd32:    00879713            slli    a4,a5,0x8
   1cd36:    00075b63            bgez    a4,0x1cd4c
   1cd3a:    0885                addi    a7,a7,1
   1cd3c:    7ff00713            li      a4,2047
   1cd40:    16e88463            beq     a7,a4,0x1cea8
   1cd44:    567d                li      a2,-1
   1cd46:    165e                slli    a2,a2,0x37
   1cd48:    167d                addi    a2,a2,-1
   1cd4a:    8ff1                and     a5,a5,a2
   1cd4c:    7ff00713            li      a4,2047
   1cd50:    838d                srli    a5,a5,0x3
   1cd52:    00e89663            bne     a7,a4,0x1cd5e
   1cd56:    c781                beqz    a5,0x1cd5e
   1cd58:    4785                li      a5,1
   1cd5a:    17ce                slli    a5,a5,0x33
   1cd5c:    4681                li      a3,0
   1cd5e:    07b2                slli    a5,a5,0xc
   1cd60:    7ff8f713            andi    a4,a7,2047
   1cd64:    1752                slli    a4,a4,0x34
   1cd66:    83b1                srli    a5,a5,0xc
   1cd68:    16fe                slli    a3,a3,0x3f
   1cd6a:    8fd9                or      a5,a5,a4
   1cd6c:    8fd5                or      a5,a5,a3
   1cd6e:    00030463            beqz    t1,0x1cd76
   1cd72:    00132073            csrs    fflags,t1
   1cd76:    f2078553            fmv.d.x    fa0,a5
   1cd7a:    8082                ret

   1cd7c:    0b104363            bgtz    a7,0x1ce22
   1cd80:    fcc00793            li      a5,-52
   1cd84:    0ef8cf63            blt     a7,a5,0x1ce82
   1cd88:    4785                li      a5,1
   1cd8a:    17ce                slli    a5,a5,0x33
   1cd8c:    03d00e13            li      t3,61
   1cd90:    8ddd                or      a1,a1,a5
   1cd92:    411e0e33            sub     t3,t3,a7
   1cd96:    03f00793            li      a5,63
   1cd9a:    2881                sext.w  a7,a7
   1cd9c:    05c7ce63            blt     a5,t3,0x1cdf8
   1cda0:    0038851b            addiw   a0,a7,3
   1cda4:    03d00713            li      a4,61
   1cda8:    4117073b            subw    a4,a4,a7
   1cdac:    00ae97b3            sll     a5,t4,a0
   1cdb0:    00eed733            srl     a4,t4,a4
   1cdb4:    00f037b3            snez    a5,a5
   1cdb8:    8fd9                or      a5,a5,a4
   1cdba:    00a595b3            sll     a1,a1,a0
   1cdbe:    8fcd                or      a5,a5,a1
   1cdc0:    4881                li      a7,0
   1cdc2:    cbf1                beqz    a5,0x1ce96
   1cdc4:    00179713            slli    a4,a5,0x1
   1cdc8:    00777593            andi    a1,a4,7
   1cdcc:    4301                li      t1,0
   1cdce:    cd99                beqz    a1,0x1cdec
   1cdd0:    4589                li      a1,2
   1cdd2:    0ab60d63            beq     a2,a1,0x1ce8c
   1cdd6:    458d                li      a1,3
   1cdd8:    4305                li      t1,1
   1cdda:    0ab60663            beq     a2,a1,0x1ce86
   1cdde:    e619                bnez    a2,0x1cdec
   1cde0:    00f77593            andi    a1,a4,15
   1cde4:    4511                li      a0,4
   1cde6:    00a58363            beq     a1,a0,0x1cdec
   1cdea:    0711                addi    a4,a4,4
   1cdec:    9361                srli    a4,a4,0x38
   1cdee:    00174713            xori    a4,a4,1
   1cdf2:    8b05                andi    a4,a4,1
   1cdf4:    4881                li      a7,0
   1cdf6:    a091                j       0x1ce3a
   1cdf8:    5375                li      t1,-3
   1cdfa:    4113033b            subw    t1,t1,a7
   1cdfe:    04000793            li      a5,64
   1ce02:    0065d333            srl     t1,a1,t1
   1ce06:    4801                li      a6,0
   1ce08:    00fe0663            beq     t3,a5,0x1ce14
   1ce0c:    0438871b            addiw   a4,a7,67
   1ce10:    00e59833            sll     a6,a1,a4
   1ce14:    01d86833            or      a6,a6,t4
   1ce18:    01003833            snez    a6,a6
   1ce1c:    010367b3            or      a5,t1,a6
   1ce20:    b745                j       0x1cdc0
   1ce22:    00751793            slli    a5,a0,0x7
   1ce26:    00f037b3            snez    a5,a5
   1ce2a:    03ced813            srli    a6,t4,0x3c
   1ce2e:    0107e7b3            or      a5,a5,a6
   1ce32:    0592                slli    a1,a1,0x4
   1ce34:    8fcd                or      a5,a5,a1
   1ce36:    4701                li      a4,0
   1ce38:    4301                li      t1,0
   1ce3a:    0077f593            andi    a1,a5,7
   1ce3e:    ea059fe3            bnez    a1,0x1ccfc
   1ce42:    ee0708e3            beqz    a4,0x1cd32
   1ce46:    00137713            andi    a4,t1,1
   1ce4a:    bdc1                j       0x1cd1a
   1ce4c:    01d5e7b3            or      a5,a1,t4
   1ce50:    e701                bnez    a4,0x1ce58
   1ce52:    00f037b3            snez    a5,a5
   1ce56:    b7ad                j       0x1cdc0
   1ce58:    cf8d                beqz    a5,0x1ce92
   1ce5a:    4301                li      t1,0
   1ce5c:    01071763            bne     a4,a6,0x1ce6a
   1ce60:    0325d313            srli    t1,a1,0x32
   1ce64:    00133313            seqz    t1,t1
   1ce68:    0312                slli    t1,t1,0x4
   1ce6a:    03ced793            srli    a5,t4,0x3c
   1ce6e:    0592                slli    a1,a1,0x4
   1ce70:    8ddd                or      a1,a1,a5
   1ce72:    4785                li      a5,1
   1ce74:    99e1                andi    a1,a1,-8
   1ce76:    17da                slli    a5,a5,0x36
   1ce78:    8fcd                or      a5,a5,a1
   1ce7a:    7ff00893            li      a7,2047
   1ce7e:    4701                li      a4,0
   1ce80:    bf6d                j       0x1ce3a
   1ce82:    4785                li      a5,1
   1ce84:    b781                j       0x1cdc4
   1ce86:    f2bd                bnez    a3,0x1cdec
   1ce88:    0721                addi    a4,a4,8
   1ce8a:    b78d                j       0x1cdec
   1ce8c:    4305                li      t1,1
   1ce8e:    deb9                beqz    a3,0x1cdec
   1ce90:    bfe5                j       0x1ce88
   1ce92:    7ff00893            li      a7,2047
   1ce96:    4301                li      t1,0
   1ce98:    bd69                j       0x1cd32
   1ce9a:    e80690e3            bnez    a3,0x1cd1a
   1ce9e:    07a1                addi    a5,a5,8
   1cea0:    bdad                j       0x1cd1a
   1cea2:    e6068ce3            beqz    a3,0x1cd1a
   1cea6:    bfe5                j       0x1ce9e
   1cea8:    4781                li      a5,0
   1ceaa:    ce09                beqz    a2,0x1cec4
   1ceac:    470d                li      a4,3
   1ceae:    00e61763            bne     a2,a4,0x1cebc
   1ceb2:    ca89                beqz    a3,0x1cec4
   1ceb4:    57fd                li      a5,-1
   1ceb6:    7fe00893            li      a7,2046
   1ceba:    a029                j       0x1cec4
   1cebc:    4709                li      a4,2
   1cebe:    fee61be3            bne     a2,a4,0x1ceb4
   1cec2:    daed                beqz    a3,0x1ceb4
   1cec4:    00536313            ori     t1,t1,5
   1cec8:    b551                j       0x1cd4c
   1ceca:    03800793            li      a5,56
   1cece:    00f55733            srl     a4,a0,a5
   1ced2:    0ff77713            andi    a4,a4,255
   1ced6:    e319                bnez    a4,0x1cedc
   1ced8:    17e1                addi    a5,a5,-8
   1ceda:    fbf5                bnez    a5,0x1cece
   1cedc:    04000713            li      a4,64
   1cee0:    8f1d                sub     a4,a4,a5
   1cee2:    00f557b3            srl     a5,a0,a5
   1cee6:    6579                lui     a0,0x1e
   1cee8:    a8850513            addi    a0,a0,-1400 # 0x1da88
   1ceec:    97aa                add     a5,a5,a0
   1ceee:    0007c503            lbu     a0,0(a5)
   1cef2:    40a7053b            subw    a0,a4,a0
   1cef6:    8082                ret

